
kernel.elf:     file format elf32-littlearm


Disassembly of section .text:

00008000 <_start>:
.global _start
.global _get_stack_pointer
 
_start:

	ldr pc, _reset_h
    8000:	e59ff018 	ldr	pc, [pc, #24]	; 8020 <_reset_h>
	ldr pc, _undifined_instruction_vector_h
    8004:	e59ff018 	ldr	pc, [pc, #24]	; 8024 <_undifined_instruction_vector_h>
	ldr pc, _software_interrupt_vector_h
    8008:	e59ff018 	ldr	pc, [pc, #24]	; 8028 <_software_interrupt_vector_h>
	ldr pc, _prefetch_abort_vector_h
    800c:	e59ff018 	ldr	pc, [pc, #24]	; 802c <_prefetch_abort_vector_h>
	ldr pc, _data_abort_vector_h
    8010:	e59ff018 	ldr	pc, [pc, #24]	; 8030 <_data_abort_vector_h>
	ldr pc, _unused_hander_h
    8014:	e59ff018 	ldr	pc, [pc, #24]	; 8034 <_unused_hander_h>
	ldr pc, _interrupt_vector_h
    8018:	e59ff018 	ldr	pc, [pc, #24]	; 8038 <_interrupt_vector_h>
	ldr pc, _fast_interrupt_vector_h
    801c:	e59ff018 	ldr	pc, [pc, #24]	; 803c <_fast_interrupt_vector_h>

00008020 <_reset_h>:
    8020:	00008040 	.word	0x00008040

00008024 <_undifined_instruction_vector_h>:
    8024:	00008db8 	.word	0x00008db8

00008028 <_software_interrupt_vector_h>:
    8028:	00008dbc 	.word	0x00008dbc

0000802c <_prefetch_abort_vector_h>:
    802c:	00008dc0 	.word	0x00008dc0

00008030 <_data_abort_vector_h>:
    8030:	00008dc4 	.word	0x00008dc4

00008034 <_unused_hander_h>:
    8034:	00008040 	.word	0x00008040

00008038 <_interrupt_vector_h>:
    8038:	00008dc8 	.word	0x00008dc8

0000803c <_fast_interrupt_vector_h>:
    803c:	00008dcc 	.word	0x00008dcc

00008040 <_reset_>:
_unused_hander_h:					.word		_reset_
_interrupt_vector_h:					.word		interrupt_vector
_fast_interrupt_vector_h:				.word		fast_interrupt_vector

_reset_:
	mov 	r0, #0x8000
    8040:	e3a00902 	mov	r0, #32768	; 0x8000
	mov	r1, #0x0000
    8044:	e3a01000 	mov	r1, #0
	ldmia	r0!, {r2, r3, r4, r5, r6, r7, r8, r9} 
    8048:	e8b003fc 	ldm	r0!, {r2, r3, r4, r5, r6, r7, r8, r9}
	stmia	r1!, {r2, r3, r4, r5, r6, r7, r8, r9}
    804c:	e8a103fc 	stmia	r1!, {r2, r3, r4, r5, r6, r7, r8, r9}
	ldmia	r0!, {r2, r3, r4, r5, r6, r7, r8, r9} 
    8050:	e8b003fc 	ldm	r0!, {r2, r3, r4, r5, r6, r7, r8, r9}
	stmia	r1!, {r2, r3, r4, r5, r6, r7, r8, r9}
    8054:	e8a103fc 	stmia	r1!, {r2, r3, r4, r5, r6, r7, r8, r9}
	
	// Set the stack pointer at the end of RAM.
	// Keep it within the limits and also keep it aligned to a 32-bit
	// boundary!
	ldr     sp, =(128 * (1024 * 1024))
    8058:	e3a0d302 	mov	sp, #134217728	; 0x8000000
	//ldr     sp, =(256 * (1024 * 1024))
	//ldr     sp, =(512 * (1024 * 1024))
	sub     sp, sp, #0x4
    805c:	e24dd004 	sub	sp, sp, #4
 
	// The c-startup
	b       _cstartup
    8060:	ea000368 	b	8e08 <_cstartup>

00008064 <_inf_loop>:
 
_inf_loop:
	b       _inf_loop
    8064:	eafffffe 	b	8064 <_inf_loop>

00008068 <_get_stack_pointer>:
 
_get_stack_pointer:
    // Return the stack pointer value
    str     sp, [sp]
    8068:	e58dd000 	str	sp, [sp]
    ldr     r0, [sp]
    806c:	e59d0000 	ldr	r0, [sp]
 
    // Return from the function
    mov     pc, lr
    8070:	e1a0f00e 	mov	pc, lr

00008074 <_sbrk>:
/* Increase program data space. As malloc and related functions depend on this,
   it is useful to have a working implementation. The following suffices for a
   standalone system; it exploits the symbol _end automatically defined by the
   GNU linker. */
caddr_t _sbrk( int incr )
{
    8074:	e92d4070 	push	{r4, r5, r6, lr}
    extern char _end;
    static char* heap_end;
    char* prev_heap_end;
 
    if( heap_end == 0 )
    8078:	e59f4038 	ldr	r4, [pc, #56]	; 80b8 <_sbrk+0x44>
/* Increase program data space. As malloc and related functions depend on this,
   it is useful to have a working implementation. The following suffices for a
   standalone system; it exploits the symbol _end automatically defined by the
   GNU linker. */
caddr_t _sbrk( int incr )
{
    807c:	e1a06000 	mov	r6, r0
    extern char _end;
    static char* heap_end;
    char* prev_heap_end;
 
    if( heap_end == 0 )
    8080:	e5945000 	ldr	r5, [r4]
    8084:	e3550000 	cmp	r5, #0
        heap_end = &_end;
    8088:	059f502c 	ldreq	r5, [pc, #44]	; 80bc <_sbrk+0x48>
    808c:	05845000 	streq	r5, [r4]
 
     prev_heap_end = heap_end;
 
     if( ( heap_end + incr) > _get_stack_pointer() )
    8090:	ebfffff4 	bl	8068 <_get_stack_pointer>
    8094:	e0853006 	add	r3, r5, r6
    8098:	e1530000 	cmp	r3, r0
    809c:	9a000000 	bls	80a4 <_sbrk+0x30>
    80a0:	eafffffe 	b	80a0 <_sbrk+0x2c>
        {
            /* TRAP HERE! */
        }
     }
 
     heap_end += incr;
    80a4:	e5943000 	ldr	r3, [r4]
     return (caddr_t)prev_heap_end;
}
    80a8:	e1a00005 	mov	r0, r5
        {
            /* TRAP HERE! */
        }
     }
 
     heap_end += incr;
    80ac:	e0836006 	add	r6, r3, r6
    80b0:	e5846000 	str	r6, [r4]
     return (caddr_t)prev_heap_end;
}
    80b4:	e8bd8070 	pop	{r4, r5, r6, pc}
    80b8:	00016148 	.word	0x00016148
    80bc:	0001aec4 	.word	0x0001aec4

000080c0 <deb_GPIO>:
*	void  deb_GPIO(void)
*      GPIO闪烁
*	return   void
*/
void  deb_GPIO(void)
 {
    80c0:	e92d4008 	push	{r3, lr}
	 while(1)
	{	
		sleep(1000);
    80c4:	e3a00ffa 	mov	r0, #1000	; 0x3e8
    80c8:	eb000360 	bl	8e50 <sleep>
		GPIO_SET_GPCLR(16);
    80cc:	e3a00010 	mov	r0, #16
    80d0:	eb000088 	bl	82f8 <GPIO_SET_GPCLR>
		sleep(1000);
    80d4:	e3a00ffa 	mov	r0, #1000	; 0x3e8
    80d8:	eb00035c 	bl	8e50 <sleep>
		GPIO_SET_GPSET(16);
    80dc:	e3a00010 	mov	r0, #16
    80e0:	eb000073 	bl	82b4 <GPIO_SET_GPSET>
    80e4:	eafffff6 	b	80c4 <deb_GPIO+0x4>

000080e8 <deb_screen>:
*	void  deb_screen(void)
*      画出图案
*	return   void
*/
void  deb_screen(void)
 {
    80e8:	e92d40f0 	push	{r4, r5, r6, r7, lr}
	color.B = 0x00;
	float A = 3.14;
	int top,left;
	top = 40;
	left = 20;
	DrawBlock(color,0,0,(((struct FrameBufferInfoS *)GpuInfoAddr) -> phyWidth) ,1);
    80ec:	e59f60c8 	ldr	r6, [pc, #200]	; 81bc <deb_screen+0xd4>
*	void  deb_screen(void)
*      画出图案
*	return   void
*/
void  deb_screen(void)
 {
    80f0:	e24dd01c 	sub	sp, sp, #28
	RGB_24Bit color;
	color.R = 0xFF;
	color.G = 0x00;
    80f4:	e3a04000 	mov	r4, #0
*	return   void
*/
void  deb_screen(void)
 {
	RGB_24Bit color;
	color.R = 0xFF;
    80f8:	e3e07000 	mvn	r7, #0
	color.B = 0x00;
	float A = 3.14;
	int top,left;
	top = 40;
	left = 20;
	DrawBlock(color,0,0,(((struct FrameBufferInfoS *)GpuInfoAddr) -> phyWidth) ,1);
    80fc:	e5963000 	ldr	r3, [r6]
    8100:	e3a05001 	mov	r5, #1
*	return   void
*/
void  deb_screen(void)
 {
	RGB_24Bit color;
	color.R = 0xFF;
    8104:	e5cd7014 	strb	r7, [sp, #20]
	color.G = 0x00;
    8108:	e5cd4015 	strb	r4, [sp, #21]
	color.B = 0x00;
    810c:	e5cd4016 	strb	r4, [sp, #22]
	float A = 3.14;
	int top,left;
	top = 40;
	left = 20;
	DrawBlock(color,0,0,(((struct FrameBufferInfoS *)GpuInfoAddr) -> phyWidth) ,1);
    8110:	e5933000 	ldr	r3, [r3]
    8114:	e59d0014 	ldr	r0, [sp, #20]
    8118:	e1a01004 	mov	r1, r4
    811c:	e1a02004 	mov	r2, r4
    8120:	e58d5000 	str	r5, [sp]
    8124:	eb00011d 	bl	85a0 <DrawBlock>
	DrawBlock(color,0,0,1,(((struct FrameBufferInfoS *)GpuInfoAddr) -> phyHeight) );
    8128:	e5963000 	ldr	r3, [r6]
    812c:	e1a01004 	mov	r1, r4
    8130:	e5933004 	ldr	r3, [r3, #4]
    8134:	e1a02004 	mov	r2, r4
    8138:	e58d3000 	str	r3, [sp]
    813c:	e59d0014 	ldr	r0, [sp, #20]
    8140:	e1a03005 	mov	r3, r5
    8144:	eb000115 	bl	85a0 <DrawBlock>
	DrawBlock(color,0,(((struct FrameBufferInfoS *)GpuInfoAddr) -> phyWidth)-1,1,(((struct FrameBufferInfoS *)GpuInfoAddr) -> phyHeight));
    8148:	e5963000 	ldr	r3, [r6]
    814c:	e1a01004 	mov	r1, r4
    8150:	e893000c 	ldm	r3, {r2, r3}
    8154:	e59d0014 	ldr	r0, [sp, #20]
    8158:	e0822007 	add	r2, r2, r7
    815c:	e58d3000 	str	r3, [sp]
    8160:	e1a03005 	mov	r3, r5
    8164:	eb00010d 	bl	85a0 <DrawBlock>
	DrawBlock(color,(((struct FrameBufferInfoS *)GpuInfoAddr) -> phyHeight)-1,0,(((struct FrameBufferInfoS *)GpuInfoAddr) -> phyWidth),1);
    8168:	e5963000 	ldr	r3, [r6]
    816c:	e1a02004 	mov	r2, r4
    8170:	e5931004 	ldr	r1, [r3, #4]
    8174:	e59d0014 	ldr	r0, [sp, #20]
    8178:	e5933000 	ldr	r3, [r3]
    817c:	e0811007 	add	r1, r1, r7
    8180:	e58d5000 	str	r5, [sp]
    8184:	eb000105 	bl	85a0 <DrawBlock>
	color.R = 0xFF;
	color.G = 0xFF;
	color.B = 0xFF;
	
	/*2015年01月01日22:59:23  真是一个奇怪的bug，函数参数不能有double类型。Why*/
	drawStringF("123:%%d%d,%%x%x,%%b%b",color,  top, left ,123,123,123);
    8188:	e3a0307b 	mov	r3, #123	; 0x7b
	DrawBlock(color,0,0,1,(((struct FrameBufferInfoS *)GpuInfoAddr) -> phyHeight) );
	DrawBlock(color,0,(((struct FrameBufferInfoS *)GpuInfoAddr) -> phyWidth)-1,1,(((struct FrameBufferInfoS *)GpuInfoAddr) -> phyHeight));
	DrawBlock(color,(((struct FrameBufferInfoS *)GpuInfoAddr) -> phyHeight)-1,0,(((struct FrameBufferInfoS *)GpuInfoAddr) -> phyWidth),1);
	
	color.R = 0xFF;
	color.G = 0xFF;
    818c:	e5cd7015 	strb	r7, [sp, #21]
	color.B = 0xFF;
    8190:	e5cd7016 	strb	r7, [sp, #22]
	
	/*2015年01月01日22:59:23  真是一个奇怪的bug，函数参数不能有double类型。Why*/
	drawStringF("123:%%d%d,%%x%x,%%b%b",color,  top, left ,123,123,123);
    8194:	e58d3000 	str	r3, [sp]
    8198:	e58d3004 	str	r3, [sp, #4]
    819c:	e58d3008 	str	r3, [sp, #8]
    81a0:	e59d1014 	ldr	r1, [sp, #20]
    81a4:	e59f0014 	ldr	r0, [pc, #20]	; 81c0 <deb_screen+0xd8>
    81a8:	e3a02028 	mov	r2, #40	; 0x28
    81ac:	e3a03014 	mov	r3, #20
    81b0:	eb000238 	bl	8a98 <drawStringF>
 }
    81b4:	e28dd01c 	add	sp, sp, #28
    81b8:	e8bd80f0 	pop	{r4, r5, r6, r7, pc}
    81bc:	000161ac 	.word	0x000161ac
    81c0:	000129b4 	.word	0x000129b4

000081c4 <deb_keyboard>:
*	 void  deb_keyboard(void)
*      画出图案
*	return   void
*/
 void  deb_keyboard(void)
 {
    81c4:	e92d4008 	push	{r3, lr}
	left = 0;
	
	while(1)
	 {
		char unsigned key = 0;
		KeyboardUpdate();
    81c8:	eb000530 	bl	9690 <KeyboardUpdate>
		key = KeyboardGetChar();
    81cc:	eb00055c 	bl	9744 <KeyboardGetChar>
		 if(key != 0)
    81d0:	e3500000 	cmp	r0, #0
    81d4:	0afffffb 	beq	81c8 <deb_keyboard+0x4>
		 {
			GPIO_SET_GPCLR(16);
    81d8:	e3a00010 	mov	r0, #16
    81dc:	eb000045 	bl	82f8 <GPIO_SET_GPCLR>
    81e0:	eafffff8 	b	81c8 <deb_keyboard+0x4>

000081e4 <GPIO_SET_GPFSEL>:
int GPIO_SET_GPFSEL(int pin, int func)
{
	volatile unsigned long *point = 0 ;
	unsigned long mask = 0;
	int bit_num = 0;
	bit_num = pin % 10;
    81e4:	e59f30c0 	ldr	r3, [pc, #192]	; 82ac <GPIO_SET_GPFSEL+0xc8>
	
	//检查
	
	if(pin > 53 || pin < 0)
    81e8:	e3500035 	cmp	r0, #53	; 0x35
int GPIO_SET_GPFSEL(int pin, int func)
{
	volatile unsigned long *point = 0 ;
	unsigned long mask = 0;
	int bit_num = 0;
	bit_num = pin % 10;
    81ec:	e0c32093 	smull	r2, r3, r3, r0
    81f0:	e1a02fc0 	asr	r2, r0, #31
    81f4:	e0623143 	rsb	r3, r2, r3, asr #2
    81f8:	e1a02003 	mov	r2, r3
    81fc:	e0833103 	add	r3, r3, r3, lsl #2
*   设置第pin个GPIO的功能(func)
*	return 0 成功  -1 失败	
*/

int GPIO_SET_GPFSEL(int pin, int func)
{
    8200:	e52d4004 	push	{r4}		; (str r4, [sp, #-4]!)
	volatile unsigned long *point = 0 ;
	unsigned long mask = 0;
	int bit_num = 0;
	bit_num = pin % 10;
    8204:	e0403083 	sub	r3, r0, r3, lsl #1
	
	//检查
	
	if(pin > 53 || pin < 0)
    8208:	8a000025 	bhi	82a4 <GPIO_SET_GPFSEL+0xc0>
	{
		return -1;
	}
	
	if(func > 7 || func < 0)
    820c:	e3510007 	cmp	r1, #7
    8210:	8a000023 	bhi	82a4 <GPIO_SET_GPFSEL+0xc0>
    8214:	e59f0094 	ldr	r0, [pc, #148]	; 82b0 <GPIO_SET_GPFSEL+0xcc>
	
	//赋值
	
	point = (unsigned long*)GET_GPFSEL_ADDR(pin);
	//point = (unsigned long*)GPFSEL1;
	switch(func)
    8218:	e3510000 	cmp	r1, #0
		return -1;
	}
	
	//赋值
	
	point = (unsigned long*)GET_GPFSEL_ADDR(pin);
    821c:	e7902102 	ldr	r2, [r0, r2, lsl #2]
	//point = (unsigned long*)GPFSEL1;
	switch(func)
    8220:	0a000012 	beq	8270 <GPIO_SET_GPFSEL+0x8c>
    8224:	e3510001 	cmp	r1, #1
    8228:	0a000002 	beq	8238 <GPIO_SET_GPFSEL+0x54>
			*point |= 1 << (bit_num * 3);
			break;
		default:
			break;
	}
	return 0;
    822c:	e3a00000 	mov	r0, #0
} 
    8230:	e49d4004 	pop	{r4}		; (ldr r4, [sp], #4)
    8234:	e12fff1e 	bx	lr
			//^ 异或
			~mask; 				
			*point &= mask;
			break;
		case 1:
			mask |= 1 << ((bit_num * 3) + 2);
    8238:	e0833083 	add	r3, r3, r3, lsl #1
    823c:	e283c002 	add	ip, r3, #2
    8240:	e1a0cc11 	lsl	ip, r1, ip
			mask |= 1 << (bit_num * 3) + 1;
    8244:	e2830001 	add	r0, r3, #1
    8248:	e18cc011 	orr	ip, ip, r1, lsl r0
			~mask;
			*point &= mask;
    824c:	e5924000 	ldr	r4, [r2]
			*point |= 1 << (bit_num * 3);
			break;
		default:
			break;
	}
	return 0;
    8250:	e3a00000 	mov	r0, #0
			break;
		case 1:
			mask |= 1 << ((bit_num * 3) + 2);
			mask |= 1 << (bit_num * 3) + 1;
			~mask;
			*point &= mask;
    8254:	e00cc004 	and	ip, ip, r4
    8258:	e582c000 	str	ip, [r2]
			*point |= 1 << (bit_num * 3);
    825c:	e592c000 	ldr	ip, [r2]
			break;
		default:
			break;
	}
	return 0;
} 
    8260:	e49d4004 	pop	{r4}		; (ldr r4, [sp], #4)
		case 1:
			mask |= 1 << ((bit_num * 3) + 2);
			mask |= 1 << (bit_num * 3) + 1;
			~mask;
			*point &= mask;
			*point |= 1 << (bit_num * 3);
    8264:	e18c3311 	orr	r3, ip, r1, lsl r3
    8268:	e5823000 	str	r3, [r2]
			break;
		default:
			break;
	}
	return 0;
} 
    826c:	e12fff1e 	bx	lr
	point = (unsigned long*)GET_GPFSEL_ADDR(pin);
	//point = (unsigned long*)GPFSEL1;
	switch(func)
	{
		case 0:
			mask |=  1 << (bit_num * 3);
    8270:	e0833083 	add	r3, r3, r3, lsl #1
			mask |=  1 << ((bit_num * 3) + 1) ;
    8274:	e3a00001 	mov	r0, #1
			mask |=  1 << ((bit_num * 3) + 2) ;
    8278:	e283c002 	add	ip, r3, #2
    827c:	e1a0cc10 	lsl	ip, r0, ip
	//point = (unsigned long*)GPFSEL1;
	switch(func)
	{
		case 0:
			mask |=  1 << (bit_num * 3);
			mask |=  1 << ((bit_num * 3) + 1) ;
    8280:	e0834000 	add	r4, r3, r0
    8284:	e18cc410 	orr	ip, ip, r0, lsl r4
			mask |=  1 << ((bit_num * 3) + 2) ;
    8288:	e18c3310 	orr	r3, ip, r0, lsl r3
			//^ 异或
			~mask; 				
			*point &= mask;
    828c:	e592c000 	ldr	ip, [r2]
			*point |= 1 << (bit_num * 3);
			break;
		default:
			break;
	}
	return 0;
    8290:	e1a00001 	mov	r0, r1
			mask |=  1 << (bit_num * 3);
			mask |=  1 << ((bit_num * 3) + 1) ;
			mask |=  1 << ((bit_num * 3) + 2) ;
			//^ 异或
			~mask; 				
			*point &= mask;
    8294:	e003300c 	and	r3, r3, ip
    8298:	e5823000 	str	r3, [r2]
			break;
		default:
			break;
	}
	return 0;
} 
    829c:	e49d4004 	pop	{r4}		; (ldr r4, [sp], #4)
    82a0:	e12fff1e 	bx	lr
	
	//检查
	
	if(pin > 53 || pin < 0)
	{
		return -1;
    82a4:	e3e00000 	mvn	r0, #0
    82a8:	eaffffe0 	b	8230 <GPIO_SET_GPFSEL+0x4c>
    82ac:	66666667 	.word	0x66666667
    82b0:	000129cc 	.word	0x000129cc

000082b4 <GPIO_SET_GPSET>:
	volatile unsigned long *point = 0 ;
	int bit_num = 0;
	
	//检查
	
	if(pin > 53 || pin < 0)
    82b4:	e3500035 	cmp	r0, #53	; 0x35
    82b8:	8a00000a 	bhi	82e8 <GPIO_SET_GPSET+0x34>
*	return地址
*/

unsigned long GET_GPSET_ADDR(int pin)
{
	if(pin < 29)
    82bc:	e59f102c 	ldr	r1, [pc, #44]	; 82f0 <GPIO_SET_GPSET+0x3c>
    82c0:	e59f202c 	ldr	r2, [pc, #44]	; 82f4 <GPIO_SET_GPSET+0x40>
    82c4:	e350001c 	cmp	r0, #28
	if(pin > 53 || pin < 0)
	{
		return -1;
	}
	
	bit_num = pin % 32;
    82c8:	e200301f 	and	r3, r0, #31
*	return地址
*/

unsigned long GET_GPSET_ADDR(int pin)
{
	if(pin < 29)
    82cc:	c1a00001 	movgt	r0, r1
    82d0:	d1a00002 	movle	r0, r2
	if(point == 0)
	{
		return -1;
	}
	
	*point |= (1 << bit_num);
    82d4:	e5902000 	ldr	r2, [r0]
    82d8:	e3a01001 	mov	r1, #1
    82dc:	e1823311 	orr	r3, r2, r1, lsl r3
    82e0:	e5803000 	str	r3, [r0]
    82e4:	e12fff1e 	bx	lr
    82e8:	e3e00000 	mvn	r0, #0
}
    82ec:	e12fff1e 	bx	lr
    82f0:	20200020 	.word	0x20200020
    82f4:	2020001c 	.word	0x2020001c

000082f8 <GPIO_SET_GPCLR>:
	volatile unsigned long *point = 0 ;
	int bit_num = 0;
	
	//检查
	
	if(pin > 53 || pin < 0)
    82f8:	e3500035 	cmp	r0, #53	; 0x35
    82fc:	8a00000a 	bhi	832c <GPIO_SET_GPCLR+0x34>
*   获取管脚GPCLR地址
*	return地址
*/
unsigned long GET_GPCLR_ADDR(int pin)
{
	if(pin < 29)
    8300:	e59f102c 	ldr	r1, [pc, #44]	; 8334 <GPIO_SET_GPCLR+0x3c>
    8304:	e59f202c 	ldr	r2, [pc, #44]	; 8338 <GPIO_SET_GPCLR+0x40>
    8308:	e350001c 	cmp	r0, #28
	if(pin > 53 || pin < 0)
	{
		return -1;
	}
	
	bit_num = pin % 32;
    830c:	e200301f 	and	r3, r0, #31
*   获取管脚GPCLR地址
*	return地址
*/
unsigned long GET_GPCLR_ADDR(int pin)
{
	if(pin < 29)
    8310:	c1a00001 	movgt	r0, r1
    8314:	d1a00002 	movle	r0, r2
	if(point == 0)
	{
		return -1;
	}
	
	*point |= (1 << bit_num);
    8318:	e5902000 	ldr	r2, [r0]
    831c:	e3a01001 	mov	r1, #1
    8320:	e1823311 	orr	r3, r2, r1, lsl r3
    8324:	e5803000 	str	r3, [r0]
    8328:	e12fff1e 	bx	lr
    832c:	e3e00000 	mvn	r0, #0
}
    8330:	e12fff1e 	bx	lr
    8334:	2020002c 	.word	0x2020002c
    8338:	20200028 	.word	0x20200028

0000833c <GET_GPFSEL_ADDR>:
*/

unsigned long GET_GPFSEL_ADDR(int pin)
{
	int reg_num = 0;
	reg_num = pin/10;
    833c:	e59f301c 	ldr	r3, [pc, #28]	; 8360 <GET_GPFSEL_ADDR+0x24>
    8340:	e0c32093 	smull	r2, r3, r3, r0
    8344:	e1a00fc0 	asr	r0, r0, #31
    8348:	e0600143 	rsb	r0, r0, r3, asr #2
    834c:	e3500005 	cmp	r0, #5
    8350:	959f300c 	ldrls	r3, [pc, #12]	; 8364 <GET_GPFSEL_ADDR+0x28>
    8354:	97930100 	ldrls	r0, [r3, r0, lsl #2]
    8358:	83a00000 	movhi	r0, #0
			break;
		default:
			return 0;
			break;
	}
}
    835c:	e12fff1e 	bx	lr
    8360:	66666667 	.word	0x66666667
    8364:	000129cc 	.word	0x000129cc

00008368 <GET_GPSET_ADDR>:

unsigned long GET_GPSET_ADDR(int pin)
{
	if(pin < 29)
	{
		return GPSET0;
    8368:	e59f2010 	ldr	r2, [pc, #16]	; 8380 <GET_GPSET_ADDR+0x18>
    836c:	e59f3010 	ldr	r3, [pc, #16]	; 8384 <GET_GPSET_ADDR+0x1c>
	else 
	{
		return GPSET1;
	}
	return 0;
}
    8370:	e350001c 	cmp	r0, #28
    8374:	c1a00002 	movgt	r0, r2
    8378:	d1a00003 	movle	r0, r3
    837c:	e12fff1e 	bx	lr
    8380:	20200020 	.word	0x20200020
    8384:	2020001c 	.word	0x2020001c

00008388 <GET_GPCLR_ADDR>:
*/
unsigned long GET_GPCLR_ADDR(int pin)
{
	if(pin < 29)
	{
		return GPCLR0;
    8388:	e59f2010 	ldr	r2, [pc, #16]	; 83a0 <GET_GPCLR_ADDR+0x18>
    838c:	e59f3010 	ldr	r3, [pc, #16]	; 83a4 <GET_GPCLR_ADDR+0x1c>
	else 
	{
		return GPCLR1;
	}
	return 0;
}
    8390:	e350001c 	cmp	r0, #28
    8394:	c1a00002 	movgt	r0, r2
    8398:	d1a00003 	movle	r0, r3
    839c:	e12fff1e 	bx	lr
    83a0:	2020002c 	.word	0x2020002c
    83a4:	20200028 	.word	0x20200028

000083a8 <GPU_SendMail>:
{
	volatile unsigned int *Status = (unsigned int *)GPU_Status;
	volatile unsigned int *Write = (unsigned int *) GPU_Write;
	
	/*参数检查*/
	if((GPU_MSG & 0xF) != 0)
    83a8:	e310000f 	tst	r0, #15
    83ac:	1a00000a 	bne	83dc <GPU_SendMail+0x34>
	{
		return -1;
	}

	if((channel > 15) || (channel < 0))
    83b0:	e351000f 	cmp	r1, #15
    83b4:	8a000008 	bhi	83dc <GPU_SendMail+0x34>
	{
		return -1;
	}

	/*循环等待状态寄存器的最高为为0.则可以发送消息*/
	while((*Status & 0x80000000) != 0);
    83b8:	e59fc024 	ldr	ip, [pc, #36]	; 83e4 <GPU_SendMail+0x3c>
    83bc:	e59c3898 	ldr	r3, [ip, #2200]	; 0x898
    83c0:	e59f201c 	ldr	r2, [pc, #28]	; 83e4 <GPU_SendMail+0x3c>
    83c4:	e3530000 	cmp	r3, #0
    83c8:	bafffffb 	blt	83bc <GPU_SendMail+0x14>

	/*按照格式发送消息到GPU*/
	GPU_MSG = GPU_MSG + channel;  /* 2014年12月28日14:52:38  把 + 错误的写成了 & 。这个错误找了一天 */
    83cc:	e0800001 	add	r0, r0, r1
	*Write = GPU_MSG;
    83d0:	e58208a0 	str	r0, [r2, #2208]	; 0x8a0
	
	return 0;
    83d4:	e3a00000 	mov	r0, #0
    83d8:	e12fff1e 	bx	lr
	volatile unsigned int *Write = (unsigned int *) GPU_Write;
	
	/*参数检查*/
	if((GPU_MSG & 0xF) != 0)
	{
		return -1;
    83dc:	e3e00000 	mvn	r0, #0
	/*按照格式发送消息到GPU*/
	GPU_MSG = GPU_MSG + channel;  /* 2014年12月28日14:52:38  把 + 错误的写成了 & 。这个错误找了一天 */
	*Write = GPU_MSG;
	
	return 0;
}
    83e0:	e12fff1e 	bx	lr
    83e4:	2000b000 	.word	0x2000b000

000083e8 <GPU_RecMail>:

unsigned int GPU_RecMail(unsigned int channel)
{
	volatile unsigned int *Status = (unsigned int *)GPU_Status;
	volatile unsigned int *Read = (unsigned int *) GPU_Read;
	volatile unsigned int GPU_MSG = 0;
    83e8:	e3a03000 	mov	r3, #0
*   	接收所给邮箱的邮件
*	return 返回FrameBufferInfo地址
*/

unsigned int GPU_RecMail(unsigned int channel)
{
    83ec:	e24dd008 	sub	sp, sp, #8
	volatile unsigned int *Status = (unsigned int *)GPU_Status;
	volatile unsigned int *Read = (unsigned int *) GPU_Read;
	volatile unsigned int GPU_MSG = 0;
	
	/*参数检查*/
	if((channel > 15) || (channel < 0))
    83f0:	e350000f 	cmp	r0, #15

unsigned int GPU_RecMail(unsigned int channel)
{
	volatile unsigned int *Status = (unsigned int *)GPU_Status;
	volatile unsigned int *Read = (unsigned int *) GPU_Read;
	volatile unsigned int GPU_MSG = 0;
    83f4:	e58d3004 	str	r3, [sp, #4]
	
	/*参数检查*/
	if((channel > 15) || (channel < 0))
	{
		return 0;
    83f8:	81a00003 	movhi	r0, r3
	volatile unsigned int *Status = (unsigned int *)GPU_Status;
	volatile unsigned int *Read = (unsigned int *) GPU_Read;
	volatile unsigned int GPU_MSG = 0;
	
	/*参数检查*/
	if((channel > 15) || (channel < 0))
    83fc:	8a000011 	bhi	8448 <GPU_RecMail+0x60>
	{
		return 0;
	}
	do{
		/*循环等待状态寄存器30bit为0.则可以接收消息*/
		while((*Status & 0x40000000) != 0);
    8400:	e59f1048 	ldr	r1, [pc, #72]	; 8450 <GPU_RecMail+0x68>
    8404:	e5913898 	ldr	r3, [r1, #2200]	; 0x898
    8408:	e59f2040 	ldr	r2, [pc, #64]	; 8450 <GPU_RecMail+0x68>
    840c:	e3130101 	tst	r3, #1073741824	; 0x40000000
    8410:	1afffffb 	bne	8404 <GPU_RecMail+0x1c>
		
		GPU_MSG = *Read;
    8414:	e5923880 	ldr	r3, [r2, #2176]	; 0x880
    8418:	e58d3004 	str	r3, [sp, #4]
		/*通过channel判断是否是所需的消息*/
		if((GPU_MSG & 0xF) == channel)
    841c:	e59d3004 	ldr	r3, [sp, #4]
    8420:	e203300f 	and	r3, r3, #15
    8424:	e1530000 	cmp	r3, r0
    8428:	1afffff5 	bne	8404 <GPU_RecMail+0x1c>
		{
			/*GPU_MSG = 0 表示成功发送消息，否则失败*/
			GPU_MSG = (GPU_MSG & 0xFFFFFFF0);
    842c:	e59d3004 	ldr	r3, [sp, #4]
    8430:	e3c3300f 	bic	r3, r3, #15
    8434:	e58d3004 	str	r3, [sp, #4]
			if(GPU_MSG == 0)
    8438:	e59d3004 	ldr	r3, [sp, #4]
    843c:	e3530000 	cmp	r3, #0
    8440:	1affffef 	bne	8404 <GPU_RecMail+0x1c>
			{
				return (unsigned int)&FrameBufferInfo;				
    8444:	e59f0008 	ldr	r0, [pc, #8]	; 8454 <GPU_RecMail+0x6c>
			}
		}
	}while(1);
}
    8448:	e28dd008 	add	sp, sp, #8
    844c:	e12fff1e 	bx	lr
    8450:	2000b000 	.word	0x2000b000
    8454:	00015000 	.word	0x00015000

00008458 <init_GPU>:
#include "gpio.h"
#include "GPU.h"
#include "Global.h"

unsigned int init_GPU(unsigned int width, unsigned int height, unsigned int bitDepth)
{
    8458:	e52de004 	push	{lr}		; (str lr, [sp, #-4]!)
	volatile unsigned int GPU_MSG = 0;
	
	/*参数检查*/
	if(width > 4096 || height > 4096 || bitDepth > 32)
    845c:	e3510a01 	cmp	r1, #4096	; 0x1000
    8460:	93500a01 	cmpls	r0, #4096	; 0x1000
#include "GPU.h"
#include "Global.h"

unsigned int init_GPU(unsigned int width, unsigned int height, unsigned int bitDepth)
{
	volatile unsigned int GPU_MSG = 0;
    8464:	e3a03000 	mov	r3, #0
#include "gpio.h"
#include "GPU.h"
#include "Global.h"

unsigned int init_GPU(unsigned int width, unsigned int height, unsigned int bitDepth)
{
    8468:	e24dd00c 	sub	sp, sp, #12
	volatile unsigned int GPU_MSG = 0;
	
	/*参数检查*/
	if(width > 4096 || height > 4096 || bitDepth > 32)
    846c:	93a0c000 	movls	ip, #0
    8470:	83a0c001 	movhi	ip, #1
#include "GPU.h"
#include "Global.h"

unsigned int init_GPU(unsigned int width, unsigned int height, unsigned int bitDepth)
{
	volatile unsigned int GPU_MSG = 0;
    8474:	e58d3004 	str	r3, [sp, #4]
	
	/*参数检查*/
	if(width > 4096 || height > 4096 || bitDepth > 32)
	{
		return 0;
    8478:	81a00003 	movhi	r0, r3
unsigned int init_GPU(unsigned int width, unsigned int height, unsigned int bitDepth)
{
	volatile unsigned int GPU_MSG = 0;
	
	/*参数检查*/
	if(width > 4096 || height > 4096 || bitDepth > 32)
    847c:	8a000016 	bhi	84dc <init_GPU+0x84>
    8480:	e3520020 	cmp	r2, #32
	{
		return 0;
    8484:	81a0000c 	movhi	r0, ip
unsigned int init_GPU(unsigned int width, unsigned int height, unsigned int bitDepth)
{
	volatile unsigned int GPU_MSG = 0;
	
	/*参数检查*/
	if(width > 4096 || height > 4096 || bitDepth > 32)
    8488:	8a000013 	bhi	84dc <init_GPU+0x84>
	{
		return 0;
	}
	struct FrameBufferInfoS *bufInfo = (struct FrameBufferInfoS *) &FrameBufferInfo;

	bufInfo->phyWidth = width;
    848c:	e59f3050 	ldr	r3, [pc, #80]	; 84e4 <init_GPU+0x8c>
	bufInfo->virWidth = width;
	bufInfo->virHeight = height;
	bufInfo->bitDepth = bitDepth;
	
	/*禁用cache，读取内存值，防止产生误差。0x40000000 */
	GPU_MSG = (unsigned int) bufInfo + 0x40000000; 
    8490:	e283c101 	add	ip, r3, #1073741824	; 0x40000000
    8494:	e58dc004 	str	ip, [sp, #4]
	GPU_SendMail(GPU_MSG, 1);
    8498:	e59dc004 	ldr	ip, [sp, #4]
	{
		return 0;
	}
	struct FrameBufferInfoS *bufInfo = (struct FrameBufferInfoS *) &FrameBufferInfo;

	bufInfo->phyWidth = width;
    849c:	e5830000 	str	r0, [r3]
{
	volatile unsigned int *Status = (unsigned int *)GPU_Status;
	volatile unsigned int *Write = (unsigned int *) GPU_Write;
	
	/*参数检查*/
	if((GPU_MSG & 0xF) != 0)
    84a0:	e31c000f 	tst	ip, #15
		return 0;
	}
	struct FrameBufferInfoS *bufInfo = (struct FrameBufferInfoS *) &FrameBufferInfo;

	bufInfo->phyWidth = width;
	bufInfo->phyHeight = height;
    84a4:	e5831004 	str	r1, [r3, #4]
	bufInfo->virWidth = width;
    84a8:	e5830008 	str	r0, [r3, #8]
	bufInfo->virHeight = height;
    84ac:	e583100c 	str	r1, [r3, #12]
	bufInfo->bitDepth = bitDepth;
    84b0:	e5832014 	str	r2, [r3, #20]
{
	volatile unsigned int *Status = (unsigned int *)GPU_Status;
	volatile unsigned int *Write = (unsigned int *) GPU_Write;
	
	/*参数检查*/
	if((GPU_MSG & 0xF) != 0)
    84b4:	1a000006 	bne	84d4 <init_GPU+0x7c>
	{
		return -1;
	}

	/*循环等待状态寄存器的最高为为0.则可以发送消息*/
	while((*Status & 0x80000000) != 0);
    84b8:	e59f1028 	ldr	r1, [pc, #40]	; 84e8 <init_GPU+0x90>
    84bc:	e5913898 	ldr	r3, [r1, #2200]	; 0x898
    84c0:	e59f2020 	ldr	r2, [pc, #32]	; 84e8 <init_GPU+0x90>
    84c4:	e3530000 	cmp	r3, #0
    84c8:	bafffffb 	blt	84bc <init_GPU+0x64>

	/*按照格式发送消息到GPU*/
	GPU_MSG = GPU_MSG + channel;  /* 2014年12月28日14:52:38  把 + 错误的写成了 & 。这个错误找了一天 */
    84cc:	e28cc001 	add	ip, ip, #1
	*Write = GPU_MSG;
    84d0:	e582c8a0 	str	ip, [r2, #2208]	; 0x8a0
	bufInfo->bitDepth = bitDepth;
	
	/*禁用cache，读取内存值，防止产生误差。0x40000000 */
	GPU_MSG = (unsigned int) bufInfo + 0x40000000; 
	GPU_SendMail(GPU_MSG, 1);
	return GPU_RecMail(1);
    84d4:	e3a00001 	mov	r0, #1
    84d8:	ebffffc2 	bl	83e8 <GPU_RecMail>
}
    84dc:	e28dd00c 	add	sp, sp, #12
    84e0:	e49df004 	pop	{pc}		; (ldr pc, [sp], #4)
    84e4:	00015000 	.word	0x00015000
    84e8:	2000b000 	.word	0x2000b000

000084ec <DrawDot>:
*   	画点
*	return void 超出显示范围退出	
*/

void DrawDot(RGB_24Bit color, int top, int left)
{
    84ec:	e92d0030 	push	{r4, r5}
	/*检查*/
	if(top > (((struct FrameBufferInfoS *)GpuInfoAddr)->phyHeight) || top < 0)
    84f0:	e59fc094 	ldr	ip, [pc, #148]	; 858c <DrawDot+0xa0>
*   	画点
*	return void 超出显示范围退出	
*/

void DrawDot(RGB_24Bit color, int top, int left)
{
    84f4:	e24dd008 	sub	sp, sp, #8
	/*检查*/
	if(top > (((struct FrameBufferInfoS *)GpuInfoAddr)->phyHeight) || top < 0)
    84f8:	e59c3000 	ldr	r3, [ip]
*   	画点
*	return void 超出显示范围退出	
*/

void DrawDot(RGB_24Bit color, int top, int left)
{
    84fc:	e58d0004 	str	r0, [sp, #4]
	/*检查*/
	if(top > (((struct FrameBufferInfoS *)GpuInfoAddr)->phyHeight) || top < 0)
    8500:	e5930004 	ldr	r0, [r3, #4]
    8504:	e1510000 	cmp	r1, r0
    8508:	8a00001c 	bhi	8580 <DrawDot+0x94>
    850c:	e3510000 	cmp	r1, #0
    8510:	ba00001a 	blt	8580 <DrawDot+0x94>
	{
		return;
	}

	if(left > (((struct FrameBufferInfoS *)GpuInfoAddr)->phyWidth) || left < 0)
    8514:	e5933000 	ldr	r3, [r3]
    8518:	e1520003 	cmp	r2, r3
    851c:	8a000017 	bhi	8580 <DrawDot+0x94>
    8520:	e3520000 	cmp	r2, #0
    8524:	ba000015 	blt	8580 <DrawDot+0x94>
	{
		return;
	}
	
	*(volatile unsigned char *)((unsigned int)GpuBufAddr + (((((struct FrameBufferInfoS *)GpuInfoAddr)->phyWidth) * top + left) * 3 ))= color.R;
    8528:	e0232193 	mla	r3, r3, r1, r2
    852c:	e59f005c 	ldr	r0, [pc, #92]	; 8590 <DrawDot+0xa4>
    8530:	e5dd5004 	ldrb	r5, [sp, #4]
    8534:	e5904000 	ldr	r4, [r0]
    8538:	e0833083 	add	r3, r3, r3, lsl #1
    853c:	e7c45003 	strb	r5, [r4, r3]
	*(volatile unsigned char *)((unsigned int)GpuBufAddr + (((((struct FrameBufferInfoS *)GpuInfoAddr)->phyWidth) * top + left) * 3 + 1))= color.G;	
    8540:	e59c3000 	ldr	r3, [ip]
    8544:	e5904000 	ldr	r4, [r0]
    8548:	e5933000 	ldr	r3, [r3]
    854c:	e5dd5005 	ldrb	r5, [sp, #5]
    8550:	e0232193 	mla	r3, r3, r1, r2
    8554:	e2844001 	add	r4, r4, #1
    8558:	e0833083 	add	r3, r3, r3, lsl #1
    855c:	e7c45003 	strb	r5, [r4, r3]
	*(volatile unsigned char *)((unsigned int)GpuBufAddr + (((((struct FrameBufferInfoS *)GpuInfoAddr)->phyWidth)* top + left) * 3 + 2))= color.B;	
    8560:	e59cc000 	ldr	ip, [ip]
    8564:	e5903000 	ldr	r3, [r0]
    8568:	e59cc000 	ldr	ip, [ip]
    856c:	e5dd0006 	ldrb	r0, [sp, #6]
    8570:	e021219c 	mla	r1, ip, r1, r2
    8574:	e2833002 	add	r3, r3, #2
    8578:	e0811081 	add	r1, r1, r1, lsl #1
    857c:	e7c30001 	strb	r0, [r3, r1]
}
    8580:	e28dd008 	add	sp, sp, #8
    8584:	e8bd0030 	pop	{r4, r5}
    8588:	e12fff1e 	bx	lr
    858c:	000161ac 	.word	0x000161ac
    8590:	000161a8 	.word	0x000161a8

00008594 <DrawLine>:

int DrawLine(RGB_24Bit color, int x1, int y1, int x2, int y2)
{
    8594:	e24dd008 	sub	sp, sp, #8
	
}
    8598:	e28dd008 	add	sp, sp, #8
    859c:	e12fff1e 	bx	lr

000085a0 <DrawBlock>:
*	void DrawBlock(RGB_24Bit color, int top, int left, unsigned int width, unsigned int height)
*   	填充
*	return void 超出显示范围退出	
*/
void DrawBlock(RGB_24Bit color, int top, int left, unsigned int width, unsigned int height)
{
    85a0:	e92d43f0 	push	{r4, r5, r6, r7, r8, r9, lr}
    85a4:	e24dd00c 	sub	sp, sp, #12
    85a8:	e59d8028 	ldr	r8, [sp, #40]	; 0x28
    85ac:	e58d0004 	str	r0, [sp, #4]
	int top_t,left_t;
	for(top_t=0; top_t < height; top_t++)
    85b0:	e3580000 	cmp	r8, #0
*	void DrawBlock(RGB_24Bit color, int top, int left, unsigned int width, unsigned int height)
*   	填充
*	return void 超出显示范围退出	
*/
void DrawBlock(RGB_24Bit color, int top, int left, unsigned int width, unsigned int height)
{
    85b4:	e1a09002 	mov	r9, r2
    85b8:	e1a07003 	mov	r7, r3
	int top_t,left_t;
	for(top_t=0; top_t < height; top_t++)
    85bc:	0a00000f 	beq	8600 <DrawBlock+0x60>
    85c0:	e1a05001 	mov	r5, r1
    85c4:	e0888001 	add	r8, r8, r1
    85c8:	e0836002 	add	r6, r3, r2
	{
		for(left_t=0; left_t < width; left_t++)
    85cc:	e3570000 	cmp	r7, #0
    85d0:	0a000007 	beq	85f4 <DrawBlock+0x54>
    85d4:	e1a04009 	mov	r4, r9
		{
			DrawDot(color, top+top_t, left+left_t);
    85d8:	e1a02004 	mov	r2, r4
    85dc:	e59d0004 	ldr	r0, [sp, #4]
    85e0:	e1a01005 	mov	r1, r5
    85e4:	e2844001 	add	r4, r4, #1
    85e8:	ebffffbf 	bl	84ec <DrawDot>
void DrawBlock(RGB_24Bit color, int top, int left, unsigned int width, unsigned int height)
{
	int top_t,left_t;
	for(top_t=0; top_t < height; top_t++)
	{
		for(left_t=0; left_t < width; left_t++)
    85ec:	e1540006 	cmp	r4, r6
    85f0:	1afffff8 	bne	85d8 <DrawBlock+0x38>
    85f4:	e2855001 	add	r5, r5, #1
*	return void 超出显示范围退出	
*/
void DrawBlock(RGB_24Bit color, int top, int left, unsigned int width, unsigned int height)
{
	int top_t,left_t;
	for(top_t=0; top_t < height; top_t++)
    85f8:	e1550008 	cmp	r5, r8
    85fc:	1afffff2 	bne	85cc <DrawBlock+0x2c>
		for(left_t=0; left_t < width; left_t++)
		{
			DrawDot(color, top+top_t, left+left_t);
		}
	}
}
    8600:	e28dd00c 	add	sp, sp, #12
    8604:	e8bd83f0 	pop	{r4, r5, r6, r7, r8, r9, pc}

00008608 <init_screen>:
*   	初始化桌面，显示任务栏等基本信息
*	return 0 成功  -1 失败	
*/

int init_screen(unsigned int width, unsigned int height, unsigned int bitDepth)
{
    8608:	e52de004 	push	{lr}		; (str lr, [sp, #-4]!)
    860c:	e24dd014 	sub	sp, sp, #20
	
	RGB_24Bit color;
	int top,left;
	
	GpuInfoAddr = init_GPU(width, height, bitDepth);
    8610:	ebffff90 	bl	8458 <init_GPU>
    8614:	e59f3058 	ldr	r3, [pc, #88]	; 8674 <init_screen+0x6c>

	if(GpuInfoAddr == 0)
    8618:	e3500000 	cmp	r0, #0
{
	
	RGB_24Bit color;
	int top,left;
	
	GpuInfoAddr = init_GPU(width, height, bitDepth);
    861c:	e5830000 	str	r0, [r3]

	if(GpuInfoAddr == 0)
	{
		return -1; /*初始化GPU发生错误*/
    8620:	03e00000 	mvneq	r0, #0
	RGB_24Bit color;
	int top,left;
	
	GpuInfoAddr = init_GPU(width, height, bitDepth);

	if(GpuInfoAddr == 0)
    8624:	1a000001 	bne	8630 <init_screen+0x28>

	color.R = 0x28;
	color.G = 0x82;
	color.B = 0xE6;
	DrawBlock(color, 0, 0, (((struct FrameBufferInfoS *)GpuInfoAddr)->phyWidth), (((struct FrameBufferInfoS *)GpuInfoAddr)->phyWidth));
}
    8628:	e28dd014 	add	sp, sp, #20
    862c:	e49df004 	pop	{pc}		; (ldr pc, [sp], #4)
		return -1; /*初始化GPU发生错误*/
	}

	GpuBufAddr =  (volatile unsigned char *)(*(unsigned int *)(GpuInfoAddr + 32));

	color.R = 0x28;
    8630:	e3a0c028 	mov	ip, #40	; 0x28
	color.G = 0x82;
	color.B = 0xE6;
	DrawBlock(color, 0, 0, (((struct FrameBufferInfoS *)GpuInfoAddr)->phyWidth), (((struct FrameBufferInfoS *)GpuInfoAddr)->phyWidth));
    8634:	e5903000 	ldr	r3, [r0]
	if(GpuInfoAddr == 0)
	{
		return -1; /*初始化GPU发生错误*/
	}

	GpuBufAddr =  (volatile unsigned char *)(*(unsigned int *)(GpuInfoAddr + 32));
    8638:	e590e020 	ldr	lr, [r0, #32]

	color.R = 0x28;
    863c:	e5cdc00c 	strb	ip, [sp, #12]
	color.G = 0x82;
    8640:	e3e0107d 	mvn	r1, #125	; 0x7d
	if(GpuInfoAddr == 0)
	{
		return -1; /*初始化GPU发生错误*/
	}

	GpuBufAddr =  (volatile unsigned char *)(*(unsigned int *)(GpuInfoAddr + 32));
    8644:	e59fc02c 	ldr	ip, [pc, #44]	; 8678 <init_screen+0x70>

	color.R = 0x28;
	color.G = 0x82;
	color.B = 0xE6;
    8648:	e3e02019 	mvn	r2, #25
	}

	GpuBufAddr =  (volatile unsigned char *)(*(unsigned int *)(GpuInfoAddr + 32));

	color.R = 0x28;
	color.G = 0x82;
    864c:	e5cd100d 	strb	r1, [sp, #13]
	color.B = 0xE6;
    8650:	e5cd200e 	strb	r2, [sp, #14]
	DrawBlock(color, 0, 0, (((struct FrameBufferInfoS *)GpuInfoAddr)->phyWidth), (((struct FrameBufferInfoS *)GpuInfoAddr)->phyWidth));
    8654:	e3a01000 	mov	r1, #0
    8658:	e59d000c 	ldr	r0, [sp, #12]
    865c:	e58d3000 	str	r3, [sp]
    8660:	e1a02001 	mov	r2, r1
	if(GpuInfoAddr == 0)
	{
		return -1; /*初始化GPU发生错误*/
	}

	GpuBufAddr =  (volatile unsigned char *)(*(unsigned int *)(GpuInfoAddr + 32));
    8664:	e58ce000 	str	lr, [ip]

	color.R = 0x28;
	color.G = 0x82;
	color.B = 0xE6;
	DrawBlock(color, 0, 0, (((struct FrameBufferInfoS *)GpuInfoAddr)->phyWidth), (((struct FrameBufferInfoS *)GpuInfoAddr)->phyWidth));
    8668:	ebffffcc 	bl	85a0 <DrawBlock>
}
    866c:	e28dd014 	add	sp, sp, #20
    8670:	e49df004 	pop	{pc}		; (ldr pc, [sp], #4)
    8674:	000161ac 	.word	0x000161ac
    8678:	000161a8 	.word	0x000161a8

0000867c <DrawBlockByMemory>:
}

int DrawBlockByMemory()
{
	
}
    867c:	e12fff1e 	bx	lr

00008680 <drawCharacter>:
*	void drawCharacter(unsigned char ASC2, RGB_24Bit color, int *top, int *left)
*   	显示字体
*	return void 	
*/
void drawCharacter(unsigned char ASC2, RGB_24Bit color, int *top, int *left)
{
    8680:	e92d41f0 	push	{r4, r5, r6, r7, r8, lr}
	int row;
	char data;
	unsigned char *ASC2_addr;
	/*检查*/
	if( ASC2 > 128 )
    8684:	e3500080 	cmp	r0, #128	; 0x80
*	void drawCharacter(unsigned char ASC2, RGB_24Bit color, int *top, int *left)
*   	显示字体
*	return void 	
*/
void drawCharacter(unsigned char ASC2, RGB_24Bit color, int *top, int *left)
{
    8688:	e24dd008 	sub	sp, sp, #8
    868c:	e58d1004 	str	r1, [sp, #4]
    8690:	e1a07002 	mov	r7, r2
    8694:	e1a06003 	mov	r6, r3
	int row;
	char data;
	unsigned char *ASC2_addr;
	/*检查*/
	if( ASC2 > 128 )
    8698:	8a000052 	bhi	87e8 <drawCharacter+0x168>
	{
		return;
	}
	
	/*计算参数字符字体所在的首地址*/
	ASC2_addr = (unsigned char *)((unsigned int)font + (ASC2 * 16));
    869c:	e59f8168 	ldr	r8, [pc, #360]	; 880c <drawCharacter+0x18c>
	for (row = 0; row < 16; row++)
    86a0:	e3a05000 	mov	r5, #0
	{
		return;
	}
	
	/*计算参数字符字体所在的首地址*/
	ASC2_addr = (unsigned char *)((unsigned int)font + (ASC2 * 16));
    86a4:	e0888200 	add	r8, r8, r0, lsl #4
    86a8:	ea00000e 	b	86e8 <drawCharacter+0x68>
	for (row = 0; row < 16; row++)
	{
		data = ASC2_addr[row];
		if ((data & 0x80) != 0) DrawDot(color, *top+row, *left + 7);
		if ((data & 0x40) != 0) DrawDot(color, *top+row, *left + 6);
		if ((data & 0x20) != 0) DrawDot(color, *top+row, *left + 5);
    86ac:	e3140020 	tst	r4, #32
    86b0:	1a000019 	bne	871c <drawCharacter+0x9c>
		if ((data & 0x10) != 0) DrawDot(color, *top+row, *left + 4);
    86b4:	e3140010 	tst	r4, #16
    86b8:	1a00001f 	bne	873c <drawCharacter+0xbc>
		if ((data & 0x08) != 0) DrawDot(color, *top+row, *left + 3);
    86bc:	e3140008 	tst	r4, #8
    86c0:	1a000025 	bne	875c <drawCharacter+0xdc>
		if ((data & 0x04) != 0) DrawDot(color, *top+row, *left + 2);
    86c4:	e3140004 	tst	r4, #4
    86c8:	1a00002b 	bne	877c <drawCharacter+0xfc>
		if ((data & 0x02) != 0) DrawDot(color, *top+row, *left + 1);
    86cc:	e3140002 	tst	r4, #2
    86d0:	1a000031 	bne	879c <drawCharacter+0x11c>
		if ((data & 0x01) != 0) DrawDot(color, *top+row, *left + 0);
    86d4:	e3140001 	tst	r4, #1
    86d8:	1a000037 	bne	87bc <drawCharacter+0x13c>
		return;
	}
	
	/*计算参数字符字体所在的首地址*/
	ASC2_addr = (unsigned char *)((unsigned int)font + (ASC2 * 16));
	for (row = 0; row < 16; row++)
    86dc:	e2855001 	add	r5, r5, #1
    86e0:	e3550010 	cmp	r5, #16
    86e4:	0a00003c 	beq	87dc <drawCharacter+0x15c>
	{
		data = ASC2_addr[row];
    86e8:	e7d54008 	ldrb	r4, [r5, r8]
		if ((data & 0x80) != 0) DrawDot(color, *top+row, *left + 7);
    86ec:	e3140080 	tst	r4, #128	; 0x80
    86f0:	1a00003e 	bne	87f0 <drawCharacter+0x170>
		if ((data & 0x40) != 0) DrawDot(color, *top+row, *left + 6);
    86f4:	e3140040 	tst	r4, #64	; 0x40
    86f8:	0affffeb 	beq	86ac <drawCharacter+0x2c>
    86fc:	e5971000 	ldr	r1, [r7]
    8700:	e5962000 	ldr	r2, [r6]
    8704:	e0851001 	add	r1, r5, r1
    8708:	e2822006 	add	r2, r2, #6
    870c:	e59d0004 	ldr	r0, [sp, #4]
    8710:	ebffff75 	bl	84ec <DrawDot>
		if ((data & 0x20) != 0) DrawDot(color, *top+row, *left + 5);
    8714:	e3140020 	tst	r4, #32
    8718:	0affffe5 	beq	86b4 <drawCharacter+0x34>
    871c:	e5971000 	ldr	r1, [r7]
    8720:	e5962000 	ldr	r2, [r6]
    8724:	e0851001 	add	r1, r5, r1
    8728:	e2822005 	add	r2, r2, #5
    872c:	e59d0004 	ldr	r0, [sp, #4]
    8730:	ebffff6d 	bl	84ec <DrawDot>
		if ((data & 0x10) != 0) DrawDot(color, *top+row, *left + 4);
    8734:	e3140010 	tst	r4, #16
    8738:	0affffdf 	beq	86bc <drawCharacter+0x3c>
    873c:	e5971000 	ldr	r1, [r7]
    8740:	e5962000 	ldr	r2, [r6]
    8744:	e0851001 	add	r1, r5, r1
    8748:	e2822004 	add	r2, r2, #4
    874c:	e59d0004 	ldr	r0, [sp, #4]
    8750:	ebffff65 	bl	84ec <DrawDot>
		if ((data & 0x08) != 0) DrawDot(color, *top+row, *left + 3);
    8754:	e3140008 	tst	r4, #8
    8758:	0affffd9 	beq	86c4 <drawCharacter+0x44>
    875c:	e5971000 	ldr	r1, [r7]
    8760:	e5962000 	ldr	r2, [r6]
    8764:	e0851001 	add	r1, r5, r1
    8768:	e2822003 	add	r2, r2, #3
    876c:	e59d0004 	ldr	r0, [sp, #4]
    8770:	ebffff5d 	bl	84ec <DrawDot>
		if ((data & 0x04) != 0) DrawDot(color, *top+row, *left + 2);
    8774:	e3140004 	tst	r4, #4
    8778:	0affffd3 	beq	86cc <drawCharacter+0x4c>
    877c:	e5971000 	ldr	r1, [r7]
    8780:	e5962000 	ldr	r2, [r6]
    8784:	e0851001 	add	r1, r5, r1
    8788:	e2822002 	add	r2, r2, #2
    878c:	e59d0004 	ldr	r0, [sp, #4]
    8790:	ebffff55 	bl	84ec <DrawDot>
		if ((data & 0x02) != 0) DrawDot(color, *top+row, *left + 1);
    8794:	e3140002 	tst	r4, #2
    8798:	0affffcd 	beq	86d4 <drawCharacter+0x54>
    879c:	e5971000 	ldr	r1, [r7]
    87a0:	e5962000 	ldr	r2, [r6]
    87a4:	e0851001 	add	r1, r5, r1
    87a8:	e2822001 	add	r2, r2, #1
    87ac:	e59d0004 	ldr	r0, [sp, #4]
    87b0:	ebffff4d 	bl	84ec <DrawDot>
		if ((data & 0x01) != 0) DrawDot(color, *top+row, *left + 0);
    87b4:	e3140001 	tst	r4, #1
    87b8:	0affffc7 	beq	86dc <drawCharacter+0x5c>
    87bc:	e5971000 	ldr	r1, [r7]
    87c0:	e59d0004 	ldr	r0, [sp, #4]
    87c4:	e0851001 	add	r1, r5, r1
    87c8:	e5962000 	ldr	r2, [r6]
		return;
	}
	
	/*计算参数字符字体所在的首地址*/
	ASC2_addr = (unsigned char *)((unsigned int)font + (ASC2 * 16));
	for (row = 0; row < 16; row++)
    87cc:	e2855001 	add	r5, r5, #1
		if ((data & 0x20) != 0) DrawDot(color, *top+row, *left + 5);
		if ((data & 0x10) != 0) DrawDot(color, *top+row, *left + 4);
		if ((data & 0x08) != 0) DrawDot(color, *top+row, *left + 3);
		if ((data & 0x04) != 0) DrawDot(color, *top+row, *left + 2);
		if ((data & 0x02) != 0) DrawDot(color, *top+row, *left + 1);
		if ((data & 0x01) != 0) DrawDot(color, *top+row, *left + 0);
    87d0:	ebffff45 	bl	84ec <DrawDot>
		return;
	}
	
	/*计算参数字符字体所在的首地址*/
	ASC2_addr = (unsigned char *)((unsigned int)font + (ASC2 * 16));
	for (row = 0; row < 16; row++)
    87d4:	e3550010 	cmp	r5, #16
    87d8:	1affffc2 	bne	86e8 <drawCharacter+0x68>
		if ((data & 0x08) != 0) DrawDot(color, *top+row, *left + 3);
		if ((data & 0x04) != 0) DrawDot(color, *top+row, *left + 2);
		if ((data & 0x02) != 0) DrawDot(color, *top+row, *left + 1);
		if ((data & 0x01) != 0) DrawDot(color, *top+row, *left + 0);
	}
	*left += 8;
    87dc:	e5963000 	ldr	r3, [r6]
    87e0:	e2833008 	add	r3, r3, #8
    87e4:	e5863000 	str	r3, [r6]
}
    87e8:	e28dd008 	add	sp, sp, #8
    87ec:	e8bd81f0 	pop	{r4, r5, r6, r7, r8, pc}
	/*计算参数字符字体所在的首地址*/
	ASC2_addr = (unsigned char *)((unsigned int)font + (ASC2 * 16));
	for (row = 0; row < 16; row++)
	{
		data = ASC2_addr[row];
		if ((data & 0x80) != 0) DrawDot(color, *top+row, *left + 7);
    87f0:	e5971000 	ldr	r1, [r7]
    87f4:	e5962000 	ldr	r2, [r6]
    87f8:	e0851001 	add	r1, r5, r1
    87fc:	e2822007 	add	r2, r2, #7
    8800:	e59d0004 	ldr	r0, [sp, #4]
    8804:	ebffff38 	bl	84ec <DrawDot>
    8808:	eaffffb9 	b	86f4 <drawCharacter+0x74>
    880c:	00008e90 	.word	0x00008e90

00008810 <drawString>:
*	void drawString(char *string, RGB_24Bit color, int *top, int *left)
*   	显示字符串
*	return void 	
*/
void drawString(char *string, RGB_24Bit color, int *top, int *left)
{
    8810:	e92d4070 	push	{r4, r5, r6, lr}
    8814:	e1a04000 	mov	r4, r0
	while(*string != 0)
    8818:	e5d00000 	ldrb	r0, [r0]
*	void drawString(char *string, RGB_24Bit color, int *top, int *left)
*   	显示字符串
*	return void 	
*/
void drawString(char *string, RGB_24Bit color, int *top, int *left)
{
    881c:	e24dd008 	sub	sp, sp, #8
	while(*string != 0)
    8820:	e3500000 	cmp	r0, #0
*	void drawString(char *string, RGB_24Bit color, int *top, int *left)
*   	显示字符串
*	return void 	
*/
void drawString(char *string, RGB_24Bit color, int *top, int *left)
{
    8824:	e58d1004 	str	r1, [sp, #4]
    8828:	e1a05002 	mov	r5, r2
    882c:	e1a06003 	mov	r6, r3
	while(*string != 0)
    8830:	0a000006 	beq	8850 <drawString+0x40>
	{
		drawCharacter(*string, color, top, left);
    8834:	e59d1004 	ldr	r1, [sp, #4]
    8838:	e1a02005 	mov	r2, r5
    883c:	e1a03006 	mov	r3, r6
    8840:	ebffff8e 	bl	8680 <drawCharacter>
*   	显示字符串
*	return void 	
*/
void drawString(char *string, RGB_24Bit color, int *top, int *left)
{
	while(*string != 0)
    8844:	e5f40001 	ldrb	r0, [r4, #1]!
    8848:	e3500000 	cmp	r0, #0
    884c:	1afffff8 	bne	8834 <drawString+0x24>
		
		string++;
		/*计算下次显示字符的位置*/
		//left = left + 8;
	}
}
    8850:	e28dd008 	add	sp, sp, #8
    8854:	e8bd8070 	pop	{r4, r5, r6, pc}

00008858 <drawDec>:
*/
void drawDec(int dec, RGB_24Bit color, int *top, int *left)
{
	
	int times = 10;
	while( dec / times != 0)
    8858:	e59fc0ac 	ldr	ip, [pc, #172]	; 890c <drawDec+0xb4>
*	void drawDec(int dec, RGB_24Bit color, int *top, int *left)
*   	显示十进制数字，drawStringF()子函数
*	return void 	
*/
void drawDec(int dec, RGB_24Bit color, int *top, int *left)
{
    885c:	e92d43f0 	push	{r4, r5, r6, r7, r8, r9, lr}
    8860:	e1a05000 	mov	r5, r0
	
	int times = 10;
	while( dec / times != 0)
    8864:	e0cc059c 	smull	r0, ip, ip, r5
    8868:	e1a00fc5 	asr	r0, r5, #31
*	void drawDec(int dec, RGB_24Bit color, int *top, int *left)
*   	显示十进制数字，drawStringF()子函数
*	return void 	
*/
void drawDec(int dec, RGB_24Bit color, int *top, int *left)
{
    886c:	e24dd00c 	sub	sp, sp, #12
	
	int times = 10;
	while( dec / times != 0)
    8870:	e150014c 	cmp	r0, ip, asr #2
*	void drawDec(int dec, RGB_24Bit color, int *top, int *left)
*   	显示十进制数字，drawStringF()子函数
*	return void 	
*/
void drawDec(int dec, RGB_24Bit color, int *top, int *left)
{
    8874:	e58d1004 	str	r1, [sp, #4]
    8878:	e1a07002 	mov	r7, r2
    887c:	e1a08003 	mov	r8, r3
	
	int times = 10;
	while( dec / times != 0)
    8880:	0a00001f 	beq	8904 <drawDec+0xac>
*	return void 	
*/
void drawDec(int dec, RGB_24Bit color, int *top, int *left)
{
	
	int times = 10;
    8884:	e3a0600a 	mov	r6, #10
	while( dec / times != 0)
	{
		times *= 10;
    8888:	e0866106 	add	r6, r6, r6, lsl #2
    888c:	e1a06086 	lsl	r6, r6, #1
*/
void drawDec(int dec, RGB_24Bit color, int *top, int *left)
{
	
	int times = 10;
	while( dec / times != 0)
    8890:	e1a01006 	mov	r1, r6
    8894:	e1a00005 	mov	r0, r5
    8898:	eb0027f2 	bl	12868 <__aeabi_idiv>
    889c:	e3500000 	cmp	r0, #0
    88a0:	1afffff8 	bne	8888 <drawDec+0x30>
    88a4:	e59f4060 	ldr	r4, [pc, #96]	; 890c <drawDec+0xb4>
    88a8:	e1a03fc6 	asr	r3, r6, #31
    88ac:	e0c42694 	smull	r2, r4, r4, r6
    88b0:	e0634144 	rsb	r4, r3, r4, asr #2
	do {
		unsigned char num = 0;
		num = (unsigned char ) (dec / times);
		drawCharacter( (num + '0'), color, top, left );
		dec -=  num * times;
		times /= 10;
    88b4:	e59f9050 	ldr	r9, [pc, #80]	; 890c <drawDec+0xb4>
	
	times /= 10;
	
	do {
		unsigned char num = 0;
		num = (unsigned char ) (dec / times);
    88b8:	e1a01004 	mov	r1, r4
    88bc:	e1a00005 	mov	r0, r5
    88c0:	eb0027e8 	bl	12868 <__aeabi_idiv>
    88c4:	e1a06000 	mov	r6, r0
		drawCharacter( (num + '0'), color, top, left );
    88c8:	e2800030 	add	r0, r0, #48	; 0x30
    88cc:	e59d1004 	ldr	r1, [sp, #4]
    88d0:	e1a03008 	mov	r3, r8
    88d4:	e6ef0070 	uxtb	r0, r0
    88d8:	e1a02007 	mov	r2, r7
    88dc:	ebffff67 	bl	8680 <drawCharacter>
		dec -=  num * times;
    88e0:	e6ef6076 	uxtb	r6, r6
		times /= 10;
    88e4:	e0c13499 	smull	r3, r1, r9, r4
	
	do {
		unsigned char num = 0;
		num = (unsigned char ) (dec / times);
		drawCharacter( (num + '0'), color, top, left );
		dec -=  num * times;
    88e8:	e0060694 	mul	r6, r4, r6
		times /= 10;
    88ec:	e1a04fc4 	asr	r4, r4, #31
	}while(times != 0);
    88f0:	e0744141 	rsbs	r4, r4, r1, asr #2
	
	do {
		unsigned char num = 0;
		num = (unsigned char ) (dec / times);
		drawCharacter( (num + '0'), color, top, left );
		dec -=  num * times;
    88f4:	e0665005 	rsb	r5, r6, r5
		times /= 10;
	}while(times != 0);
    88f8:	1affffee 	bne	88b8 <drawDec+0x60>
	
}
    88fc:	e28dd00c 	add	sp, sp, #12
    8900:	e8bd83f0 	pop	{r4, r5, r6, r7, r8, r9, pc}
*/
void drawDec(int dec, RGB_24Bit color, int *top, int *left)
{
	
	int times = 10;
	while( dec / times != 0)
    8904:	e3a04001 	mov	r4, #1
    8908:	eaffffe9 	b	88b4 <drawDec+0x5c>
    890c:	66666667 	.word	0x66666667

00008910 <drawFlt>:
* 	问题。弄这个函数两天了，先放着吧。调试显示浮点数不是很多
*	return void 	
*/
/*2015年01月01日22:59:23  真是一个奇怪的bug，函数参数不能有double类型。Why?*/
void drawFlt(float  flt, RGB_24Bit color, int *x, int *y)
{
    8910:	e24dd008 	sub	sp, sp, #8
	//tmpintB =  (int )  ((flt - tmpintA) * 10000000) ;
	//test_drawFlt_sub0(color, x, y, tmpintA, tmpintB);
	//drawDec(a, color, x, y);
	//drawCharacter('.', color, x, y);
	//drawDec(b, color, x, y);
}
    8914:	e28dd008 	add	sp, sp, #8
    8918:	e12fff1e 	bx	lr

0000891c <drawHex>:
*	void drawHex(int hex, RGB_24Bit color, char IS_Big,int *top, int *left)
*   	显示十六进制数字，drawStringF()子函数
*	return void 	
*/
void drawHex(int hex, RGB_24Bit color, char IS_Big,int *top, int *left)
{
    891c:	e92d43f0 	push	{r4, r5, r6, r7, r8, r9, lr}
    8920:	e1a05000 	mov	r5, r0
	int times = 16;
	while( hex / times != 0)
    8924:	e3550000 	cmp	r5, #0
    8928:	e280000f 	add	r0, r0, #15
    892c:	a1a00005 	movge	r0, r5
*	void drawHex(int hex, RGB_24Bit color, char IS_Big,int *top, int *left)
*   	显示十六进制数字，drawStringF()子函数
*	return void 	
*/
void drawHex(int hex, RGB_24Bit color, char IS_Big,int *top, int *left)
{
    8930:	e24dd00c 	sub	sp, sp, #12
	int times = 16;
	while( hex / times != 0)
    8934:	e1b00220 	lsrs	r0, r0, #4
*	void drawHex(int hex, RGB_24Bit color, char IS_Big,int *top, int *left)
*   	显示十六进制数字，drawStringF()子函数
*	return void 	
*/
void drawHex(int hex, RGB_24Bit color, char IS_Big,int *top, int *left)
{
    8938:	e58d1004 	str	r1, [sp, #4]
    893c:	e1a08002 	mov	r8, r2
    8940:	e1a06003 	mov	r6, r3
    8944:	e59d7028 	ldr	r7, [sp, #40]	; 0x28
	int times = 16;
	while( hex / times != 0)
    8948:	0a00002b 	beq	89fc <drawHex+0xe0>
*   	显示十六进制数字，drawStringF()子函数
*	return void 	
*/
void drawHex(int hex, RGB_24Bit color, char IS_Big,int *top, int *left)
{
	int times = 16;
    894c:	e3a04010 	mov	r4, #16
	while( hex / times != 0)
	{
		times *= 16;
    8950:	e1a04204 	lsl	r4, r4, #4
*	return void 	
*/
void drawHex(int hex, RGB_24Bit color, char IS_Big,int *top, int *left)
{
	int times = 16;
	while( hex / times != 0)
    8954:	e1a01004 	mov	r1, r4
    8958:	e1a00005 	mov	r0, r5
    895c:	eb0027c1 	bl	12868 <__aeabi_idiv>
    8960:	e3500000 	cmp	r0, #0
    8964:	1afffff9 	bne	8950 <drawHex+0x34>
    8968:	e1a04244 	asr	r4, r4, #4
    896c:	ea00000f 	b	89b0 <drawHex+0x94>
			drawCharacter( (num + '0'), color, top, left );
		}
		else
		{
			num -= 10;
			if( IS_Big == 1)
    8970:	e3580001 	cmp	r8, #1
			{
				drawCharacter( (num + 'A'), color, top, left );
    8974:	028c0037 	addeq	r0, ip, #55	; 0x37
    8978:	06ef0070 	uxtbeq	r0, r0
    897c:	059d1004 	ldreq	r1, [sp, #4]
    8980:	01a02006 	moveq	r2, r6
    8984:	01a03007 	moveq	r3, r7
			}
			else
			{
				drawCharacter( (num + 'a'), color, top, left );
    8988:	159d1004 	ldrne	r1, [sp, #4]
		{
			drawCharacter( (num + '0'), color, top, left );
		}
		else
		{
			num -= 10;
    898c:	e6ef9079 	uxtb	r9, r9
			{
				drawCharacter( (num + 'A'), color, top, left );
			}
			else
			{
				drawCharacter( (num + 'a'), color, top, left );
    8990:	ebffff3a 	bl	8680 <drawCharacter>
			}
			
		}
		
		hex -=  num * times;
    8994:	e0090994 	mul	r9, r4, r9
		times /= 16;
    8998:	e284300f 	add	r3, r4, #15
    899c:	e3540000 	cmp	r4, #0
    89a0:	b1a04003 	movlt	r4, r3
	}while(times != 0);
    89a4:	e1b04244 	asrs	r4, r4, #4
				drawCharacter( (num + 'a'), color, top, left );
			}
			
		}
		
		hex -=  num * times;
    89a8:	e0695005 	rsb	r5, r9, r5
		times /= 16;
	}while(times != 0);
    89ac:	0a000010 	beq	89f4 <drawHex+0xd8>
	
	times /= 16;
	
	do {
		unsigned char num = 0;
		num = (unsigned char ) (hex / times);
    89b0:	e1a00005 	mov	r0, r5
    89b4:	e1a01004 	mov	r1, r4
    89b8:	eb0027aa 	bl	12868 <__aeabi_idiv>
    89bc:	e6efc070 	uxtb	ip, r0
			{
				drawCharacter( (num + 'A'), color, top, left );
			}
			else
			{
				drawCharacter( (num + 'a'), color, top, left );
    89c0:	e28c0057 	add	r0, ip, #87	; 0x57
	times /= 16;
	
	do {
		unsigned char num = 0;
		num = (unsigned char ) (hex / times);
		if(num < 10)
    89c4:	e35c0009 	cmp	ip, #9
		{
			drawCharacter( (num + '0'), color, top, left );
		}
		else
		{
			num -= 10;
    89c8:	e24c900a 	sub	r9, ip, #10
			{
				drawCharacter( (num + 'A'), color, top, left );
			}
			else
			{
				drawCharacter( (num + 'a'), color, top, left );
    89cc:	e6ef0070 	uxtb	r0, r0
    89d0:	e1a02006 	mov	r2, r6
    89d4:	e1a03007 	mov	r3, r7
	times /= 16;
	
	do {
		unsigned char num = 0;
		num = (unsigned char ) (hex / times);
		if(num < 10)
    89d8:	8affffe4 	bhi	8970 <drawHex+0x54>
		{
			drawCharacter( (num + '0'), color, top, left );
    89dc:	e28c0030 	add	r0, ip, #48	; 0x30
    89e0:	e6ef0070 	uxtb	r0, r0
    89e4:	e59d1004 	ldr	r1, [sp, #4]
    89e8:	e1a0900c 	mov	r9, ip
    89ec:	ebffff23 	bl	8680 <drawCharacter>
    89f0:	eaffffe7 	b	8994 <drawHex+0x78>
		}
		
		hex -=  num * times;
		times /= 16;
	}while(times != 0);
}
    89f4:	e28dd00c 	add	sp, sp, #12
    89f8:	e8bd83f0 	pop	{r4, r5, r6, r7, r8, r9, pc}
*	return void 	
*/
void drawHex(int hex, RGB_24Bit color, char IS_Big,int *top, int *left)
{
	int times = 16;
	while( hex / times != 0)
    89fc:	e3a04001 	mov	r4, #1
    8a00:	eaffffea 	b	89b0 <drawHex+0x94>

00008a04 <drawBin>:
*	void drawBin(int bin, RGB_24Bit color, char IS_Big,int *top, int *left)
*   	显示十六进制数字，drawStringF()子函数
*	return void 	
*/
void drawBin(int bin, RGB_24Bit color, char IS_Big,int *top, int *left)
{
    8a04:	e92d41f0 	push	{r4, r5, r6, r7, r8, lr}
	int times = 2;
	while( bin / times != 0)
    8a08:	e0802fa0 	add	r2, r0, r0, lsr #31
*	void drawBin(int bin, RGB_24Bit color, char IS_Big,int *top, int *left)
*   	显示十六进制数字，drawStringF()子函数
*	return void 	
*/
void drawBin(int bin, RGB_24Bit color, char IS_Big,int *top, int *left)
{
    8a0c:	e24dd008 	sub	sp, sp, #8
	int times = 2;
	while( bin / times != 0)
    8a10:	e1b020a2 	lsrs	r2, r2, #1
*	void drawBin(int bin, RGB_24Bit color, char IS_Big,int *top, int *left)
*   	显示十六进制数字，drawStringF()子函数
*	return void 	
*/
void drawBin(int bin, RGB_24Bit color, char IS_Big,int *top, int *left)
{
    8a14:	e1a05000 	mov	r5, r0
    8a18:	e58d1004 	str	r1, [sp, #4]
    8a1c:	e1a07003 	mov	r7, r3
    8a20:	e59d8020 	ldr	r8, [sp, #32]
	int times = 2;
	while( bin / times != 0)
    8a24:	0a000019 	beq	8a90 <drawBin+0x8c>
*   	显示十六进制数字，drawStringF()子函数
*	return void 	
*/
void drawBin(int bin, RGB_24Bit color, char IS_Big,int *top, int *left)
{
	int times = 2;
    8a28:	e3a04002 	mov	r4, #2
	while( bin / times != 0)
	{
		times *= 2;
    8a2c:	e1a04084 	lsl	r4, r4, #1
*	return void 	
*/
void drawBin(int bin, RGB_24Bit color, char IS_Big,int *top, int *left)
{
	int times = 2;
	while( bin / times != 0)
    8a30:	e1a01004 	mov	r1, r4
    8a34:	e1a00005 	mov	r0, r5
    8a38:	eb00278a 	bl	12868 <__aeabi_idiv>
    8a3c:	e3500000 	cmp	r0, #0
    8a40:	1afffff9 	bne	8a2c <drawBin+0x28>
    8a44:	e1a040c4 	asr	r4, r4, #1
	
	times /= 2;
	
	do {
		unsigned char num = 0;
		num = (unsigned char ) (bin / times);
    8a48:	e1a01004 	mov	r1, r4
    8a4c:	e1a00005 	mov	r0, r5
    8a50:	eb002784 	bl	12868 <__aeabi_idiv>
    8a54:	e1a06000 	mov	r6, r0
		drawCharacter( (num + '0'), color, top, left );
		bin -=  num * times;
    8a58:	e6ef6076 	uxtb	r6, r6
    8a5c:	e0060694 	mul	r6, r4, r6
	times /= 2;
	
	do {
		unsigned char num = 0;
		num = (unsigned char ) (bin / times);
		drawCharacter( (num + '0'), color, top, left );
    8a60:	e2800030 	add	r0, r0, #48	; 0x30
    8a64:	e6ef0070 	uxtb	r0, r0
    8a68:	e59d1004 	ldr	r1, [sp, #4]
    8a6c:	e1a02007 	mov	r2, r7
    8a70:	e1a03008 	mov	r3, r8
		bin -=  num * times;
		times /= 2;
    8a74:	e0844fa4 	add	r4, r4, r4, lsr #31
	times /= 2;
	
	do {
		unsigned char num = 0;
		num = (unsigned char ) (bin / times);
		drawCharacter( (num + '0'), color, top, left );
    8a78:	ebffff00 	bl	8680 <drawCharacter>
		bin -=  num * times;
		times /= 2;
	}while(times != 0);
    8a7c:	e1b040c4 	asrs	r4, r4, #1
	
	do {
		unsigned char num = 0;
		num = (unsigned char ) (bin / times);
		drawCharacter( (num + '0'), color, top, left );
		bin -=  num * times;
    8a80:	e0665005 	rsb	r5, r6, r5
		times /= 2;
	}while(times != 0);
    8a84:	1affffef 	bne	8a48 <drawBin+0x44>
}
    8a88:	e28dd008 	add	sp, sp, #8
    8a8c:	e8bd81f0 	pop	{r4, r5, r6, r7, r8, pc}
*	return void 	
*/
void drawBin(int bin, RGB_24Bit color, char IS_Big,int *top, int *left)
{
	int times = 2;
	while( bin / times != 0)
    8a90:	e3a04001 	mov	r4, #1
    8a94:	eaffffeb 	b	8a48 <drawBin+0x44>

00008a98 <drawStringF>:
*	void drawStringF(char *string, RGB_24Bit color, int top, int left)
*   	格式化显示字符串
*	return void 	
*/
void drawStringF(char *fmt, RGB_24Bit color, int top, int left, ...)
{
    8a98:	e52d3004 	push	{r3}		; (str r3, [sp, #-4]!)
    8a9c:	e92d40f0 	push	{r4, r5, r6, r7, lr}
    8aa0:	e24dd018 	sub	sp, sp, #24
	char vargch = 0;
	char* pfmt = 0;
	va_list vp;
	
	/*left 后第一个参数*/
	va_start(vp, left);
    8aa4:	e28d3030 	add	r3, sp, #48	; 0x30
*	void drawStringF(char *string, RGB_24Bit color, int top, int left)
*   	格式化显示字符串
*	return void 	
*/
void drawStringF(char *fmt, RGB_24Bit color, int top, int left, ...)
{
    8aa8:	e1a04000 	mov	r4, r0
    8aac:	e58d100c 	str	r1, [sp, #12]
    8ab0:	e58d2008 	str	r2, [sp, #8]
	char vargch = 0;
	char* pfmt = 0;
	va_list vp;
	
	/*left 后第一个参数*/
	va_start(vp, left);
    8ab4:	e58d3014 	str	r3, [sp, #20]
*/
void drawStringF(char *fmt, RGB_24Bit color, int top, int left, ...)
{
	/*  */
	double vargflt = 0;
	int  vargint = 0;
    8ab8:	e3a07000 	mov	r7, #0
			}
			pfmt++;
		}
		else
		{
			drawCharacter(*pfmt++, color, &top, &left );
    8abc:	e28d502c 	add	r5, sp, #44	; 0x2c
	
	/*left 后第一个参数*/
	va_start(vp, left);
	pfmt = fmt;
	
	 while(*pfmt)
    8ac0:	e5d40000 	ldrb	r0, [r4]
    8ac4:	e3500000 	cmp	r0, #0
    8ac8:	0a000068 	beq	8c70 <drawStringF+0x1d8>
	{
		if(*pfmt == '%')
    8acc:	e3500025 	cmp	r0, #37	; 0x25
    8ad0:	1a0000b2 	bne	8da0 <drawStringF+0x308>
		{
			switch(*(++pfmt))
    8ad4:	e5d43001 	ldrb	r3, [r4, #1]
    8ad8:	e2433025 	sub	r3, r3, #37	; 0x25
    8adc:	e3530053 	cmp	r3, #83	; 0x53
    8ae0:	979ff103 	ldrls	pc, [pc, r3, lsl #2]
    8ae4:	ea00005d 	b	8c60 <drawStringF+0x1c8>
    8ae8:	00008d30 	.word	0x00008d30
    8aec:	00008c60 	.word	0x00008c60
    8af0:	00008c60 	.word	0x00008c60
    8af4:	00008c60 	.word	0x00008c60
    8af8:	00008c60 	.word	0x00008c60
    8afc:	00008c60 	.word	0x00008c60
    8b00:	00008c60 	.word	0x00008c60
    8b04:	00008c60 	.word	0x00008c60
    8b08:	00008c60 	.word	0x00008c60
    8b0c:	00008c60 	.word	0x00008c60
    8b10:	00008c60 	.word	0x00008c60
    8b14:	00008c60 	.word	0x00008c60
    8b18:	00008c60 	.word	0x00008c60
    8b1c:	00008c60 	.word	0x00008c60
    8b20:	00008c60 	.word	0x00008c60
    8b24:	00008c60 	.word	0x00008c60
    8b28:	00008c60 	.word	0x00008c60
    8b2c:	00008c60 	.word	0x00008c60
    8b30:	00008c60 	.word	0x00008c60
    8b34:	00008c60 	.word	0x00008c60
    8b38:	00008c60 	.word	0x00008c60
    8b3c:	00008c60 	.word	0x00008c60
    8b40:	00008c60 	.word	0x00008c60
    8b44:	00008c60 	.word	0x00008c60
    8b48:	00008c60 	.word	0x00008c60
    8b4c:	00008c60 	.word	0x00008c60
    8b50:	00008c60 	.word	0x00008c60
    8b54:	00008c60 	.word	0x00008c60
    8b58:	00008c60 	.word	0x00008c60
    8b5c:	00008d74 	.word	0x00008d74
    8b60:	00008c60 	.word	0x00008c60
    8b64:	00008c60 	.word	0x00008c60
    8b68:	00008c60 	.word	0x00008c60
    8b6c:	00008c60 	.word	0x00008c60
    8b70:	00008c60 	.word	0x00008c60
    8b74:	00008c60 	.word	0x00008c60
    8b78:	00008c60 	.word	0x00008c60
    8b7c:	00008c60 	.word	0x00008c60
    8b80:	00008c60 	.word	0x00008c60
    8b84:	00008c60 	.word	0x00008c60
    8b88:	00008c60 	.word	0x00008c60
    8b8c:	00008c60 	.word	0x00008c60
    8b90:	00008c60 	.word	0x00008c60
    8b94:	00008c60 	.word	0x00008c60
    8b98:	00008c60 	.word	0x00008c60
    8b9c:	00008c60 	.word	0x00008c60
    8ba0:	00008c60 	.word	0x00008c60
    8ba4:	00008c60 	.word	0x00008c60
    8ba8:	00008c60 	.word	0x00008c60
    8bac:	00008c60 	.word	0x00008c60
    8bb0:	00008c60 	.word	0x00008c60
    8bb4:	00008d48 	.word	0x00008d48
    8bb8:	00008c60 	.word	0x00008c60
    8bbc:	00008c60 	.word	0x00008c60
    8bc0:	00008c60 	.word	0x00008c60
    8bc4:	00008c60 	.word	0x00008c60
    8bc8:	00008c60 	.word	0x00008c60
    8bcc:	00008c60 	.word	0x00008c60
    8bd0:	00008c60 	.word	0x00008c60
    8bd4:	00008c60 	.word	0x00008c60
    8bd8:	00008c60 	.word	0x00008c60
    8bdc:	00008d74 	.word	0x00008d74
    8be0:	00008d0c 	.word	0x00008d0c
    8be4:	00008ce4 	.word	0x00008ce4
    8be8:	00008c60 	.word	0x00008c60
    8bec:	00008ccc 	.word	0x00008ccc
    8bf0:	00008c60 	.word	0x00008c60
    8bf4:	00008c60 	.word	0x00008c60
    8bf8:	00008ce4 	.word	0x00008ce4
    8bfc:	00008c60 	.word	0x00008c60
    8c00:	00008c60 	.word	0x00008c60
    8c04:	00008c60 	.word	0x00008c60
    8c08:	00008c60 	.word	0x00008c60
    8c0c:	00008c60 	.word	0x00008c60
    8c10:	00008c60 	.word	0x00008c60
    8c14:	00008c60 	.word	0x00008c60
    8c18:	00008c60 	.word	0x00008c60
    8c1c:	00008c60 	.word	0x00008c60
    8c20:	00008c80 	.word	0x00008c80
    8c24:	00008c60 	.word	0x00008c60
    8c28:	00008c60 	.word	0x00008c60
    8c2c:	00008c60 	.word	0x00008c60
    8c30:	00008c60 	.word	0x00008c60
    8c34:	00008c38 	.word	0x00008c38
				case 'B':
					vargint = va_arg(vp, int);
					drawBin(vargint,color, 0,&top, &left);
					break;
				case 'x':
					vargint = va_arg(vp, int);
    8c38:	e59d3014 	ldr	r3, [sp, #20]
					drawHex(vargint,color, 0,&top, &left);
    8c3c:	e59d100c 	ldr	r1, [sp, #12]
				case 'B':
					vargint = va_arg(vp, int);
					drawBin(vargint,color, 0,&top, &left);
					break;
				case 'x':
					vargint = va_arg(vp, int);
    8c40:	e5937000 	ldr	r7, [r3]
    8c44:	e283c004 	add	ip, r3, #4
					drawHex(vargint,color, 0,&top, &left);
    8c48:	e58d5000 	str	r5, [sp]
    8c4c:	e1a00007 	mov	r0, r7
    8c50:	e3a02000 	mov	r2, #0
    8c54:	e28d3008 	add	r3, sp, #8
				case 'B':
					vargint = va_arg(vp, int);
					drawBin(vargint,color, 0,&top, &left);
					break;
				case 'x':
					vargint = va_arg(vp, int);
    8c58:	e58dc014 	str	ip, [sp, #20]
					drawHex(vargint,color, 0,&top, &left);
    8c5c:	ebffff2e 	bl	891c <drawHex>
					drawCharacter('%', color, &top, &left );
					break;
				default:
					break;
			}
			pfmt++;
    8c60:	e2844002 	add	r4, r4, #2
	
	/*left 后第一个参数*/
	va_start(vp, left);
	pfmt = fmt;
	
	 while(*pfmt)
    8c64:	e5d40000 	ldrb	r0, [r4]
    8c68:	e3500000 	cmp	r0, #0
    8c6c:	1affff96 	bne	8acc <drawStringF+0x34>
		{
			drawCharacter(*pfmt++, color, &top, &left );
		}	
	}
	va_end(vp);
}
    8c70:	e28dd018 	add	sp, sp, #24
    8c74:	e8bd40f0 	pop	{r4, r5, r6, r7, lr}
    8c78:	e28dd004 	add	sp, sp, #4
    8c7c:	e12fff1e 	bx	lr
				case 'f':
					vargflt = va_arg(vp, double);
					//drawFlt(vargflt,color, &top, &left);
					break;
				case 's':
					vargpch = va_arg(vp, char*);
    8c80:	e59d2014 	ldr	r2, [sp, #20]
    8c84:	e59d300c 	ldr	r3, [sp, #12]
    8c88:	e5926000 	ldr	r6, [r2]
    8c8c:	e1a01823 	lsr	r1, r3, #16
*   	显示字符串
*	return void 	
*/
void drawString(char *string, RGB_24Bit color, int *top, int *left)
{
	while(*string != 0)
    8c90:	e5d60000 	ldrb	r0, [r6]
				case 'f':
					vargflt = va_arg(vp, double);
					//drawFlt(vargflt,color, &top, &left);
					break;
				case 's':
					vargpch = va_arg(vp, char*);
    8c94:	e2822004 	add	r2, r2, #4
*   	显示字符串
*	return void 	
*/
void drawString(char *string, RGB_24Bit color, int *top, int *left)
{
	while(*string != 0)
    8c98:	e3500000 	cmp	r0, #0
				case 'f':
					vargflt = va_arg(vp, double);
					//drawFlt(vargflt,color, &top, &left);
					break;
				case 's':
					vargpch = va_arg(vp, char*);
    8c9c:	e58d2014 	str	r2, [sp, #20]
    8ca0:	e1cd31b0 	strh	r3, [sp, #16]
    8ca4:	e5cd1012 	strb	r1, [sp, #18]
*   	显示字符串
*	return void 	
*/
void drawString(char *string, RGB_24Bit color, int *top, int *left)
{
	while(*string != 0)
    8ca8:	0affffec 	beq	8c60 <drawStringF+0x1c8>
	{
		drawCharacter(*string, color, top, left);
    8cac:	e59d1010 	ldr	r1, [sp, #16]
    8cb0:	e28d2008 	add	r2, sp, #8
    8cb4:	e1a03005 	mov	r3, r5
    8cb8:	ebfffe70 	bl	8680 <drawCharacter>
*   	显示字符串
*	return void 	
*/
void drawString(char *string, RGB_24Bit color, int *top, int *left)
{
	while(*string != 0)
    8cbc:	e5f60001 	ldrb	r0, [r6, #1]!
    8cc0:	e3500000 	cmp	r0, #0
    8cc4:	1afffff8 	bne	8cac <drawStringF+0x214>
    8cc8:	eaffffe4 	b	8c60 <drawStringF+0x1c8>
				case 'i':
					vargint = va_arg(vp, int);
					drawDec(vargint,color, &top, &left);
					break;
				case 'f':
					vargflt = va_arg(vp, double);
    8ccc:	e59d3014 	ldr	r3, [sp, #20]
    8cd0:	e2833007 	add	r3, r3, #7
    8cd4:	e3c33007 	bic	r3, r3, #7
    8cd8:	e2833008 	add	r3, r3, #8
    8cdc:	e58d3014 	str	r3, [sp, #20]
					//drawFlt(vargflt,color, &top, &left);
					break;
    8ce0:	eaffffde 	b	8c60 <drawStringF+0x1c8>
					vargch = va_arg(vp, int); 
					drawCharacter(vargint, color, &top, &left);
					break;
				case 'd':
				case 'i':
					vargint = va_arg(vp, int);
    8ce4:	e59d3014 	ldr	r3, [sp, #20]
					drawDec(vargint,color, &top, &left);
    8ce8:	e59d100c 	ldr	r1, [sp, #12]
					vargch = va_arg(vp, int); 
					drawCharacter(vargint, color, &top, &left);
					break;
				case 'd':
				case 'i':
					vargint = va_arg(vp, int);
    8cec:	e5937000 	ldr	r7, [r3]
    8cf0:	e283c004 	add	ip, r3, #4
					drawDec(vargint,color, &top, &left);
    8cf4:	e1a00007 	mov	r0, r7
    8cf8:	e28d2008 	add	r2, sp, #8
    8cfc:	e1a03005 	mov	r3, r5
					vargch = va_arg(vp, int); 
					drawCharacter(vargint, color, &top, &left);
					break;
				case 'd':
				case 'i':
					vargint = va_arg(vp, int);
    8d00:	e58dc014 	str	ip, [sp, #20]
					drawDec(vargint,color, &top, &left);
    8d04:	ebfffed3 	bl	8858 <drawDec>
					break;
    8d08:	eaffffd4 	b	8c60 <drawStringF+0x1c8>
		if(*pfmt == '%')
		{
			switch(*(++pfmt))
			{
				case 'c':
					vargch = va_arg(vp, int); 
    8d0c:	e59dc014 	ldr	ip, [sp, #20]
					drawCharacter(vargint, color, &top, &left);
    8d10:	e6ef0077 	uxtb	r0, r7
		if(*pfmt == '%')
		{
			switch(*(++pfmt))
			{
				case 'c':
					vargch = va_arg(vp, int); 
    8d14:	e28cc004 	add	ip, ip, #4
					drawCharacter(vargint, color, &top, &left);
    8d18:	e59d100c 	ldr	r1, [sp, #12]
    8d1c:	e28d2008 	add	r2, sp, #8
    8d20:	e1a03005 	mov	r3, r5
		if(*pfmt == '%')
		{
			switch(*(++pfmt))
			{
				case 'c':
					vargch = va_arg(vp, int); 
    8d24:	e58dc014 	str	ip, [sp, #20]
					drawCharacter(vargint, color, &top, &left);
    8d28:	ebfffe54 	bl	8680 <drawCharacter>
					break;
    8d2c:	eaffffcb 	b	8c60 <drawStringF+0x1c8>
				case 'X':
					vargint = va_arg(vp, int);
					drawHex(vargint,color, 1,&top, &left);
					break;
				case '%':
					drawCharacter('%', color, &top, &left );
    8d30:	e3a00025 	mov	r0, #37	; 0x25
    8d34:	e59d100c 	ldr	r1, [sp, #12]
    8d38:	e28d2008 	add	r2, sp, #8
    8d3c:	e1a03005 	mov	r3, r5
    8d40:	ebfffe4e 	bl	8680 <drawCharacter>
					break;
    8d44:	eaffffc5 	b	8c60 <drawStringF+0x1c8>
				case 'x':
					vargint = va_arg(vp, int);
					drawHex(vargint,color, 0,&top, &left);
					break;
				case 'X':
					vargint = va_arg(vp, int);
    8d48:	e59d3014 	ldr	r3, [sp, #20]
					drawHex(vargint,color, 1,&top, &left);
    8d4c:	e59d100c 	ldr	r1, [sp, #12]
				case 'x':
					vargint = va_arg(vp, int);
					drawHex(vargint,color, 0,&top, &left);
					break;
				case 'X':
					vargint = va_arg(vp, int);
    8d50:	e5937000 	ldr	r7, [r3]
    8d54:	e283c004 	add	ip, r3, #4
					drawHex(vargint,color, 1,&top, &left);
    8d58:	e58d5000 	str	r5, [sp]
    8d5c:	e1a00007 	mov	r0, r7
    8d60:	e3a02001 	mov	r2, #1
    8d64:	e28d3008 	add	r3, sp, #8
				case 'x':
					vargint = va_arg(vp, int);
					drawHex(vargint,color, 0,&top, &left);
					break;
				case 'X':
					vargint = va_arg(vp, int);
    8d68:	e58dc014 	str	ip, [sp, #20]
					drawHex(vargint,color, 1,&top, &left);
    8d6c:	ebfffeea 	bl	891c <drawHex>
					break;
    8d70:	eaffffba 	b	8c60 <drawStringF+0x1c8>
					vargpch = va_arg(vp, char*);
					drawString(vargpch,color, &top, &left);
					break;
				case 'b':
				case 'B':
					vargint = va_arg(vp, int);
    8d74:	e59d3014 	ldr	r3, [sp, #20]
					drawBin(vargint,color, 0,&top, &left);
    8d78:	e59d100c 	ldr	r1, [sp, #12]
					vargpch = va_arg(vp, char*);
					drawString(vargpch,color, &top, &left);
					break;
				case 'b':
				case 'B':
					vargint = va_arg(vp, int);
    8d7c:	e5937000 	ldr	r7, [r3]
    8d80:	e283c004 	add	ip, r3, #4
					drawBin(vargint,color, 0,&top, &left);
    8d84:	e58d5000 	str	r5, [sp]
    8d88:	e1a00007 	mov	r0, r7
    8d8c:	e3a02000 	mov	r2, #0
    8d90:	e28d3008 	add	r3, sp, #8
					vargpch = va_arg(vp, char*);
					drawString(vargpch,color, &top, &left);
					break;
				case 'b':
				case 'B':
					vargint = va_arg(vp, int);
    8d94:	e58dc014 	str	ip, [sp, #20]
					drawBin(vargint,color, 0,&top, &left);
    8d98:	ebffff19 	bl	8a04 <drawBin>
					break;
    8d9c:	eaffffaf 	b	8c60 <drawStringF+0x1c8>
			}
			pfmt++;
		}
		else
		{
			drawCharacter(*pfmt++, color, &top, &left );
    8da0:	e59d100c 	ldr	r1, [sp, #12]
    8da4:	e28d2008 	add	r2, sp, #8
    8da8:	e1a03005 	mov	r3, r5
    8dac:	e2844001 	add	r4, r4, #1
    8db0:	ebfffe32 	bl	8680 <drawCharacter>
    8db4:	eaffff41 	b	8ac0 <drawStringF+0x28>

00008db8 <undifined_instruction_vector>:


void  __attribute__((interrupt("UNDEF")))undifined_instruction_vector(void)
{
    8db8:	e1b0f00e 	movs	pc, lr

00008dbc <software_interrupt_vector>:
	
}

void  __attribute__((interrupt("SWI")))software_interrupt_vector(void)
{
    8dbc:	e1b0f00e 	movs	pc, lr

00008dc0 <prefetch_abort_vector>:
	
}

void  __attribute__((interrupt("ABORT")))prefetch_abort_vector(void)
{
    8dc0:	e25ef004 	subs	pc, lr, #4

00008dc4 <data_abort_vector>:
	
}

void  __attribute__((interrupt("ABORT")))data_abort_vector(void)
{
    8dc4:	e25ef004 	subs	pc, lr, #4

00008dc8 <interrupt_vector>:
	
}

void  __attribute__((interrupt("UNDEF")))interrupt_vector(void)
{
    8dc8:	e1b0f00e 	movs	pc, lr

00008dcc <fast_interrupt_vector>:
	
}

void  __attribute__((interrupt("FIQ")))fast_interrupt_vector(void)
{
    8dcc:	e25ef004 	subs	pc, lr, #4

00008dd0 <os_main>:
volatile unsigned int tmp = 0;


/*程序的主函数，永远不返回*/
void os_main(void)
{
    8dd0:	e92d4008 	push	{r3, lr}
	/* init */
	GPIO_SET_GPFSEL(16,1);	//GPIO16设置为output
    8dd4:	e3a01001 	mov	r1, #1
    8dd8:	e3a00010 	mov	r0, #16
    8ddc:	ebfffd00 	bl	81e4 <GPIO_SET_GPFSEL>
	GPIO_SET_GPSET(16);
    8de0:	e3a00010 	mov	r0, #16
    8de4:	ebfffd32 	bl	82b4 <GPIO_SET_GPSET>
	init_screen(1440, 900, 24);
    8de8:	e3a01fe1 	mov	r1, #900	; 0x384
    8dec:	e3a02018 	mov	r2, #24
    8df0:	e3a00e5a 	mov	r0, #1440	; 0x5a0
    8df4:	ebfffe03 	bl	8608 <init_screen>
	
	/* debug */
	
	deb_screen();
    8df8:	ebfffcba 	bl	80e8 <deb_screen>
	//deb_GPIO();
	deb_keyboard();
    8dfc:	ebfffcf0 	bl	81c4 <deb_keyboard>
    8e00:	eafffffe 	b	8e00 <os_main+0x30>

00008e04 <exit>:
	while(1)
	;
}

void exit(int code)
{
    8e04:	eafffffe 	b	8e04 <exit>

00008e08 <_cstartup>:
*   	初始化bss段
*	return 
*/

void _cstartup( unsigned int r0, unsigned int r1, unsigned int r2 )
{
    8e08:	e92d4008 	push	{r3, lr}
            	BSS section
 
        	See https://sourceware.org/newlib/libc.html#Stubs for further
            	information on the c-library stubs
    	*/
    	while( bss < bss_end )
    8e0c:	e59fc034 	ldr	ip, [pc, #52]	; 8e48 <_cstartup+0x40>
    8e10:	e59f3034 	ldr	r3, [pc, #52]	; 8e4c <_cstartup+0x44>
    8e14:	e153000c 	cmp	r3, ip
    8e18:	2a000008 	bcs	8e40 <_cstartup+0x38>
    8e1c:	e1e0e003 	mvn	lr, r3
    8e20:	e08ec00c 	add	ip, lr, ip
    8e24:	e3cce003 	bic	lr, ip, #3
    8e28:	e08ee003 	add	lr, lr, r3
        	*bss++ = 0;
    8e2c:	e3a0c000 	mov	ip, #0
    8e30:	e2433004 	sub	r3, r3, #4
    8e34:	e5a3c004 	str	ip, [r3, #4]!
            	BSS section
 
        	See https://sourceware.org/newlib/libc.html#Stubs for further
            	information on the c-library stubs
    	*/
    	while( bss < bss_end )
    8e38:	e153000e 	cmp	r3, lr
    8e3c:	1afffffc 	bne	8e34 <_cstartup+0x2c>
        	*bss++ = 0;
 
    	/* We should never return from main ... */
    	os_main( r0, r1, r2 );
    8e40:	ebffffe2 	bl	8dd0 <os_main>
    8e44:	eafffffe 	b	8e44 <_cstartup+0x3c>
    8e48:	0001aec4 	.word	0x0001aec4
    8e4c:	00016148 	.word	0x00016148

00008e50 <sleep>:
	volatile unsigned int *TIMER_CLO_P = (unsigned int *)TIMER_CLO;
	unsigned long current_time = 0;
	unsigned long us = 0;

	//检查
	if(ms < 0)
    8e50:	e3500000 	cmp	r0, #0
    8e54:	ba000009 	blt	8e80 <sleep+0x30>
	{
		return -1;
	}
	
	/* 毫秒转化为微秒 */
	us = ms * 1000; 
    8e58:	e3a03ffa 	mov	r3, #1000	; 0x3e8
	current_time = *TIMER_CLO_P;
    8e5c:	e59f2024 	ldr	r2, [pc, #36]	; 8e88 <sleep+0x38>
	{
		return -1;
	}
	
	/* 毫秒转化为微秒 */
	us = ms * 1000; 
    8e60:	e0000093 	mul	r0, r3, r0
	current_time = *TIMER_CLO_P;
    8e64:	e5921004 	ldr	r1, [r2, #4]
	
	while((*TIMER_CLO_P - current_time) < us);
    8e68:	e5923004 	ldr	r3, [r2, #4]
    8e6c:	e0613003 	rsb	r3, r1, r3
    8e70:	e1500003 	cmp	r0, r3
    8e74:	8afffffb 	bhi	8e68 <sleep+0x18>
	{

	}

	return 0;
    8e78:	e3a00000 	mov	r0, #0
}
    8e7c:	e12fff1e 	bx	lr
	unsigned long us = 0;

	//检查
	if(ms < 0)
	{
		return -1;
    8e80:	e3e00000 	mvn	r0, #0
    8e84:	e12fff1e 	bx	lr
    8e88:	20003000 	.word	0x20003000
    8e8c:	00000000 	.word	0x00000000

00008e90 <font>:
	...
    90a0:	08000000 	.word	0x08000000
    90a4:	08080808 	.word	0x08080808
    90a8:	08080008 	.word	0x08080008
    90ac:	00000000 	.word	0x00000000
    90b0:	14000000 	.word	0x14000000
    90b4:	00141414 	.word	0x00141414
	...
    90c0:	48480000 	.word	0x48480000
    90c4:	2424fe68 	.word	0x2424fe68
    90c8:	1212147f 	.word	0x1212147f
    90cc:	00000000 	.word	0x00000000
    90d0:	10000000 	.word	0x10000000
    90d4:	1c12927c 	.word	0x1c12927c
    90d8:	7c929070 	.word	0x7c929070
    90dc:	00001010 	.word	0x00001010
    90e0:	06000000 	.word	0x06000000
    90e4:	38460909 	.word	0x38460909
    90e8:	60909066 	.word	0x60909066
    90ec:	00000000 	.word	0x00000000
    90f0:	38000000 	.word	0x38000000
    90f4:	920c0404 	.word	0x920c0404
    90f8:	bc46a2b2 	.word	0xbc46a2b2
    90fc:	00000000 	.word	0x00000000
    9100:	08000000 	.word	0x08000000
    9104:	00080808 	.word	0x00080808
	...
    9110:	10103000 	.word	0x10103000
    9114:	08080808 	.word	0x08080808
    9118:	10100808 	.word	0x10100808
    911c:	00000020 	.word	0x00000020
    9120:	08080c00 	.word	0x08080c00
    9124:	10101010 	.word	0x10101010
    9128:	08081010 	.word	0x08081010
    912c:	0000000c 	.word	0x0000000c
    9130:	10000000 	.word	0x10000000
    9134:	d6387c92 	.word	0xd6387c92
    9138:	00000010 	.word	0x00000010
	...
    9144:	7f080808 	.word	0x7f080808
    9148:	00080808 	.word	0x00080808
	...
    9158:	18180000 	.word	0x18180000
    915c:	00000408 	.word	0x00000408
	...
    9168:	0000001c 	.word	0x0000001c
	...
    9178:	18180000 	.word	0x18180000
    917c:	00000000 	.word	0x00000000
    9180:	40000000 	.word	0x40000000
    9184:	10102020 	.word	0x10102020
    9188:	04080818 	.word	0x04080818
    918c:	00000204 	.word	0x00000204
    9190:	38000000 	.word	0x38000000
    9194:	92828244 	.word	0x92828244
    9198:	38448282 	.word	0x38448282
    919c:	00000000 	.word	0x00000000
    91a0:	1c000000 	.word	0x1c000000
    91a4:	10101010 	.word	0x10101010
    91a8:	7c101010 	.word	0x7c101010
    91ac:	00000000 	.word	0x00000000
    91b0:	7c000000 	.word	0x7c000000
    91b4:	408080c2 	.word	0x408080c2
    91b8:	fe041830 	.word	0xfe041830
    91bc:	00000000 	.word	0x00000000
    91c0:	7c000000 	.word	0x7c000000
    91c4:	38c08082 	.word	0x38c08082
    91c8:	7cc280c0 	.word	0x7cc280c0
    91cc:	00000000 	.word	0x00000000
    91d0:	60000000 	.word	0x60000000
    91d4:	44485850 	.word	0x44485850
    91d8:	4040fe42 	.word	0x4040fe42
    91dc:	00000000 	.word	0x00000000
    91e0:	7e000000 	.word	0x7e000000
    91e4:	c03e0202 	.word	0xc03e0202
    91e8:	3cc28080 	.word	0x3cc28080
    91ec:	00000000 	.word	0x00000000
    91f0:	78000000 	.word	0x78000000
    91f4:	c67a0284 	.word	0xc67a0284
    91f8:	78c48282 	.word	0x78c48282
    91fc:	00000000 	.word	0x00000000
    9200:	fe000000 	.word	0xfe000000
    9204:	20204040 	.word	0x20204040
    9208:	04081810 	.word	0x04081810
    920c:	00000000 	.word	0x00000000
    9210:	7c000000 	.word	0x7c000000
    9214:	7c828282 	.word	0x7c828282
    9218:	7c868282 	.word	0x7c868282
    921c:	00000000 	.word	0x00000000
    9220:	3c000000 	.word	0x3c000000
    9224:	c6828246 	.word	0xc6828246
    9228:	3c4280bc 	.word	0x3c4280bc
	...
    9234:	00181800 	.word	0x00181800
    9238:	18180000 	.word	0x18180000
	...
    9244:	00181800 	.word	0x00181800
    9248:	18180000 	.word	0x18180000
    924c:	00000408 	.word	0x00000408
    9250:	00000000 	.word	0x00000000
    9254:	0e708000 	.word	0x0e708000
    9258:	0080700e 	.word	0x0080700e
	...
    9264:	00fe0000 	.word	0x00fe0000
    9268:	0000fe00 	.word	0x0000fe00
	...
    9274:	e01c0200 	.word	0xe01c0200
    9278:	00021ce0 	.word	0x00021ce0
    927c:	00000000 	.word	0x00000000
    9280:	1c000000 	.word	0x1c000000
    9284:	08102022 	.word	0x08102022
    9288:	08080008 	.word	0x08080008
    928c:	00000000 	.word	0x00000000
    9290:	78000000 	.word	0x78000000
    9294:	92e284cc 	.word	0x92e284cc
    9298:	04e29292 	.word	0x04e29292
    929c:	0000780c 	.word	0x0000780c
    92a0:	10000000 	.word	0x10000000
    92a4:	44282828 	.word	0x44282828
    92a8:	82c67c44 	.word	0x82c67c44
    92ac:	00000000 	.word	0x00000000
    92b0:	7e000000 	.word	0x7e000000
    92b4:	7e828282 	.word	0x7e828282
    92b8:	7e828282 	.word	0x7e828282
    92bc:	00000000 	.word	0x00000000
    92c0:	78000000 	.word	0x78000000
    92c4:	02020284 	.word	0x02020284
    92c8:	78840202 	.word	0x78840202
    92cc:	00000000 	.word	0x00000000
    92d0:	3e000000 	.word	0x3e000000
    92d4:	82828242 	.word	0x82828242
    92d8:	3e428282 	.word	0x3e428282
    92dc:	00000000 	.word	0x00000000
    92e0:	fe000000 	.word	0xfe000000
    92e4:	fe020202 	.word	0xfe020202
    92e8:	fe020202 	.word	0xfe020202
    92ec:	00000000 	.word	0x00000000
    92f0:	fe000000 	.word	0xfe000000
    92f4:	fe020202 	.word	0xfe020202
    92f8:	02020202 	.word	0x02020202
    92fc:	00000000 	.word	0x00000000
    9300:	78000000 	.word	0x78000000
    9304:	c2020284 	.word	0xc2020284
    9308:	78848282 	.word	0x78848282
    930c:	00000000 	.word	0x00000000
    9310:	82000000 	.word	0x82000000
    9314:	fe828282 	.word	0xfe828282
    9318:	82828282 	.word	0x82828282
    931c:	00000000 	.word	0x00000000
    9320:	3e000000 	.word	0x3e000000
    9324:	08080808 	.word	0x08080808
    9328:	3e080808 	.word	0x3e080808
    932c:	00000000 	.word	0x00000000
    9330:	38000000 	.word	0x38000000
    9334:	20202020 	.word	0x20202020
    9338:	1c222020 	.word	0x1c222020
    933c:	00000000 	.word	0x00000000
    9340:	42000000 	.word	0x42000000
    9344:	0e0a1222 	.word	0x0e0a1222
    9348:	42222212 	.word	0x42222212
    934c:	00000000 	.word	0x00000000
    9350:	02000000 	.word	0x02000000
    9354:	02020202 	.word	0x02020202
    9358:	fe020202 	.word	0xfe020202
    935c:	00000000 	.word	0x00000000
    9360:	c6000000 	.word	0xc6000000
    9364:	aaaaaac6 	.word	0xaaaaaac6
    9368:	82828292 	.word	0x82828292
    936c:	00000000 	.word	0x00000000
    9370:	86000000 	.word	0x86000000
    9374:	928a8a86 	.word	0x928a8a86
    9378:	c2c2a2a2 	.word	0xc2c2a2a2
    937c:	00000000 	.word	0x00000000
    9380:	38000000 	.word	0x38000000
    9384:	82828244 	.word	0x82828244
    9388:	38448282 	.word	0x38448282
    938c:	00000000 	.word	0x00000000
    9390:	7e000000 	.word	0x7e000000
    9394:	c28282c2 	.word	0xc28282c2
    9398:	0202027e 	.word	0x0202027e
    939c:	00000000 	.word	0x00000000
    93a0:	38000000 	.word	0x38000000
    93a4:	82828244 	.word	0x82828244
    93a8:	78448282 	.word	0x78448282
    93ac:	00004060 	.word	0x00004060
    93b0:	7e000000 	.word	0x7e000000
    93b4:	7e8282c2 	.word	0x7e8282c2
    93b8:	02828242 	.word	0x02828242
    93bc:	00000000 	.word	0x00000000
    93c0:	7c000000 	.word	0x7c000000
    93c4:	7c060286 	.word	0x7c060286
    93c8:	7dc280c0 	.word	0x7dc280c0
    93cc:	00000000 	.word	0x00000000
    93d0:	7f000000 	.word	0x7f000000
    93d4:	08080808 	.word	0x08080808
    93d8:	08080808 	.word	0x08080808
    93dc:	00000000 	.word	0x00000000
    93e0:	82000000 	.word	0x82000000
    93e4:	82828282 	.word	0x82828282
    93e8:	7c828282 	.word	0x7c828282
    93ec:	00000000 	.word	0x00000000
    93f0:	82000000 	.word	0x82000000
    93f4:	444444c6 	.word	0x444444c6
    93f8:	10282828 	.word	0x10282828
    93fc:	00000000 	.word	0x00000000
    9400:	81000000 	.word	0x81000000
    9404:	5a5a8181 	.word	0x5a5a8181
    9408:	6666665a 	.word	0x6666665a
    940c:	00000000 	.word	0x00000000
    9410:	c6000000 	.word	0xc6000000
    9414:	10382844 	.word	0x10382844
    9418:	82446c28 	.word	0x82446c28
    941c:	00000000 	.word	0x00000000
    9420:	41000000 	.word	0x41000000
    9424:	08141422 	.word	0x08141422
    9428:	08080808 	.word	0x08080808
    942c:	00000000 	.word	0x00000000
    9430:	fe000000 	.word	0xfe000000
    9434:	102060c0 	.word	0x102060c0
    9438:	fe060c08 	.word	0xfe060c08
    943c:	00000000 	.word	0x00000000
    9440:	08083800 	.word	0x08083800
    9444:	08080808 	.word	0x08080808
    9448:	08080808 	.word	0x08080808
    944c:	00000038 	.word	0x00000038
    9450:	02000000 	.word	0x02000000
    9454:	08080404 	.word	0x08080404
    9458:	20101018 	.word	0x20101018
    945c:	00004020 	.word	0x00004020
    9460:	10101c00 	.word	0x10101c00
    9464:	10101010 	.word	0x10101010
    9468:	10101010 	.word	0x10101010
    946c:	0000001c 	.word	0x0000001c
    9470:	08000000 	.word	0x08000000
    9474:	00632214 	.word	0x00632214
	...
    948c:	007f0000 	.word	0x007f0000
    9490:	10080000 	.word	0x10080000
	...
    94a4:	40443800 	.word	0x40443800
    94a8:	5c62427c 	.word	0x5c62427c
    94ac:	00000000 	.word	0x00000000
    94b0:	02020200 	.word	0x02020200
    94b4:	42663e02 	.word	0x42663e02
    94b8:	3e664242 	.word	0x3e664242
	...
    94c4:	02443800 	.word	0x02443800
    94c8:	38440202 	.word	0x38440202
    94cc:	00000000 	.word	0x00000000
    94d0:	40404000 	.word	0x40404000
    94d4:	42667c40 	.word	0x42667c40
    94d8:	7c664242 	.word	0x7c664242
	...
    94e4:	42663c00 	.word	0x42663c00
    94e8:	3c46027e 	.word	0x3c46027e
    94ec:	00000000 	.word	0x00000000
    94f0:	08083000 	.word	0x08083000
    94f4:	08083e08 	.word	0x08083e08
    94f8:	08080808 	.word	0x08080808
	...
    9504:	42667c00 	.word	0x42667c00
    9508:	5c664242 	.word	0x5c664242
    950c:	00384440 	.word	0x00384440
    9510:	02020200 	.word	0x02020200
    9514:	42463a02 	.word	0x42463a02
    9518:	42424242 	.word	0x42424242
    951c:	00000000 	.word	0x00000000
    9520:	00000800 	.word	0x00000800
    9524:	08080e00 	.word	0x08080e00
    9528:	3e080808 	.word	0x3e080808
    952c:	00000000 	.word	0x00000000
    9530:	00001000 	.word	0x00001000
    9534:	10101c00 	.word	0x10101c00
    9538:	10101010 	.word	0x10101010
    953c:	000e1010 	.word	0x000e1010
    9540:	02020200 	.word	0x02020200
    9544:	0a122202 	.word	0x0a122202
    9548:	4222120e 	.word	0x4222120e
    954c:	00000000 	.word	0x00000000
    9550:	08080e00 	.word	0x08080e00
    9554:	08080808 	.word	0x08080808
    9558:	70080808 	.word	0x70080808
	...
    9564:	9292fe00 	.word	0x9292fe00
    9568:	92929292 	.word	0x92929292
	...
    9574:	42463a00 	.word	0x42463a00
    9578:	42424242 	.word	0x42424242
	...
    9584:	42663c00 	.word	0x42663c00
    9588:	3c664242 	.word	0x3c664242
	...
    9594:	42663e00 	.word	0x42663e00
    9598:	3e664242 	.word	0x3e664242
    959c:	00020202 	.word	0x00020202
    95a0:	00000000 	.word	0x00000000
    95a4:	42667c00 	.word	0x42667c00
    95a8:	5c664242 	.word	0x5c664242
    95ac:	00404040 	.word	0x00404040
    95b0:	00000000 	.word	0x00000000
    95b4:	044c3c00 	.word	0x044c3c00
    95b8:	04040404 	.word	0x04040404
	...
    95c4:	02423c00 	.word	0x02423c00
    95c8:	3c42403c 	.word	0x3c42403c
    95cc:	00000000 	.word	0x00000000
    95d0:	08000000 	.word	0x08000000
    95d4:	08087e08 	.word	0x08087e08
    95d8:	70080808 	.word	0x70080808
	...
    95e4:	42424200 	.word	0x42424200
    95e8:	5c624242 	.word	0x5c624242
	...
    95f4:	24664200 	.word	0x24664200
    95f8:	18183c24 	.word	0x18183c24
	...
    9604:	5a818100 	.word	0x5a818100
    9608:	24245a5a 	.word	0x24245a5a
	...
    9614:	18246600 	.word	0x18246600
    9618:	66241818 	.word	0x66241818
	...
    9624:	24444200 	.word	0x24444200
    9628:	10182824 	.word	0x10182824
    962c:	000c0810 	.word	0x000c0810
    9630:	00000000 	.word	0x00000000
    9634:	20407e00 	.word	0x20407e00
    9638:	7e020418 	.word	0x7e020418
    963c:	00000000 	.word	0x00000000
    9640:	08083800 	.word	0x08083800
    9644:	08060808 	.word	0x08060808
    9648:	08080808 	.word	0x08080808
    964c:	00000030 	.word	0x00000030
    9650:	08080800 	.word	0x08080800
    9654:	08080808 	.word	0x08080808
    9658:	08080808 	.word	0x08080808
    965c:	00000808 	.word	0x00000808
    9660:	08080e00 	.word	0x08080e00
    9664:	08300808 	.word	0x08300808
    9668:	08080808 	.word	0x08080808
    966c:	00000006 	.word	0x00000006
    9670:	00000000 	.word	0x00000000
    9674:	9c000000 	.word	0x9c000000
    9678:	00000062 	.word	0x00000062
    967c:	00000000 	.word	0x00000000
    9680:	ffffffff 	.word	0xffffffff
    9684:	ffffffff 	.word	0xffffffff
    9688:	ffffffff 	.word	0xffffffff
    968c:	ffffffff 	.word	0xffffffff

00009690 <KeyboardUpdate>:
* Updates the keyboard pressed and released data.
* C++ Signature: void KeyboardUpdate();
*/
.globl KeyboardUpdate
KeyboardUpdate:
	push {r4,r5,lr}
    9690:	e92d4030 	push	{r4, r5, lr}

	kbd .req r4
	ldr r0,=KeyboardAddress
    9694:	e59f0128 	ldr	r0, [pc, #296]	; 97c4 <keyboardGetCharReturn$+0x4>
	ldr kbd,[r0]
    9698:	e5904000 	ldr	r4, [r0]
	
	teq kbd,#0
    969c:	e3340000 	teq	r4, #0
	bne haveKeyboard$
    96a0:	1a00000c 	bne	96d8 <haveKeyboard$>

000096a4 <getKeyboard$>:

getKeyboard$:
	bl UsbCheckForChange
    96a4:	eb000d1a 	bl	cb14 <UsbCheckForChange>
	bl KeyboardCount
    96a8:	eb00027a 	bl	a098 <KeyboardCount>
	teq r0,#0	
    96ac:	e3300000 	teq	r0, #0
	ldreq r1,=KeyboardAddress
    96b0:	059f110c 	ldreq	r1, [pc, #268]	; 97c4 <keyboardGetCharReturn$+0x4>
	streq r0,[r1]
    96b4:	05810000 	streq	r0, [r1]
	beq return$
    96b8:	0a000014 	beq	9710 <return$>

	mov r0,#0
    96bc:	e3a00000 	mov	r0, #0
	bl KeyboardGetAddress
    96c0:	eb000261 	bl	a04c <KeyboardGetAddress>
	ldr r1,=KeyboardAddress
    96c4:	e59f10f8 	ldr	r1, [pc, #248]	; 97c4 <keyboardGetCharReturn$+0x4>
	str r0,[r1]
    96c8:	e5810000 	str	r0, [r1]
	teq r0,#0
    96cc:	e3300000 	teq	r0, #0
	beq return$
    96d0:	0a00000e 	beq	9710 <return$>
	mov kbd,r0
    96d4:	e1a04000 	mov	r4, r0

000096d8 <haveKeyboard$>:

haveKeyboard$:
	mov r5,#0
    96d8:	e3a05000 	mov	r5, #0

000096dc <saveKeys$>:

	saveKeys$:
		mov r0,kbd
    96dc:	e1a00004 	mov	r0, r4
		mov r1,r5
    96e0:	e1a01005 	mov	r1, r5
		bl KeyboardGetKeyDown
    96e4:	eb00045d 	bl	a860 <KeyboardGetKeyDown>

		ldr r1,=KeyboardOldDown
    96e8:	e59f10d8 	ldr	r1, [pc, #216]	; 97c8 <keyboardGetCharReturn$+0x8>
		add r1,r5,lsl #1
    96ec:	e0811085 	add	r1, r1, r5, lsl #1
		strh r0,[r1]
    96f0:	e1c100b0 	strh	r0, [r1]
		add r5,#1
    96f4:	e2855001 	add	r5, r5, #1
		cmp r5,#6
    96f8:	e3550006 	cmp	r5, #6
		blt saveKeys$
    96fc:	bafffff6 	blt	96dc <saveKeys$>

	mov r0,kbd
    9700:	e1a00004 	mov	r0, r4
	bl KeyboardPoll
    9704:	eb00030a 	bl	a334 <KeyboardPoll>
	teq r0,#0
    9708:	e3300000 	teq	r0, #0
	bne getKeyboard$
    970c:	1affffe4 	bne	96a4 <getKeyboard$>

00009710 <return$>:

return$:
	pop {r4,r5,pc} 
    9710:	e8bd8030 	pop	{r4, r5, pc}

00009714 <KeyWasDown>:
* not 0 otherwise.
* C++ Signature bool KeyWasDown(u16 scanCode)
*/
.globl KeyWasDown
KeyWasDown:
	ldr r1,=KeyboardOldDown
    9714:	e59f10ac 	ldr	r1, [pc, #172]	; 97c8 <keyboardGetCharReturn$+0x8>
	mov r2,#0
    9718:	e3a02000 	mov	r2, #0

0000971c <keySearch$>:

	keySearch$:
		ldrh r3,[r1]
    971c:	e1d130b0 	ldrh	r3, [r1]
		teq r3,r0
    9720:	e1330000 	teq	r3, r0
		moveq r0,#1
    9724:	03a00001 	moveq	r0, #1
		moveq pc,lr
    9728:	01a0f00e 	moveq	pc, lr

		add r1,#2
    972c:	e2811002 	add	r1, r1, #2
		add r2,#1
    9730:	e2822001 	add	r2, r2, #1
		cmp r2,#6
    9734:	e3520006 	cmp	r2, #6
		blt keySearch$
    9738:	bafffff7 	blt	971c <keySearch$>

	mov r0,#0
    973c:	e3a00000 	mov	r0, #0
	mov pc,lr
    9740:	e1a0f00e 	mov	pc, lr

00009744 <KeyboardGetChar>:
* character was typed.
* C++ Signature char KeyboardGetChar()
*/
.globl KeyboardGetChar
KeyboardGetChar:	
	ldr r0,=KeyboardAddress
    9744:	e59f0078 	ldr	r0, [pc, #120]	; 97c4 <keyboardGetCharReturn$+0x4>
	ldr r1,[r0]
    9748:	e5901000 	ldr	r1, [r0]
	teq r1,#0
    974c:	e3310000 	teq	r1, #0
	moveq r0,#0
    9750:	03a00000 	moveq	r0, #0
	moveq pc,lr
    9754:	01a0f00e 	moveq	pc, lr

	push {r4,r5,r6,lr}
    9758:	e92d4070 	push	{r4, r5, r6, lr}
	
	kbd .req r4
	key .req r6

	mov r4,r1	
    975c:	e1a04001 	mov	r4, r1
	mov r5,#0
    9760:	e3a05000 	mov	r5, #0

00009764 <keyLoop$>:

	keyLoop$:
		mov r0,kbd
    9764:	e1a00004 	mov	r0, r4
		mov r1,r5
    9768:	e1a01005 	mov	r1, r5
		bl KeyboardGetKeyDown
    976c:	eb00043b 	bl	a860 <KeyboardGetKeyDown>

		teq r0,#0
    9770:	e3300000 	teq	r0, #0
		beq keyLoopBreak$
    9774:	0a000010 	beq	97bc <keyLoopBreak$>
		
		mov key,r0
    9778:	e1a06000 	mov	r6, r0
		bl KeyWasDown
    977c:	ebffffe4 	bl	9714 <KeyWasDown>
		teq r0,#0
    9780:	e3300000 	teq	r0, #0
		bne keyLoopContinue$
    9784:	1a000009 	bne	97b0 <keyLoopContinue$>

		cmp key,#104
    9788:	e3560068 	cmp	r6, #104	; 0x68
		bge keyLoopContinue$
    978c:	aa000007 	bge	97b0 <keyLoopContinue$>

		mov r0,kbd
    9790:	e1a00004 	mov	r0, r4
		bl KeyboardGetModifiers
    9794:	eb0003cd 	bl	a6d0 <KeyboardGetModifiers>

		tst r0,#0b00100010
    9798:	e3100022 	tst	r0, #34	; 0x22
		ldreq r0,=KeysNormal
    979c:	059f0028 	ldreq	r0, [pc, #40]	; 97cc <keyboardGetCharReturn$+0xc>
		ldrne r0,=KeysShift
    97a0:	159f0028 	ldrne	r0, [pc, #40]	; 97d0 <keyboardGetCharReturn$+0x10>

		ldrb r0,[r0,key]
    97a4:	e7d00006 	ldrb	r0, [r0, r6]
		teq r0,#0
    97a8:	e3300000 	teq	r0, #0
		bne keyboardGetCharReturn$
    97ac:	1a000003 	bne	97c0 <keyboardGetCharReturn$>

000097b0 <keyLoopContinue$>:

	keyLoopContinue$:
		add r5,#1
    97b0:	e2855001 	add	r5, r5, #1
		cmp r5,#6
    97b4:	e3550006 	cmp	r5, #6
		blt keyLoop$
    97b8:	baffffe9 	blt	9764 <keyLoop$>

000097bc <keyLoopBreak$>:
		
	keyLoopBreak$:
	mov r0,#0		
    97bc:	e3a00000 	mov	r0, #0

000097c0 <keyboardGetCharReturn$>:
keyboardGetCharReturn$:
	pop {r4,r5,r6,pc}
    97c0:	e8bd8070 	pop	{r4, r5, r6, pc}
.globl KeyboardUpdate
KeyboardUpdate:
	push {r4,r5,lr}

	kbd .req r4
	ldr r0,=KeyboardAddress
    97c4:	00016000 	.word	0x00016000
	saveKeys$:
		mov r0,kbd
		mov r1,r5
		bl KeyboardGetKeyDown

		ldr r1,=KeyboardOldDown
    97c8:	00016004 	.word	0x00016004

		mov r0,kbd
		bl KeyboardGetModifiers

		tst r0,#0b00100010
		ldreq r0,=KeysNormal
    97cc:	00016010 	.word	0x00016010
		ldrne r0,=KeysShift
    97d0:	00016078 	.word	0x00016078

000097d4 <KeyboardDetached>:
    97d4:	e5903414 	ldr	r3, [r0, #1044]	; 0x414
    97d8:	e5d32010 	ldrb	r2, [r3, #16]
    97dc:	e5d31011 	ldrb	r1, [r3, #17]
    97e0:	e5d3c012 	ldrb	ip, [r3, #18]
    97e4:	e1821401 	orr	r1, r2, r1, lsl #8
    97e8:	e5d32013 	ldrb	r2, [r3, #19]
    97ec:	e181380c 	orr	r3, r1, ip, lsl #16
    97f0:	e1933c02 	orrs	r3, r3, r2, lsl #24
    97f4:	012fff1e 	bxeq	lr
    97f8:	e5d31009 	ldrb	r1, [r3, #9]
    97fc:	e5d32008 	ldrb	r2, [r3, #8]
    9800:	e5d3c00a 	ldrb	ip, [r3, #10]
    9804:	e1822401 	orr	r2, r2, r1, lsl #8
    9808:	e5d3100b 	ldrb	r1, [r3, #11]
    980c:	e182280c 	orr	r2, r2, ip, lsl #16
    9810:	e59f3030 	ldr	r3, [pc, #48]	; 9848 <KeyboardDetached+0x74>
    9814:	e1822c01 	orr	r2, r2, r1, lsl #24
    9818:	e5901000 	ldr	r1, [r0]
    981c:	e7930102 	ldr	r0, [r3, r2, lsl #2]
    9820:	e1500001 	cmp	r0, r1
    9824:	112fff1e 	bxne	lr
    9828:	e593c010 	ldr	ip, [r3, #16]
    982c:	e59f0018 	ldr	r0, [pc, #24]	; 984c <KeyboardDetached+0x78>
    9830:	e3a01000 	mov	r1, #0
    9834:	e24cc001 	sub	ip, ip, #1
    9838:	e583c010 	str	ip, [r3, #16]
    983c:	e7801102 	str	r1, [r0, r2, lsl #2]
    9840:	e7831102 	str	r1, [r3, r2, lsl #2]
    9844:	e12fff1e 	bx	lr
    9848:	00016150 	.word	0x00016150
    984c:	000161b0 	.word	0x000161b0

00009850 <KeyboardDeallocate>:
    9850:	e5903414 	ldr	r3, [r0, #1044]	; 0x414
    9854:	e5d31011 	ldrb	r1, [r3, #17]
    9858:	e5d32010 	ldrb	r2, [r3, #16]
    985c:	e92d4010 	push	{r4, lr}
    9860:	e1a04000 	mov	r4, r0
    9864:	e5d30012 	ldrb	r0, [r3, #18]
    9868:	e1822401 	orr	r2, r2, r1, lsl #8
    986c:	e5d31013 	ldrb	r1, [r3, #19]
    9870:	e1822800 	orr	r2, r2, r0, lsl #16
    9874:	e1920c01 	orrs	r0, r2, r1, lsl #24
    9878:	0a000006 	beq	9898 <KeyboardDeallocate+0x48>
    987c:	eb000518 	bl	ace4 <MemoryDeallocate>
    9880:	e5943414 	ldr	r3, [r4, #1044]	; 0x414
    9884:	e3a02000 	mov	r2, #0
    9888:	e5c32010 	strb	r2, [r3, #16]
    988c:	e5c32011 	strb	r2, [r3, #17]
    9890:	e5c32012 	strb	r2, [r3, #18]
    9894:	e5c32013 	strb	r2, [r3, #19]
    9898:	e3a02000 	mov	r2, #0
    989c:	e5c32018 	strb	r2, [r3, #24]
    98a0:	e5c32019 	strb	r2, [r3, #25]
    98a4:	e5c3201a 	strb	r2, [r3, #26]
    98a8:	e5c3201b 	strb	r2, [r3, #27]
    98ac:	e5c32014 	strb	r2, [r3, #20]
    98b0:	e5c32015 	strb	r2, [r3, #21]
    98b4:	e5c32016 	strb	r2, [r3, #22]
    98b8:	e5c32017 	strb	r2, [r3, #23]
    98bc:	e8bd4010 	pop	{r4, lr}
    98c0:	e12fff1e 	bx	lr

000098c4 <KeyboardAttach>:
    98c4:	e92d4ff0 	push	{r4, r5, r6, r7, r8, r9, sl, fp, lr}
    98c8:	e59f7694 	ldr	r7, [pc, #1684]	; 9f64 <KeyboardAttach+0x6a0>
    98cc:	e5974010 	ldr	r4, [r7, #16]
    98d0:	e3540004 	cmp	r4, #4
    98d4:	e24dd014 	sub	sp, sp, #20
    98d8:	e1a06000 	mov	r6, r0
    98dc:	0a00018f 	beq	9f20 <KeyboardAttach+0x65c>
    98e0:	e5905414 	ldr	r5, [r0, #1044]	; 0x414
    98e4:	e5d51001 	ldrb	r1, [r5, #1]
    98e8:	e5d52000 	ldrb	r2, [r5]
    98ec:	e5d53002 	ldrb	r3, [r5, #2]
    98f0:	e1822401 	orr	r2, r2, r1, lsl #8
    98f4:	e5d51003 	ldrb	r1, [r5, #3]
    98f8:	e1822803 	orr	r2, r2, r3, lsl #16
    98fc:	e59f3664 	ldr	r3, [pc, #1636]	; 9f68 <KeyboardAttach+0x6a4>
    9900:	e1822c01 	orr	r2, r2, r1, lsl #24
    9904:	e1520003 	cmp	r2, r3
    9908:	1a000176 	bne	9ee8 <KeyboardAttach+0x624>
    990c:	e5d5300c 	ldrb	r3, [r5, #12]
    9910:	e5d5400d 	ldrb	r4, [r5, #13]
    9914:	e5d5200e 	ldrb	r2, [r5, #14]
    9918:	e1834404 	orr	r4, r3, r4, lsl #8
    991c:	e5d5300f 	ldrb	r3, [r5, #15]
    9920:	e1844802 	orr	r4, r4, r2, lsl #16
    9924:	e1844c03 	orr	r4, r4, r3, lsl #24
    9928:	e1d430b2 	ldrh	r3, [r4, #2]
    992c:	e3530001 	cmp	r3, #1
    9930:	8a000046 	bhi	9a50 <KeyboardAttach+0x18c>
    9934:	e1d430b0 	ldrh	r3, [r4]
    9938:	e3530006 	cmp	r3, #6
    993c:	1a000043 	bne	9a50 <KeyboardAttach+0x18c>
    9940:	e5d43004 	ldrb	r3, [r4, #4]
    9944:	e3530000 	cmp	r3, #0
    9948:	0a00016d 	beq	9f04 <KeyboardAttach+0x640>
    994c:	e59f2618 	ldr	r2, [pc, #1560]	; 9f6c <KeyboardAttach+0x6a8>
    9950:	e59f3618 	ldr	r3, [pc, #1560]	; 9f70 <KeyboardAttach+0x6ac>
    9954:	e1a09422 	lsr	r9, r2, #8
    9958:	e1a00823 	lsr	r0, r3, #16
    995c:	e1a01c23 	lsr	r1, r3, #24
    9960:	e1a08822 	lsr	r8, r2, #16
    9964:	e1a0ec22 	lsr	lr, r2, #24
    9968:	e1a0c423 	lsr	ip, r3, #8
    996c:	e5c52014 	strb	r2, [r5, #20]
    9970:	e5c53018 	strb	r3, [r5, #24]
    9974:	e5c5001a 	strb	r0, [r5, #26]
    9978:	e5c5101b 	strb	r1, [r5, #27]
    997c:	e5c59015 	strb	r9, [r5, #21]
    9980:	e5c58016 	strb	r8, [r5, #22]
    9984:	e5c5e017 	strb	lr, [r5, #23]
    9988:	e5c5c019 	strb	ip, [r5, #25]
    998c:	e3a0006a 	mov	r0, #106	; 0x6a
    9990:	eb0003d5 	bl	a8ec <MemoryAllocate>
    9994:	e1a03000 	mov	r3, r0
    9998:	e1a02c23 	lsr	r2, r3, #24
    999c:	e3500000 	cmp	r0, #0
    99a0:	e1a01823 	lsr	r1, r3, #16
    99a4:	e1a00420 	lsr	r0, r0, #8
    99a8:	e5c52013 	strb	r2, [r5, #19]
    99ac:	e5c53010 	strb	r3, [r5, #16]
    99b0:	e5c50011 	strb	r0, [r5, #17]
    99b4:	e5c51012 	strb	r1, [r5, #18]
    99b8:	e3a02000 	mov	r2, #0
    99bc:	0a000160 	beq	9f44 <KeyboardAttach+0x680>
    99c0:	e3a09030 	mov	r9, #48	; 0x30
    99c4:	e3a08044 	mov	r8, #68	; 0x44
    99c8:	e3a05042 	mov	r5, #66	; 0x42
    99cc:	e3a0c04b 	mov	ip, #75	; 0x4b
    99d0:	e3a0006a 	mov	r0, #106	; 0x6a
    99d4:	e3e01000 	mvn	r1, #0
    99d8:	e5c32005 	strb	r2, [r3, #5]
    99dc:	e5c32006 	strb	r2, [r3, #6]
    99e0:	e5c32007 	strb	r2, [r3, #7]
    99e4:	e5c39000 	strb	r9, [r3]
    99e8:	e5c38001 	strb	r8, [r3, #1]
    99ec:	e5c35002 	strb	r5, [r3, #2]
    99f0:	e5c3c003 	strb	ip, [r3, #3]
    99f4:	e5c30004 	strb	r0, [r3, #4]
    99f8:	e5c31008 	strb	r1, [r3, #8]
    99fc:	e5c31009 	strb	r1, [r3, #9]
    9a00:	e5c3100a 	strb	r1, [r3, #10]
    9a04:	e5c3100b 	strb	r1, [r3, #11]
    9a08:	e2471004 	sub	r1, r7, #4
    9a0c:	e5b1c004 	ldr	ip, [r1, #4]!
    9a10:	e35c0000 	cmp	ip, #0
    9a14:	0a00001c 	beq	9a8c <KeyboardAttach+0x1c8>
    9a18:	e2822001 	add	r2, r2, #1
    9a1c:	e3520004 	cmp	r2, #4
    9a20:	1afffff9 	bne	9a0c <KeyboardAttach+0x148>
    9a24:	e59f0548 	ldr	r0, [pc, #1352]	; 9f74 <KeyboardAttach+0x6b0>
    9a28:	e3a01048 	mov	r1, #72	; 0x48
    9a2c:	eb000754 	bl	b784 <LogPrint>
    9a30:	e1a00006 	mov	r0, r6
    9a34:	ebffff85 	bl	9850 <KeyboardDeallocate>
    9a38:	e3a000ff 	mov	r0, #255	; 0xff
    9a3c:	e1a00c00 	lsl	r0, r0, #24
    9a40:	e1a00c40 	asr	r0, r0, #24
    9a44:	e28dd014 	add	sp, sp, #20
    9a48:	e8bd4ff0 	pop	{r4, r5, r6, r7, r8, r9, sl, fp, lr}
    9a4c:	e12fff1e 	bx	lr
    9a50:	e1a00006 	mov	r0, r6
    9a54:	eb0007c5 	bl	b970 <UsbGetDescription>
    9a58:	e3a01001 	mov	r1, #1
    9a5c:	e1d430b2 	ldrh	r3, [r4, #2]
    9a60:	e58d1000 	str	r1, [sp]
    9a64:	e1d4c0b0 	ldrh	ip, [r4]
    9a68:	e3a01006 	mov	r1, #6
    9a6c:	e1a02000 	mov	r2, r0
    9a70:	e58d1008 	str	r1, [sp, #8]
    9a74:	e59f04fc 	ldr	r0, [pc, #1276]	; 9f78 <KeyboardAttach+0x6b4>
    9a78:	e58dc004 	str	ip, [sp, #4]
    9a7c:	e3a01041 	mov	r1, #65	; 0x41
    9a80:	eb0004f1 	bl	ae4c <LogPrintF>
    9a84:	e3a000fb 	mov	r0, #251	; 0xfb
    9a88:	eaffffeb 	b	9a3c <KeyboardAttach+0x178>
    9a8c:	e597b010 	ldr	fp, [r7, #16]
    9a90:	e5965000 	ldr	r5, [r6]
    9a94:	e59f04e0 	ldr	r0, [pc, #1248]	; 9f7c <KeyboardAttach+0x6b8>
    9a98:	e28bb001 	add	fp, fp, #1
    9a9c:	e1a0a422 	lsr	sl, r2, #8
    9aa0:	e1a09822 	lsr	r9, r2, #16
    9aa4:	e1a08c22 	lsr	r8, r2, #24
    9aa8:	e5c32008 	strb	r2, [r3, #8]
    9aac:	e5c3a009 	strb	sl, [r3, #9]
    9ab0:	e5c3900a 	strb	r9, [r3, #10]
    9ab4:	e5c3800b 	strb	r8, [r3, #11]
    9ab8:	e587b010 	str	fp, [r7, #16]
    9abc:	e5c3c010 	strb	ip, [r3, #16]
    9ac0:	e5c3c011 	strb	ip, [r3, #17]
    9ac4:	e5c3c012 	strb	ip, [r3, #18]
    9ac8:	e5c3c013 	strb	ip, [r3, #19]
    9acc:	e5c3c014 	strb	ip, [r3, #20]
    9ad0:	e5c3c015 	strb	ip, [r3, #21]
    9ad4:	e5c3c016 	strb	ip, [r3, #22]
    9ad8:	e5c3c017 	strb	ip, [r3, #23]
    9adc:	e5c3c018 	strb	ip, [r3, #24]
    9ae0:	e5c3c019 	strb	ip, [r3, #25]
    9ae4:	e5c3c01a 	strb	ip, [r3, #26]
    9ae8:	e5c3c01b 	strb	ip, [r3, #27]
    9aec:	e5c3c01c 	strb	ip, [r3, #28]
    9af0:	e5c3c01d 	strb	ip, [r3, #29]
    9af4:	e7875102 	str	r5, [r7, r2, lsl #2]
    9af8:	e7806102 	str	r6, [r0, r2, lsl #2]
    9afc:	e1a0100c 	mov	r1, ip
    9b00:	e281200e 	add	r2, r1, #14
    9b04:	e2811001 	add	r1, r1, #1
    9b08:	e0832102 	add	r2, r3, r2, lsl #2
    9b0c:	e3510009 	cmp	r1, #9
    9b10:	e5c2c006 	strb	ip, [r2, #6]
    9b14:	e5c2c007 	strb	ip, [r2, #7]
    9b18:	e5c2c008 	strb	ip, [r2, #8]
    9b1c:	e5c2c009 	strb	ip, [r2, #9]
    9b20:	1afffff6 	bne	9b00 <KeyboardAttach+0x23c>
    9b24:	e3a01000 	mov	r1, #0
    9b28:	e1a00001 	mov	r0, r1
    9b2c:	e2812006 	add	r2, r1, #6
    9b30:	e2811001 	add	r1, r1, #1
    9b34:	e0832102 	add	r2, r3, r2, lsl #2
    9b38:	e3510008 	cmp	r1, #8
    9b3c:	e5c20006 	strb	r0, [r2, #6]
    9b40:	e5c20007 	strb	r0, [r2, #7]
    9b44:	e5c20008 	strb	r0, [r2, #8]
    9b48:	e5c20009 	strb	r0, [r2, #9]
    9b4c:	e3a02000 	mov	r2, #0
    9b50:	1afffff5 	bne	9b2c <KeyboardAttach+0x268>
    9b54:	e5c32062 	strb	r2, [r3, #98]	; 0x62
    9b58:	e5c32063 	strb	r2, [r3, #99]	; 0x63
    9b5c:	e5c32064 	strb	r2, [r3, #100]	; 0x64
    9b60:	e5c32065 	strb	r2, [r3, #101]	; 0x65
    9b64:	e5c32066 	strb	r2, [r3, #102]	; 0x66
    9b68:	e5c32067 	strb	r2, [r3, #103]	; 0x67
    9b6c:	e5c32068 	strb	r2, [r3, #104]	; 0x68
    9b70:	e5c32069 	strb	r2, [r3, #105]	; 0x69
    9b74:	e5d45004 	ldrb	r5, [r4, #4]
    9b78:	e1550002 	cmp	r5, r2
    9b7c:	11a00002 	movne	r0, r2
    9b80:	11a01004 	movne	r1, r4
    9b84:	1a000006 	bne	9ba4 <KeyboardAttach+0x2e0>
    9b88:	ea000047 	b	9cac <KeyboardAttach+0x3e8>
    9b8c:	e35c0002 	cmp	ip, #2
    9b90:	0a000047 	beq	9cb4 <KeyboardAttach+0x3f0>
    9b94:	e2800001 	add	r0, r0, #1
    9b98:	e1550000 	cmp	r5, r0
    9b9c:	e2811004 	add	r1, r1, #4
    9ba0:	9a000041 	bls	9cac <KeyboardAttach+0x3e8>
    9ba4:	e5912008 	ldr	r2, [r1, #8]
    9ba8:	e5d2c003 	ldrb	ip, [r2, #3]
    9bac:	e35c0001 	cmp	ip, #1
    9bb0:	1afffff5 	bne	9b8c <KeyboardAttach+0x2c8>
    9bb4:	e5d36067 	ldrb	r6, [r3, #103]	; 0x67
    9bb8:	e5d3c066 	ldrb	ip, [r3, #102]	; 0x66
    9bbc:	e5d37068 	ldrb	r7, [r3, #104]	; 0x68
    9bc0:	e18cc406 	orr	ip, ip, r6, lsl #8
    9bc4:	e5d36069 	ldrb	r6, [r3, #105]	; 0x69
    9bc8:	e18cc807 	orr	ip, ip, r7, lsl #16
    9bcc:	e19ccc06 	orrs	ip, ip, r6, lsl #24
    9bd0:	1affffef 	bne	9b94 <KeyboardAttach+0x2d0>
    9bd4:	e1a06822 	lsr	r6, r2, #16
    9bd8:	e1a05c22 	lsr	r5, r2, #24
    9bdc:	e1a07422 	lsr	r7, r2, #8
    9be0:	e5c35069 	strb	r5, [r3, #105]	; 0x69
    9be4:	e5c32066 	strb	r2, [r3, #102]	; 0x66
    9be8:	e5c37067 	strb	r7, [r3, #103]	; 0x67
    9bec:	e5c36068 	strb	r6, [r3, #104]	; 0x68
    9bf0:	e5d26001 	ldrb	r6, [r2, #1]
    9bf4:	e3560000 	cmp	r6, #0
    9bf8:	1282500c 	addne	r5, r2, #12
    9bfc:	1a00000f 	bne	9c40 <KeyboardAttach+0x37c>
    9c00:	ea000024 	b	9c98 <KeyboardAttach+0x3d4>
    9c04:	e1d861b4 	ldrh	r6, [r8, #20]
    9c08:	e24660d2 	sub	r6, r6, #210	; 0xd2
    9c0c:	e0836106 	add	r6, r3, r6, lsl #2
    9c10:	e1a09425 	lsr	r9, r5, #8
    9c14:	e1a08825 	lsr	r8, r5, #16
    9c18:	e1a07c25 	lsr	r7, r5, #24
    9c1c:	e5c65006 	strb	r5, [r6, #6]
    9c20:	e5c69007 	strb	r9, [r6, #7]
    9c24:	e5c68008 	strb	r8, [r6, #8]
    9c28:	e5c67009 	strb	r7, [r6, #9]
    9c2c:	e5d26001 	ldrb	r6, [r2, #1]
    9c30:	e28cc001 	add	ip, ip, #1
    9c34:	e156000c 	cmp	r6, ip
    9c38:	e285502c 	add	r5, r5, #44	; 0x2c
    9c3c:	9a000015 	bls	9c98 <KeyboardAttach+0x3d4>
    9c40:	e08c810c 	add	r8, ip, ip, lsl #2
    9c44:	e08c8088 	add	r8, ip, r8, lsl #1
    9c48:	e0828108 	add	r8, r2, r8, lsl #2
    9c4c:	e1d871b6 	ldrh	r7, [r8, #22]
    9c50:	e3570007 	cmp	r7, #7
    9c54:	13570000 	cmpne	r7, #0
    9c58:	1afffff4 	bne	9c30 <KeyboardAttach+0x36c>
    9c5c:	e5d86010 	ldrb	r6, [r8, #16]
    9c60:	e3160002 	tst	r6, #2
    9c64:	1affffe6 	bne	9c04 <KeyboardAttach+0x340>
    9c68:	e1a06c25 	lsr	r6, r5, #24
    9c6c:	e1a08425 	lsr	r8, r5, #8
    9c70:	e1a07825 	lsr	r7, r5, #16
    9c74:	e5c3505e 	strb	r5, [r3, #94]	; 0x5e
    9c78:	e5c3805f 	strb	r8, [r3, #95]	; 0x5f
    9c7c:	e5c37060 	strb	r7, [r3, #96]	; 0x60
    9c80:	e5c36061 	strb	r6, [r3, #97]	; 0x61
    9c84:	e5d26001 	ldrb	r6, [r2, #1]
    9c88:	e28cc001 	add	ip, ip, #1
    9c8c:	e156000c 	cmp	r6, ip
    9c90:	e285502c 	add	r5, r5, #44	; 0x2c
    9c94:	8affffe9 	bhi	9c40 <KeyboardAttach+0x37c>
    9c98:	e5d45004 	ldrb	r5, [r4, #4]
    9c9c:	e2800001 	add	r0, r0, #1
    9ca0:	e1550000 	cmp	r5, r0
    9ca4:	e2811004 	add	r1, r1, #4
    9ca8:	8affffbd 	bhi	9ba4 <KeyboardAttach+0x2e0>
    9cac:	e3a00000 	mov	r0, #0
    9cb0:	eaffff61 	b	9a3c <KeyboardAttach+0x178>
    9cb4:	e5d36063 	ldrb	r6, [r3, #99]	; 0x63
    9cb8:	e5d3c062 	ldrb	ip, [r3, #98]	; 0x62
    9cbc:	e5d37064 	ldrb	r7, [r3, #100]	; 0x64
    9cc0:	e18cc406 	orr	ip, ip, r6, lsl #8
    9cc4:	e5d36065 	ldrb	r6, [r3, #101]	; 0x65
    9cc8:	e18cc807 	orr	ip, ip, r7, lsl #16
    9ccc:	e19ccc06 	orrs	ip, ip, r6, lsl #24
    9cd0:	1affffaf 	bne	9b94 <KeyboardAttach+0x2d0>
    9cd4:	e1a06822 	lsr	r6, r2, #16
    9cd8:	e1a05c22 	lsr	r5, r2, #24
    9cdc:	e1a07422 	lsr	r7, r2, #8
    9ce0:	e5c35065 	strb	r5, [r3, #101]	; 0x65
    9ce4:	e5c32062 	strb	r2, [r3, #98]	; 0x62
    9ce8:	e5c37063 	strb	r7, [r3, #99]	; 0x63
    9cec:	e5c36064 	strb	r6, [r3, #100]	; 0x64
    9cf0:	e5d26001 	ldrb	r6, [r2, #1]
    9cf4:	e3560000 	cmp	r6, #0
    9cf8:	1282500c 	addne	r5, r2, #12
    9cfc:	1a000004 	bne	9d14 <KeyboardAttach+0x450>
    9d00:	eaffffe4 	b	9c98 <KeyboardAttach+0x3d4>
    9d04:	e28cc001 	add	ip, ip, #1
    9d08:	e156000c 	cmp	r6, ip
    9d0c:	e285502c 	add	r5, r5, #44	; 0x2c
    9d10:	9affffe0 	bls	9c98 <KeyboardAttach+0x3d4>
    9d14:	e08c710c 	add	r7, ip, ip, lsl #2
    9d18:	e08c7087 	add	r7, ip, r7, lsl #1
    9d1c:	e0827107 	add	r7, r2, r7, lsl #2
    9d20:	e1d781b6 	ldrh	r8, [r7, #22]
    9d24:	e3580008 	cmp	r8, #8
    9d28:	e2877010 	add	r7, r7, #16
    9d2c:	1afffff4 	bne	9d04 <KeyboardAttach+0x440>
    9d30:	e1d770b4 	ldrh	r7, [r7, #4]
    9d34:	e2477001 	sub	r7, r7, #1
    9d38:	e3570008 	cmp	r7, #8
    9d3c:	979ff107 	ldrls	pc, [pc, r7, lsl #2]
    9d40:	eaffffef 	b	9d04 <KeyboardAttach+0x440>
    9d44:	00009eb8 	.word	0x00009eb8
    9d48:	00009e88 	.word	0x00009e88
    9d4c:	00009e58 	.word	0x00009e58
    9d50:	00009e28 	.word	0x00009e28
    9d54:	00009df8 	.word	0x00009df8
    9d58:	00009dc8 	.word	0x00009dc8
    9d5c:	00009d98 	.word	0x00009d98
    9d60:	00009d04 	.word	0x00009d04
    9d64:	00009d68 	.word	0x00009d68
    9d68:	e5d3901d 	ldrb	r9, [r3, #29]
    9d6c:	e1a06c25 	lsr	r6, r5, #24
    9d70:	e1a08425 	lsr	r8, r5, #8
    9d74:	e3899040 	orr	r9, r9, #64	; 0x40
    9d78:	e1a07825 	lsr	r7, r5, #16
    9d7c:	e5c3503a 	strb	r5, [r3, #58]	; 0x3a
    9d80:	e5c3901d 	strb	r9, [r3, #29]
    9d84:	e5c3803b 	strb	r8, [r3, #59]	; 0x3b
    9d88:	e5c3703c 	strb	r7, [r3, #60]	; 0x3c
    9d8c:	e5c3603d 	strb	r6, [r3, #61]	; 0x3d
    9d90:	e5d26001 	ldrb	r6, [r2, #1]
    9d94:	eaffffda 	b	9d04 <KeyboardAttach+0x440>
    9d98:	e5d3901d 	ldrb	r9, [r3, #29]
    9d9c:	e1a06c25 	lsr	r6, r5, #24
    9da0:	e1a08425 	lsr	r8, r5, #8
    9da4:	e3899080 	orr	r9, r9, #128	; 0x80
    9da8:	e1a07825 	lsr	r7, r5, #16
    9dac:	e5c35036 	strb	r5, [r3, #54]	; 0x36
    9db0:	e5c3901d 	strb	r9, [r3, #29]
    9db4:	e5c38037 	strb	r8, [r3, #55]	; 0x37
    9db8:	e5c37038 	strb	r7, [r3, #56]	; 0x38
    9dbc:	e5c36039 	strb	r6, [r3, #57]	; 0x39
    9dc0:	e5d26001 	ldrb	r6, [r2, #1]
    9dc4:	eaffffce 	b	9d04 <KeyboardAttach+0x440>
    9dc8:	e5d3901d 	ldrb	r9, [r3, #29]
    9dcc:	e1a06c25 	lsr	r6, r5, #24
    9dd0:	e1a08425 	lsr	r8, r5, #8
    9dd4:	e3899020 	orr	r9, r9, #32
    9dd8:	e1a07825 	lsr	r7, r5, #16
    9ddc:	e5c35032 	strb	r5, [r3, #50]	; 0x32
    9de0:	e5c3901d 	strb	r9, [r3, #29]
    9de4:	e5c38033 	strb	r8, [r3, #51]	; 0x33
    9de8:	e5c37034 	strb	r7, [r3, #52]	; 0x34
    9dec:	e5c36035 	strb	r6, [r3, #53]	; 0x35
    9df0:	e5d26001 	ldrb	r6, [r2, #1]
    9df4:	eaffffc2 	b	9d04 <KeyboardAttach+0x440>
    9df8:	e5d3901d 	ldrb	r9, [r3, #29]
    9dfc:	e1a06c25 	lsr	r6, r5, #24
    9e00:	e1a08425 	lsr	r8, r5, #8
    9e04:	e3899010 	orr	r9, r9, #16
    9e08:	e1a07825 	lsr	r7, r5, #16
    9e0c:	e5c3502e 	strb	r5, [r3, #46]	; 0x2e
    9e10:	e5c3901d 	strb	r9, [r3, #29]
    9e14:	e5c3802f 	strb	r8, [r3, #47]	; 0x2f
    9e18:	e5c37030 	strb	r7, [r3, #48]	; 0x30
    9e1c:	e5c36031 	strb	r6, [r3, #49]	; 0x31
    9e20:	e5d26001 	ldrb	r6, [r2, #1]
    9e24:	eaffffb6 	b	9d04 <KeyboardAttach+0x440>
    9e28:	e5d3901d 	ldrb	r9, [r3, #29]
    9e2c:	e1a06c25 	lsr	r6, r5, #24
    9e30:	e1a08425 	lsr	r8, r5, #8
    9e34:	e3899008 	orr	r9, r9, #8
    9e38:	e1a07825 	lsr	r7, r5, #16
    9e3c:	e5c3502a 	strb	r5, [r3, #42]	; 0x2a
    9e40:	e5c3901d 	strb	r9, [r3, #29]
    9e44:	e5c3802b 	strb	r8, [r3, #43]	; 0x2b
    9e48:	e5c3702c 	strb	r7, [r3, #44]	; 0x2c
    9e4c:	e5c3602d 	strb	r6, [r3, #45]	; 0x2d
    9e50:	e5d26001 	ldrb	r6, [r2, #1]
    9e54:	eaffffaa 	b	9d04 <KeyboardAttach+0x440>
    9e58:	e5d3901d 	ldrb	r9, [r3, #29]
    9e5c:	e1a06c25 	lsr	r6, r5, #24
    9e60:	e1a08425 	lsr	r8, r5, #8
    9e64:	e3899004 	orr	r9, r9, #4
    9e68:	e1a07825 	lsr	r7, r5, #16
    9e6c:	e5c35026 	strb	r5, [r3, #38]	; 0x26
    9e70:	e5c3901d 	strb	r9, [r3, #29]
    9e74:	e5c38027 	strb	r8, [r3, #39]	; 0x27
    9e78:	e5c37028 	strb	r7, [r3, #40]	; 0x28
    9e7c:	e5c36029 	strb	r6, [r3, #41]	; 0x29
    9e80:	e5d26001 	ldrb	r6, [r2, #1]
    9e84:	eaffff9e 	b	9d04 <KeyboardAttach+0x440>
    9e88:	e5d3901d 	ldrb	r9, [r3, #29]
    9e8c:	e1a06c25 	lsr	r6, r5, #24
    9e90:	e1a08425 	lsr	r8, r5, #8
    9e94:	e3899002 	orr	r9, r9, #2
    9e98:	e1a07825 	lsr	r7, r5, #16
    9e9c:	e5c35022 	strb	r5, [r3, #34]	; 0x22
    9ea0:	e5c3901d 	strb	r9, [r3, #29]
    9ea4:	e5c38023 	strb	r8, [r3, #35]	; 0x23
    9ea8:	e5c37024 	strb	r7, [r3, #36]	; 0x24
    9eac:	e5c36025 	strb	r6, [r3, #37]	; 0x25
    9eb0:	e5d26001 	ldrb	r6, [r2, #1]
    9eb4:	eaffff92 	b	9d04 <KeyboardAttach+0x440>
    9eb8:	e5d3901d 	ldrb	r9, [r3, #29]
    9ebc:	e1a06c25 	lsr	r6, r5, #24
    9ec0:	e1a08425 	lsr	r8, r5, #8
    9ec4:	e3899001 	orr	r9, r9, #1
    9ec8:	e1a07825 	lsr	r7, r5, #16
    9ecc:	e5c3501e 	strb	r5, [r3, #30]
    9ed0:	e5c3901d 	strb	r9, [r3, #29]
    9ed4:	e5c3801f 	strb	r8, [r3, #31]
    9ed8:	e5c37020 	strb	r7, [r3, #32]
    9edc:	e5c36021 	strb	r6, [r3, #33]	; 0x21
    9ee0:	e5d26001 	ldrb	r6, [r2, #1]
    9ee4:	eaffff86 	b	9d04 <KeyboardAttach+0x440>
    9ee8:	eb0006a0 	bl	b970 <UsbGetDescription>
    9eec:	e3a0104f 	mov	r1, #79	; 0x4f
    9ef0:	e1a02000 	mov	r2, r0
    9ef4:	e59f0084 	ldr	r0, [pc, #132]	; 9f80 <KeyboardAttach+0x6bc>
    9ef8:	eb0003d3 	bl	ae4c <LogPrintF>
    9efc:	e3a000fb 	mov	r0, #251	; 0xfb
    9f00:	eafffecd 	b	9a3c <KeyboardAttach+0x178>
    9f04:	eb000699 	bl	b970 <UsbGetDescription>
    9f08:	e3a01037 	mov	r1, #55	; 0x37
    9f0c:	e1a02000 	mov	r2, r0
    9f10:	e59f006c 	ldr	r0, [pc, #108]	; 9f84 <KeyboardAttach+0x6c0>
    9f14:	eb0003cc 	bl	ae4c <LogPrintF>
    9f18:	e3a000fb 	mov	r0, #251	; 0xfb
    9f1c:	eafffec6 	b	9a3c <KeyboardAttach+0x178>
    9f20:	eb000692 	bl	b970 <UsbGetDescription>
    9f24:	e5973010 	ldr	r3, [r7, #16]
    9f28:	e1a02000 	mov	r2, r0
    9f2c:	e58d4000 	str	r4, [sp]
    9f30:	e59f0050 	ldr	r0, [pc, #80]	; 9f88 <KeyboardAttach+0x6c4>
    9f34:	e3a0107e 	mov	r1, #126	; 0x7e
    9f38:	eb0003c3 	bl	ae4c <LogPrintF>
    9f3c:	e3a000fb 	mov	r0, #251	; 0xfb
    9f40:	eafffebd 	b	9a3c <KeyboardAttach+0x178>
    9f44:	e1a00006 	mov	r0, r6
    9f48:	eb000688 	bl	b970 <UsbGetDescription>
    9f4c:	e3a01031 	mov	r1, #49	; 0x31
    9f50:	e1a02000 	mov	r2, r0
    9f54:	e59f0030 	ldr	r0, [pc, #48]	; 9f8c <KeyboardAttach+0x6c8>
    9f58:	eb0003bb 	bl	ae4c <LogPrintF>
    9f5c:	e3a000f9 	mov	r0, #249	; 0xf9
    9f60:	eafffeb5 	b	9a3c <KeyboardAttach+0x178>
    9f64:	00016150 	.word	0x00016150
    9f68:	48494430 	.word	0x48494430
    9f6c:	000097d4 	.word	0x000097d4
    9f70:	00009850 	.word	0x00009850
    9f74:	00012b64 	.word	0x00012b64
    9f78:	00012ab4 	.word	0x00012ab4
    9f7c:	000161b0 	.word	0x000161b0
    9f80:	00012a64 	.word	0x00012a64
    9f84:	00012af8 	.word	0x00012af8
    9f88:	000129e4 	.word	0x000129e4
    9f8c:	00012b30 	.word	0x00012b30

00009f90 <KeyboardIndex.part.0>:
    9f90:	e59f204c 	ldr	r2, [pc, #76]	; 9fe4 <KeyboardIndex.part.0+0x54>
    9f94:	e592c010 	ldr	ip, [r2, #16]
    9f98:	e35c0000 	cmp	ip, #0
    9f9c:	0a00000a 	beq	9fcc <KeyboardIndex.part.0+0x3c>
    9fa0:	e5923000 	ldr	r3, [r2]
    9fa4:	e1530000 	cmp	r3, r0
    9fa8:	0a00000b 	beq	9fdc <KeyboardIndex.part.0+0x4c>
    9fac:	e3a03000 	mov	r3, #0
    9fb0:	ea000002 	b	9fc0 <KeyboardIndex.part.0+0x30>
    9fb4:	e5b21004 	ldr	r1, [r2, #4]!
    9fb8:	e1510000 	cmp	r1, r0
    9fbc:	0a000004 	beq	9fd4 <KeyboardIndex.part.0+0x44>
    9fc0:	e2833001 	add	r3, r3, #1
    9fc4:	e153000c 	cmp	r3, ip
    9fc8:	1afffff9 	bne	9fb4 <KeyboardIndex.part.0+0x24>
    9fcc:	e3e00000 	mvn	r0, #0
    9fd0:	e12fff1e 	bx	lr
    9fd4:	e1a00003 	mov	r0, r3
    9fd8:	e12fff1e 	bx	lr
    9fdc:	e3a00000 	mov	r0, #0
    9fe0:	e12fff1e 	bx	lr
    9fe4:	00016150 	.word	0x00016150

00009fe8 <KbdLoad>:
    9fe8:	e59f2038 	ldr	r2, [pc, #56]	; a028 <KbdLoad+0x40>
    9fec:	e59f1038 	ldr	r1, [pc, #56]	; a02c <KbdLoad+0x44>
    9ff0:	e59f0038 	ldr	r0, [pc, #56]	; a030 <KbdLoad+0x48>
    9ff4:	e59fc038 	ldr	ip, [pc, #56]	; a034 <KbdLoad+0x4c>
    9ff8:	e3a03000 	mov	r3, #0
    9ffc:	e5823010 	str	r3, [r2, #16]
    a000:	e5823000 	str	r3, [r2]
    a004:	e5823004 	str	r3, [r2, #4]
    a008:	e5823008 	str	r3, [r2, #8]
    a00c:	e582300c 	str	r3, [r2, #12]
    a010:	e5813000 	str	r3, [r1]
    a014:	e5813004 	str	r3, [r1, #4]
    a018:	e5813008 	str	r3, [r1, #8]
    a01c:	e581300c 	str	r3, [r1, #12]
    a020:	e580c018 	str	ip, [r0, #24]
    a024:	e12fff1e 	bx	lr
    a028:	00016150 	.word	0x00016150
    a02c:	000161b0 	.word	0x000161b0
    a030:	0001ae80 	.word	0x0001ae80
    a034:	000098c4 	.word	0x000098c4

0000a038 <KeyboardIndex>:
    a038:	e3500000 	cmp	r0, #0
    a03c:	1a000001 	bne	a048 <KeyboardIndex+0x10>
    a040:	e3e00000 	mvn	r0, #0
    a044:	e12fff1e 	bx	lr
    a048:	eaffffd0 	b	9f90 <KeyboardIndex.part.0>

0000a04c <KeyboardGetAddress>:
    a04c:	e59f2040 	ldr	r2, [pc, #64]	; a094 <KeyboardGetAddress+0x48>
    a050:	e5923010 	ldr	r3, [r2, #16]
    a054:	e1530000 	cmp	r3, r0
    a058:	3a000009 	bcc	a084 <KeyboardGetAddress+0x38>
    a05c:	e2423004 	sub	r3, r2, #4
    a060:	e282100c 	add	r1, r2, #12
    a064:	e5b32004 	ldr	r2, [r3, #4]!
    a068:	e3520000 	cmp	r2, #0
    a06c:	0a000002 	beq	a07c <KeyboardGetAddress+0x30>
    a070:	e3500000 	cmp	r0, #0
    a074:	e2400001 	sub	r0, r0, #1
    a078:	0a000003 	beq	a08c <KeyboardGetAddress+0x40>
    a07c:	e1530001 	cmp	r3, r1
    a080:	1afffff7 	bne	a064 <KeyboardGetAddress+0x18>
    a084:	e3a00000 	mov	r0, #0
    a088:	e12fff1e 	bx	lr
    a08c:	e1a00002 	mov	r0, r2
    a090:	e12fff1e 	bx	lr
    a094:	00016150 	.word	0x00016150

0000a098 <KeyboardCount>:
    a098:	e59f3004 	ldr	r3, [pc, #4]	; a0a4 <KeyboardCount+0xc>
    a09c:	e5930010 	ldr	r0, [r3, #16]
    a0a0:	e12fff1e 	bx	lr
    a0a4:	00016150 	.word	0x00016150

0000a0a8 <KeyboardSetLeds>:
    a0a8:	e3500000 	cmp	r0, #0
    a0ac:	e92d4010 	push	{r4, lr}
    a0b0:	e1a04001 	mov	r4, r1
    a0b4:	0a000076 	beq	a294 <KeyboardSetLeds+0x1ec>
    a0b8:	ebffffb4 	bl	9f90 <KeyboardIndex.part.0>
    a0bc:	e3700001 	cmn	r0, #1
    a0c0:	0a000073 	beq	a294 <KeyboardSetLeds+0x1ec>
    a0c4:	e59f3208 	ldr	r3, [pc, #520]	; a2d4 <KeyboardSetLeds+0x22c>
    a0c8:	e7930100 	ldr	r0, [r3, r0, lsl #2]
    a0cc:	e5902414 	ldr	r2, [r0, #1044]	; 0x414
    a0d0:	e5d23010 	ldrb	r3, [r2, #16]
    a0d4:	e5d2c011 	ldrb	ip, [r2, #17]
    a0d8:	e5d21012 	ldrb	r1, [r2, #18]
    a0dc:	e183340c 	orr	r3, r3, ip, lsl #8
    a0e0:	e5d22013 	ldrb	r2, [r2, #19]
    a0e4:	e1833801 	orr	r3, r3, r1, lsl #16
    a0e8:	e1833c02 	orr	r3, r3, r2, lsl #24
    a0ec:	e5d3201d 	ldrb	r2, [r3, #29]
    a0f0:	e3120001 	tst	r2, #1
    a0f4:	0a000009 	beq	a120 <KeyboardSetLeds+0x78>
    a0f8:	e5d3101f 	ldrb	r1, [r3, #31]
    a0fc:	e5d3201e 	ldrb	r2, [r3, #30]
    a100:	e5d3c020 	ldrb	ip, [r3, #32]
    a104:	e1822401 	orr	r2, r2, r1, lsl #8
    a108:	e5d31021 	ldrb	r1, [r3, #33]	; 0x21
    a10c:	e182280c 	orr	r2, r2, ip, lsl #16
    a110:	e1822c01 	orr	r2, r2, r1, lsl #24
    a114:	e2041001 	and	r1, r4, #1
    a118:	e5c21028 	strb	r1, [r2, #40]	; 0x28
    a11c:	e5d3201d 	ldrb	r2, [r3, #29]
    a120:	e3120002 	tst	r2, #2
    a124:	0a00000a 	beq	a154 <KeyboardSetLeds+0xac>
    a128:	e5d3c023 	ldrb	ip, [r3, #35]	; 0x23
    a12c:	e5d32022 	ldrb	r2, [r3, #34]	; 0x22
    a130:	e5d31024 	ldrb	r1, [r3, #36]	; 0x24
    a134:	e182240c 	orr	r2, r2, ip, lsl #8
    a138:	e5d3c025 	ldrb	ip, [r3, #37]	; 0x25
    a13c:	e1822801 	orr	r2, r2, r1, lsl #16
    a140:	e1a010a4 	lsr	r1, r4, #1
    a144:	e1822c0c 	orr	r2, r2, ip, lsl #24
    a148:	e2011001 	and	r1, r1, #1
    a14c:	e5c21028 	strb	r1, [r2, #40]	; 0x28
    a150:	e5d3201d 	ldrb	r2, [r3, #29]
    a154:	e3120004 	tst	r2, #4
    a158:	0a00000a 	beq	a188 <KeyboardSetLeds+0xe0>
    a15c:	e5d3c027 	ldrb	ip, [r3, #39]	; 0x27
    a160:	e5d32026 	ldrb	r2, [r3, #38]	; 0x26
    a164:	e5d31028 	ldrb	r1, [r3, #40]	; 0x28
    a168:	e182240c 	orr	r2, r2, ip, lsl #8
    a16c:	e5d3c029 	ldrb	ip, [r3, #41]	; 0x29
    a170:	e1822801 	orr	r2, r2, r1, lsl #16
    a174:	e1a01124 	lsr	r1, r4, #2
    a178:	e1822c0c 	orr	r2, r2, ip, lsl #24
    a17c:	e2011001 	and	r1, r1, #1
    a180:	e5c21028 	strb	r1, [r2, #40]	; 0x28
    a184:	e5d3201d 	ldrb	r2, [r3, #29]
    a188:	e3120008 	tst	r2, #8
    a18c:	0a00000a 	beq	a1bc <KeyboardSetLeds+0x114>
    a190:	e5d3c02b 	ldrb	ip, [r3, #43]	; 0x2b
    a194:	e5d3202a 	ldrb	r2, [r3, #42]	; 0x2a
    a198:	e5d3102c 	ldrb	r1, [r3, #44]	; 0x2c
    a19c:	e182240c 	orr	r2, r2, ip, lsl #8
    a1a0:	e5d3c02d 	ldrb	ip, [r3, #45]	; 0x2d
    a1a4:	e1822801 	orr	r2, r2, r1, lsl #16
    a1a8:	e1a011a4 	lsr	r1, r4, #3
    a1ac:	e1822c0c 	orr	r2, r2, ip, lsl #24
    a1b0:	e2011001 	and	r1, r1, #1
    a1b4:	e5c21028 	strb	r1, [r2, #40]	; 0x28
    a1b8:	e5d3201d 	ldrb	r2, [r3, #29]
    a1bc:	e3120010 	tst	r2, #16
    a1c0:	0a00000a 	beq	a1f0 <KeyboardSetLeds+0x148>
    a1c4:	e5d3c02f 	ldrb	ip, [r3, #47]	; 0x2f
    a1c8:	e5d3202e 	ldrb	r2, [r3, #46]	; 0x2e
    a1cc:	e5d31030 	ldrb	r1, [r3, #48]	; 0x30
    a1d0:	e182240c 	orr	r2, r2, ip, lsl #8
    a1d4:	e5d3c031 	ldrb	ip, [r3, #49]	; 0x31
    a1d8:	e1822801 	orr	r2, r2, r1, lsl #16
    a1dc:	e1a01224 	lsr	r1, r4, #4
    a1e0:	e1822c0c 	orr	r2, r2, ip, lsl #24
    a1e4:	e2011001 	and	r1, r1, #1
    a1e8:	e5c21028 	strb	r1, [r2, #40]	; 0x28
    a1ec:	e5d3201d 	ldrb	r2, [r3, #29]
    a1f0:	e3120020 	tst	r2, #32
    a1f4:	0a00000a 	beq	a224 <KeyboardSetLeds+0x17c>
    a1f8:	e5d3c033 	ldrb	ip, [r3, #51]	; 0x33
    a1fc:	e5d32032 	ldrb	r2, [r3, #50]	; 0x32
    a200:	e5d31034 	ldrb	r1, [r3, #52]	; 0x34
    a204:	e182240c 	orr	r2, r2, ip, lsl #8
    a208:	e5d3c035 	ldrb	ip, [r3, #53]	; 0x35
    a20c:	e1822801 	orr	r2, r2, r1, lsl #16
    a210:	e1a012a4 	lsr	r1, r4, #5
    a214:	e1822c0c 	orr	r2, r2, ip, lsl #24
    a218:	e2011001 	and	r1, r1, #1
    a21c:	e5c21028 	strb	r1, [r2, #40]	; 0x28
    a220:	e5d3201d 	ldrb	r2, [r3, #29]
    a224:	e1b013a2 	lsrs	r1, r2, #7
    a228:	0a00000a 	beq	a258 <KeyboardSetLeds+0x1b0>
    a22c:	e5d3c037 	ldrb	ip, [r3, #55]	; 0x37
    a230:	e5d32036 	ldrb	r2, [r3, #54]	; 0x36
    a234:	e5d31038 	ldrb	r1, [r3, #56]	; 0x38
    a238:	e182240c 	orr	r2, r2, ip, lsl #8
    a23c:	e5d3c039 	ldrb	ip, [r3, #57]	; 0x39
    a240:	e1822801 	orr	r2, r2, r1, lsl #16
    a244:	e20410ff 	and	r1, r4, #255	; 0xff
    a248:	e1822c0c 	orr	r2, r2, ip, lsl #24
    a24c:	e1a013a1 	lsr	r1, r1, #7
    a250:	e5c21028 	strb	r1, [r2, #40]	; 0x28
    a254:	e5d3201d 	ldrb	r2, [r3, #29]
    a258:	e3120040 	tst	r2, #64	; 0x40
    a25c:	1a000011 	bne	a2a8 <KeyboardSetLeds+0x200>
    a260:	e5d32062 	ldrb	r2, [r3, #98]	; 0x62
    a264:	e5d31063 	ldrb	r1, [r3, #99]	; 0x63
    a268:	e5d3c064 	ldrb	ip, [r3, #100]	; 0x64
    a26c:	e1821401 	orr	r1, r2, r1, lsl #8
    a270:	e5d32065 	ldrb	r2, [r3, #101]	; 0x65
    a274:	e181380c 	orr	r3, r1, ip, lsl #16
    a278:	e1833c02 	orr	r3, r3, r2, lsl #24
    a27c:	e5d31000 	ldrb	r1, [r3]
    a280:	eb001391 	bl	f0cc <HidWriteDevice>
    a284:	e1a00c00 	lsl	r0, r0, #24
    a288:	e1a00c40 	asr	r0, r0, #24
    a28c:	e8bd4010 	pop	{r4, lr}
    a290:	e12fff1e 	bx	lr
    a294:	e3a000f7 	mov	r0, #247	; 0xf7
    a298:	e1a00c00 	lsl	r0, r0, #24
    a29c:	e1a00c40 	asr	r0, r0, #24
    a2a0:	e8bd4010 	pop	{r4, lr}
    a2a4:	e12fff1e 	bx	lr
    a2a8:	e5d3103b 	ldrb	r1, [r3, #59]	; 0x3b
    a2ac:	e5d3203a 	ldrb	r2, [r3, #58]	; 0x3a
    a2b0:	e5d3c03c 	ldrb	ip, [r3, #60]	; 0x3c
    a2b4:	e1822401 	orr	r2, r2, r1, lsl #8
    a2b8:	e5d3103d 	ldrb	r1, [r3, #61]	; 0x3d
    a2bc:	e1a04324 	lsr	r4, r4, #6
    a2c0:	e182280c 	orr	r2, r2, ip, lsl #16
    a2c4:	e2044001 	and	r4, r4, #1
    a2c8:	e1822c01 	orr	r2, r2, r1, lsl #24
    a2cc:	e5c24028 	strb	r4, [r2, #40]	; 0x28
    a2d0:	eaffffe2 	b	a260 <KeyboardSetLeds+0x1b8>
    a2d4:	000161b0 	.word	0x000161b0

0000a2d8 <KeyboardGetLedSupport>:
    a2d8:	e3500000 	cmp	r0, #0
    a2dc:	e92d4008 	push	{r3, lr}
    a2e0:	1a000002 	bne	a2f0 <KeyboardGetLedSupport+0x18>
    a2e4:	e3a00000 	mov	r0, #0
    a2e8:	e8bd4008 	pop	{r3, lr}
    a2ec:	e12fff1e 	bx	lr
    a2f0:	ebffff26 	bl	9f90 <KeyboardIndex.part.0>
    a2f4:	e3700001 	cmn	r0, #1
    a2f8:	0afffff9 	beq	a2e4 <KeyboardGetLedSupport+0xc>
    a2fc:	e59f302c 	ldr	r3, [pc, #44]	; a330 <KeyboardGetLedSupport+0x58>
    a300:	e7933100 	ldr	r3, [r3, r0, lsl #2]
    a304:	e5933414 	ldr	r3, [r3, #1044]	; 0x414
    a308:	e5d32010 	ldrb	r2, [r3, #16]
    a30c:	e5d31011 	ldrb	r1, [r3, #17]
    a310:	e5d30012 	ldrb	r0, [r3, #18]
    a314:	e1821401 	orr	r1, r2, r1, lsl #8
    a318:	e5d32013 	ldrb	r2, [r3, #19]
    a31c:	e1813800 	orr	r3, r1, r0, lsl #16
    a320:	e1833c02 	orr	r3, r3, r2, lsl #24
    a324:	e5d3001d 	ldrb	r0, [r3, #29]
    a328:	e8bd4008 	pop	{r3, lr}
    a32c:	e12fff1e 	bx	lr
    a330:	000161b0 	.word	0x000161b0

0000a334 <KeyboardPoll>:
    a334:	e3500000 	cmp	r0, #0
    a338:	e92d40f8 	push	{r3, r4, r5, r6, r7, lr}
    a33c:	0a0000ce 	beq	a67c <KeyboardPoll+0x348>
    a340:	ebffff12 	bl	9f90 <KeyboardIndex.part.0>
    a344:	e3700001 	cmn	r0, #1
    a348:	e1a05000 	mov	r5, r0
    a34c:	0a0000ca 	beq	a67c <KeyboardPoll+0x348>
    a350:	e59f6370 	ldr	r6, [pc, #880]	; a6c8 <KeyboardPoll+0x394>
    a354:	e7960100 	ldr	r0, [r6, r0, lsl #2]
    a358:	e5903414 	ldr	r3, [r0, #1044]	; 0x414
    a35c:	e5d31010 	ldrb	r1, [r3, #16]
    a360:	e5d34011 	ldrb	r4, [r3, #17]
    a364:	e5d32012 	ldrb	r2, [r3, #18]
    a368:	e1814404 	orr	r4, r1, r4, lsl #8
    a36c:	e5d33013 	ldrb	r3, [r3, #19]
    a370:	e1844802 	orr	r4, r4, r2, lsl #16
    a374:	e1844c03 	orr	r4, r4, r3, lsl #24
    a378:	e5d42067 	ldrb	r2, [r4, #103]	; 0x67
    a37c:	e5d43066 	ldrb	r3, [r4, #102]	; 0x66
    a380:	e5d41068 	ldrb	r1, [r4, #104]	; 0x68
    a384:	e1833402 	orr	r3, r3, r2, lsl #8
    a388:	e5d42069 	ldrb	r2, [r4, #105]	; 0x69
    a38c:	e1833801 	orr	r3, r3, r1, lsl #16
    a390:	e1833c02 	orr	r3, r3, r2, lsl #24
    a394:	e5d31000 	ldrb	r1, [r3]
    a398:	eb0012c5 	bl	eeb4 <HidReadDevice>
    a39c:	e2507000 	subs	r7, r0, #0
    a3a0:	1a0000ba 	bne	a690 <KeyboardPoll+0x35c>
    a3a4:	e5d4203f 	ldrb	r2, [r4, #63]	; 0x3f
    a3a8:	e5d4303e 	ldrb	r3, [r4, #62]	; 0x3e
    a3ac:	e5d41040 	ldrb	r1, [r4, #64]	; 0x40
    a3b0:	e1833402 	orr	r3, r3, r2, lsl #8
    a3b4:	e5d42041 	ldrb	r2, [r4, #65]	; 0x41
    a3b8:	e1833801 	orr	r3, r3, r1, lsl #16
    a3bc:	e1933c02 	orrs	r3, r3, r2, lsl #24
    a3c0:	0a000005 	beq	a3dc <KeyboardPoll+0xa8>
    a3c4:	e5d32028 	ldrb	r2, [r3, #40]	; 0x28
    a3c8:	e5d4301c 	ldrb	r3, [r4, #28]
    a3cc:	e2022001 	and	r2, r2, #1
    a3d0:	e3c33001 	bic	r3, r3, #1
    a3d4:	e1823003 	orr	r3, r2, r3
    a3d8:	e5c4301c 	strb	r3, [r4, #28]
    a3dc:	e5d42043 	ldrb	r2, [r4, #67]	; 0x43
    a3e0:	e5d43042 	ldrb	r3, [r4, #66]	; 0x42
    a3e4:	e5d41044 	ldrb	r1, [r4, #68]	; 0x44
    a3e8:	e1833402 	orr	r3, r3, r2, lsl #8
    a3ec:	e5d42045 	ldrb	r2, [r4, #69]	; 0x45
    a3f0:	e1833801 	orr	r3, r3, r1, lsl #16
    a3f4:	e1933c02 	orrs	r3, r3, r2, lsl #24
    a3f8:	0a000005 	beq	a414 <KeyboardPoll+0xe0>
    a3fc:	e5d32028 	ldrb	r2, [r3, #40]	; 0x28
    a400:	e5d4301c 	ldrb	r3, [r4, #28]
    a404:	e2022001 	and	r2, r2, #1
    a408:	e3c33002 	bic	r3, r3, #2
    a40c:	e1833082 	orr	r3, r3, r2, lsl #1
    a410:	e5c4301c 	strb	r3, [r4, #28]
    a414:	e5d42047 	ldrb	r2, [r4, #71]	; 0x47
    a418:	e5d43046 	ldrb	r3, [r4, #70]	; 0x46
    a41c:	e5d41048 	ldrb	r1, [r4, #72]	; 0x48
    a420:	e1833402 	orr	r3, r3, r2, lsl #8
    a424:	e5d42049 	ldrb	r2, [r4, #73]	; 0x49
    a428:	e1833801 	orr	r3, r3, r1, lsl #16
    a42c:	e1933c02 	orrs	r3, r3, r2, lsl #24
    a430:	0a000005 	beq	a44c <KeyboardPoll+0x118>
    a434:	e5d32028 	ldrb	r2, [r3, #40]	; 0x28
    a438:	e5d4301c 	ldrb	r3, [r4, #28]
    a43c:	e2022001 	and	r2, r2, #1
    a440:	e3c33004 	bic	r3, r3, #4
    a444:	e1833102 	orr	r3, r3, r2, lsl #2
    a448:	e5c4301c 	strb	r3, [r4, #28]
    a44c:	e5d4204b 	ldrb	r2, [r4, #75]	; 0x4b
    a450:	e5d4304a 	ldrb	r3, [r4, #74]	; 0x4a
    a454:	e5d4104c 	ldrb	r1, [r4, #76]	; 0x4c
    a458:	e1833402 	orr	r3, r3, r2, lsl #8
    a45c:	e5d4204d 	ldrb	r2, [r4, #77]	; 0x4d
    a460:	e1833801 	orr	r3, r3, r1, lsl #16
    a464:	e1933c02 	orrs	r3, r3, r2, lsl #24
    a468:	0a000005 	beq	a484 <KeyboardPoll+0x150>
    a46c:	e5d32028 	ldrb	r2, [r3, #40]	; 0x28
    a470:	e5d4301c 	ldrb	r3, [r4, #28]
    a474:	e2022001 	and	r2, r2, #1
    a478:	e3c33008 	bic	r3, r3, #8
    a47c:	e1833182 	orr	r3, r3, r2, lsl #3
    a480:	e5c4301c 	strb	r3, [r4, #28]
    a484:	e5d4204f 	ldrb	r2, [r4, #79]	; 0x4f
    a488:	e5d4304e 	ldrb	r3, [r4, #78]	; 0x4e
    a48c:	e5d41050 	ldrb	r1, [r4, #80]	; 0x50
    a490:	e1833402 	orr	r3, r3, r2, lsl #8
    a494:	e5d42051 	ldrb	r2, [r4, #81]	; 0x51
    a498:	e1833801 	orr	r3, r3, r1, lsl #16
    a49c:	e1933c02 	orrs	r3, r3, r2, lsl #24
    a4a0:	0a000005 	beq	a4bc <KeyboardPoll+0x188>
    a4a4:	e5d32028 	ldrb	r2, [r3, #40]	; 0x28
    a4a8:	e5d4301c 	ldrb	r3, [r4, #28]
    a4ac:	e2022001 	and	r2, r2, #1
    a4b0:	e3c33010 	bic	r3, r3, #16
    a4b4:	e1833202 	orr	r3, r3, r2, lsl #4
    a4b8:	e5c4301c 	strb	r3, [r4, #28]
    a4bc:	e5d42053 	ldrb	r2, [r4, #83]	; 0x53
    a4c0:	e5d43052 	ldrb	r3, [r4, #82]	; 0x52
    a4c4:	e5d41054 	ldrb	r1, [r4, #84]	; 0x54
    a4c8:	e1833402 	orr	r3, r3, r2, lsl #8
    a4cc:	e5d42055 	ldrb	r2, [r4, #85]	; 0x55
    a4d0:	e1833801 	orr	r3, r3, r1, lsl #16
    a4d4:	e1933c02 	orrs	r3, r3, r2, lsl #24
    a4d8:	0a000005 	beq	a4f4 <KeyboardPoll+0x1c0>
    a4dc:	e5d32028 	ldrb	r2, [r3, #40]	; 0x28
    a4e0:	e5d4301c 	ldrb	r3, [r4, #28]
    a4e4:	e2022001 	and	r2, r2, #1
    a4e8:	e3c33020 	bic	r3, r3, #32
    a4ec:	e1833282 	orr	r3, r3, r2, lsl #5
    a4f0:	e5c4301c 	strb	r3, [r4, #28]
    a4f4:	e5d42057 	ldrb	r2, [r4, #87]	; 0x57
    a4f8:	e5d43056 	ldrb	r3, [r4, #86]	; 0x56
    a4fc:	e5d41058 	ldrb	r1, [r4, #88]	; 0x58
    a500:	e1833402 	orr	r3, r3, r2, lsl #8
    a504:	e5d42059 	ldrb	r2, [r4, #89]	; 0x59
    a508:	e1833801 	orr	r3, r3, r1, lsl #16
    a50c:	e1933c02 	orrs	r3, r3, r2, lsl #24
    a510:	0a000005 	beq	a52c <KeyboardPoll+0x1f8>
    a514:	e5d32028 	ldrb	r2, [r3, #40]	; 0x28
    a518:	e5d4301c 	ldrb	r3, [r4, #28]
    a51c:	e2022001 	and	r2, r2, #1
    a520:	e3c33040 	bic	r3, r3, #64	; 0x40
    a524:	e1833302 	orr	r3, r3, r2, lsl #6
    a528:	e5c4301c 	strb	r3, [r4, #28]
    a52c:	e5d4205b 	ldrb	r2, [r4, #91]	; 0x5b
    a530:	e5d4305a 	ldrb	r3, [r4, #90]	; 0x5a
    a534:	e5d4105c 	ldrb	r1, [r4, #92]	; 0x5c
    a538:	e1833402 	orr	r3, r3, r2, lsl #8
    a53c:	e5d4205d 	ldrb	r2, [r4, #93]	; 0x5d
    a540:	e1833801 	orr	r3, r3, r1, lsl #16
    a544:	e1933c02 	orrs	r3, r3, r2, lsl #24
    a548:	0a000005 	beq	a564 <KeyboardPoll+0x230>
    a54c:	e5d32028 	ldrb	r2, [r3, #40]	; 0x28
    a550:	e5d4301c 	ldrb	r3, [r4, #28]
    a554:	e2022001 	and	r2, r2, #1
    a558:	e3c33080 	bic	r3, r3, #128	; 0x80
    a55c:	e1833382 	orr	r3, r3, r2, lsl #7
    a560:	e5c4301c 	strb	r3, [r4, #28]
    a564:	e5d4305e 	ldrb	r3, [r4, #94]	; 0x5e
    a568:	e5d4105f 	ldrb	r1, [r4, #95]	; 0x5f
    a56c:	e5d42060 	ldrb	r2, [r4, #96]	; 0x60
    a570:	e1833401 	orr	r3, r3, r1, lsl #8
    a574:	e5d40061 	ldrb	r0, [r4, #97]	; 0x61
    a578:	e1833802 	orr	r3, r3, r2, lsl #16
    a57c:	e1930c00 	orrs	r0, r3, r0, lsl #24
    a580:	0a000038 	beq	a668 <KeyboardPoll+0x334>
    a584:	e3a01000 	mov	r1, #0
    a588:	eb001595 	bl	fbe4 <HidGetFieldValue>
    a58c:	e3500001 	cmp	r0, #1
    a590:	0a000034 	beq	a668 <KeyboardPoll+0x334>
    a594:	e5d4205f 	ldrb	r2, [r4, #95]	; 0x5f
    a598:	e5d4305e 	ldrb	r3, [r4, #94]	; 0x5e
    a59c:	e5d41060 	ldrb	r1, [r4, #96]	; 0x60
    a5a0:	e3a05000 	mov	r5, #0
    a5a4:	e1833402 	orr	r3, r3, r2, lsl #8
    a5a8:	e5d42061 	ldrb	r2, [r4, #97]	; 0x61
    a5ac:	e1833801 	orr	r3, r3, r1, lsl #16
    a5b0:	e5c4500c 	strb	r5, [r4, #12]
    a5b4:	e5c4500d 	strb	r5, [r4, #13]
    a5b8:	e5c4500e 	strb	r5, [r4, #14]
    a5bc:	e5c4500f 	strb	r5, [r4, #15]
    a5c0:	e1833c02 	orr	r3, r3, r2, lsl #24
    a5c4:	e1a00003 	mov	r0, r3
    a5c8:	e5d33002 	ldrb	r3, [r3, #2]
    a5cc:	e1530005 	cmp	r3, r5
    a5d0:	e1a01005 	mov	r1, r5
    a5d4:	9a000023 	bls	a668 <KeyboardPoll+0x334>
    a5d8:	eb001581 	bl	fbe4 <HidGetFieldValue>
    a5dc:	e2853008 	add	r3, r5, #8
    a5e0:	e1a00800 	lsl	r0, r0, #16
    a5e4:	e1a02820 	lsr	r2, r0, #16
    a5e8:	e0841083 	add	r1, r4, r3, lsl #1
    a5ec:	e1a00c20 	lsr	r0, r0, #24
    a5f0:	e7c42083 	strb	r2, [r4, r3, lsl #1]
    a5f4:	e5c10001 	strb	r0, [r1, #1]
    a5f8:	e5d4105f 	ldrb	r1, [r4, #95]	; 0x5f
    a5fc:	e5d4305e 	ldrb	r3, [r4, #94]	; 0x5e
    a600:	e5d40060 	ldrb	r0, [r4, #96]	; 0x60
    a604:	e1833401 	orr	r3, r3, r1, lsl #8
    a608:	e5d41061 	ldrb	r1, [r4, #97]	; 0x61
    a60c:	e1833800 	orr	r3, r3, r0, lsl #16
    a610:	e1833c01 	orr	r3, r3, r1, lsl #24
    a614:	e1d310b8 	ldrh	r1, [r3, #8]
    a618:	e1720001 	cmn	r2, r1
    a61c:	e2855001 	add	r5, r5, #1
    a620:	0a00000e 	beq	a660 <KeyboardPoll+0x32c>
    a624:	e5d4100d 	ldrb	r1, [r4, #13]
    a628:	e5d4200c 	ldrb	r2, [r4, #12]
    a62c:	e5d4000e 	ldrb	r0, [r4, #14]
    a630:	e1822401 	orr	r2, r2, r1, lsl #8
    a634:	e5d4100f 	ldrb	r1, [r4, #15]
    a638:	e1822800 	orr	r2, r2, r0, lsl #16
    a63c:	e1822c01 	orr	r2, r2, r1, lsl #24
    a640:	e2822001 	add	r2, r2, #1
    a644:	e1a0c422 	lsr	ip, r2, #8
    a648:	e1a00822 	lsr	r0, r2, #16
    a64c:	e1a01c22 	lsr	r1, r2, #24
    a650:	e5c4200c 	strb	r2, [r4, #12]
    a654:	e5c4c00d 	strb	ip, [r4, #13]
    a658:	e5c4000e 	strb	r0, [r4, #14]
    a65c:	e5c4100f 	strb	r1, [r4, #15]
    a660:	e3550006 	cmp	r5, #6
    a664:	1affffd6 	bne	a5c4 <KeyboardPoll+0x290>
    a668:	e3a00000 	mov	r0, #0
    a66c:	e1a00c00 	lsl	r0, r0, #24
    a670:	e1a00c40 	asr	r0, r0, #24
    a674:	e8bd40f8 	pop	{r3, r4, r5, r6, r7, lr}
    a678:	e12fff1e 	bx	lr
    a67c:	e3a000f7 	mov	r0, #247	; 0xf7
    a680:	e1a00c00 	lsl	r0, r0, #24
    a684:	e1a00c40 	asr	r0, r0, #24
    a688:	e8bd40f8 	pop	{r3, r4, r5, r6, r7, lr}
    a68c:	e12fff1e 	bx	lr
    a690:	e3770009 	cmn	r7, #9
    a694:	01a00007 	moveq	r0, r7
    a698:	0afffff8 	beq	a680 <KeyboardPoll+0x34c>
    a69c:	e7960105 	ldr	r0, [r6, r5, lsl #2]
    a6a0:	eb0004b2 	bl	b970 <UsbGetDescription>
    a6a4:	e3a01028 	mov	r1, #40	; 0x28
    a6a8:	e1a02000 	mov	r2, r0
    a6ac:	e59f0018 	ldr	r0, [pc, #24]	; a6cc <KeyboardPoll+0x398>
    a6b0:	eb0001e5 	bl	ae4c <LogPrintF>
    a6b4:	e1a00007 	mov	r0, r7
    a6b8:	e1a00c00 	lsl	r0, r0, #24
    a6bc:	e1a00c40 	asr	r0, r0, #24
    a6c0:	e8bd40f8 	pop	{r3, r4, r5, r6, r7, lr}
    a6c4:	e12fff1e 	bx	lr
    a6c8:	000161b0 	.word	0x000161b0
    a6cc:	00012bac 	.word	0x00012bac

0000a6d0 <KeyboardGetModifiers>:
    a6d0:	e3500000 	cmp	r0, #0
    a6d4:	e92d4008 	push	{r3, lr}
    a6d8:	1a000002 	bne	a6e8 <KeyboardGetModifiers+0x18>
    a6dc:	e3a00000 	mov	r0, #0
    a6e0:	e8bd4008 	pop	{r3, lr}
    a6e4:	e12fff1e 	bx	lr
    a6e8:	ebfffe28 	bl	9f90 <KeyboardIndex.part.0>
    a6ec:	e3700001 	cmn	r0, #1
    a6f0:	0afffff9 	beq	a6dc <KeyboardGetModifiers+0xc>
    a6f4:	e59f302c 	ldr	r3, [pc, #44]	; a728 <KeyboardGetModifiers+0x58>
    a6f8:	e7933100 	ldr	r3, [r3, r0, lsl #2]
    a6fc:	e5933414 	ldr	r3, [r3, #1044]	; 0x414
    a700:	e5d32010 	ldrb	r2, [r3, #16]
    a704:	e5d31011 	ldrb	r1, [r3, #17]
    a708:	e5d30012 	ldrb	r0, [r3, #18]
    a70c:	e1821401 	orr	r1, r2, r1, lsl #8
    a710:	e5d32013 	ldrb	r2, [r3, #19]
    a714:	e1813800 	orr	r3, r1, r0, lsl #16
    a718:	e1833c02 	orr	r3, r3, r2, lsl #24
    a71c:	e5d3001c 	ldrb	r0, [r3, #28]
    a720:	e8bd4008 	pop	{r3, lr}
    a724:	e12fff1e 	bx	lr
    a728:	000161b0 	.word	0x000161b0

0000a72c <KeyboardGetKeyDownCount>:
    a72c:	e92d4008 	push	{r3, lr}
    a730:	e2503000 	subs	r3, r0, #0
    a734:	01a00003 	moveq	r0, r3
    a738:	0a000014 	beq	a790 <KeyboardGetKeyDownCount+0x64>
    a73c:	ebfffe13 	bl	9f90 <KeyboardIndex.part.0>
    a740:	e3700001 	cmn	r0, #1
    a744:	03a00000 	moveq	r0, #0
    a748:	0a000010 	beq	a790 <KeyboardGetKeyDownCount+0x64>
    a74c:	e59f3044 	ldr	r3, [pc, #68]	; a798 <KeyboardGetKeyDownCount+0x6c>
    a750:	e7933100 	ldr	r3, [r3, r0, lsl #2]
    a754:	e5932414 	ldr	r2, [r3, #1044]	; 0x414
    a758:	e5d20011 	ldrb	r0, [r2, #17]
    a75c:	e5d23010 	ldrb	r3, [r2, #16]
    a760:	e5d21012 	ldrb	r1, [r2, #18]
    a764:	e1833400 	orr	r3, r3, r0, lsl #8
    a768:	e5d22013 	ldrb	r2, [r2, #19]
    a76c:	e1833801 	orr	r3, r3, r1, lsl #16
    a770:	e1833c02 	orr	r3, r3, r2, lsl #24
    a774:	e5d3100c 	ldrb	r1, [r3, #12]
    a778:	e5d3000d 	ldrb	r0, [r3, #13]
    a77c:	e5d3200e 	ldrb	r2, [r3, #14]
    a780:	e1810400 	orr	r0, r1, r0, lsl #8
    a784:	e5d3300f 	ldrb	r3, [r3, #15]
    a788:	e1800802 	orr	r0, r0, r2, lsl #16
    a78c:	e1800c03 	orr	r0, r0, r3, lsl #24
    a790:	e8bd4008 	pop	{r3, lr}
    a794:	e12fff1e 	bx	lr
    a798:	000161b0 	.word	0x000161b0

0000a79c <KeyboadGetKeyIsDown>:
    a79c:	e92d4038 	push	{r3, r4, r5, lr}
    a7a0:	e2503000 	subs	r3, r0, #0
    a7a4:	e1a05001 	mov	r5, r1
    a7a8:	0a000025 	beq	a844 <KeyboadGetKeyIsDown+0xa8>
    a7ac:	ebfffdf7 	bl	9f90 <KeyboardIndex.part.0>
    a7b0:	e3700001 	cmn	r0, #1
    a7b4:	0a000022 	beq	a844 <KeyboadGetKeyIsDown+0xa8>
    a7b8:	e59f309c 	ldr	r3, [pc, #156]	; a85c <KeyboadGetKeyIsDown+0xc0>
    a7bc:	e7933100 	ldr	r3, [r3, r0, lsl #2]
    a7c0:	e5933414 	ldr	r3, [r3, #1044]	; 0x414
    a7c4:	e5d31010 	ldrb	r1, [r3, #16]
    a7c8:	e5d3c011 	ldrb	ip, [r3, #17]
    a7cc:	e5d32012 	ldrb	r2, [r3, #18]
    a7d0:	e181c40c 	orr	ip, r1, ip, lsl #8
    a7d4:	e5d33013 	ldrb	r3, [r3, #19]
    a7d8:	e18cc802 	orr	ip, ip, r2, lsl #16
    a7dc:	e18ccc03 	orr	ip, ip, r3, lsl #24
    a7e0:	e5dc300c 	ldrb	r3, [ip, #12]
    a7e4:	e5dc000d 	ldrb	r0, [ip, #13]
    a7e8:	e5dc200e 	ldrb	r2, [ip, #14]
    a7ec:	e1830400 	orr	r0, r3, r0, lsl #8
    a7f0:	e5dc300f 	ldrb	r3, [ip, #15]
    a7f4:	e1800802 	orr	r0, r0, r2, lsl #16
    a7f8:	e1900c03 	orrs	r0, r0, r3, lsl #24
    a7fc:	0a000011 	beq	a848 <KeyboadGetKeyIsDown+0xac>
    a800:	e5dc3010 	ldrb	r3, [ip, #16]
    a804:	e5dc2011 	ldrb	r2, [ip, #17]
    a808:	e1833402 	orr	r3, r3, r2, lsl #8
    a80c:	e1530005 	cmp	r3, r5
    a810:	0a00000e 	beq	a850 <KeyboadGetKeyIsDown+0xb4>
    a814:	e3a03000 	mov	r3, #0
    a818:	ea000004 	b	a830 <KeyboadGetKeyIsDown+0x94>
    a81c:	e7dc2082 	ldrb	r2, [ip, r2, lsl #1]
    a820:	e5d44001 	ldrb	r4, [r4, #1]
    a824:	e1822404 	orr	r2, r2, r4, lsl #8
    a828:	e1520005 	cmp	r2, r5
    a82c:	0a000007 	beq	a850 <KeyboadGetKeyIsDown+0xb4>
    a830:	e2833001 	add	r3, r3, #1
    a834:	e2832008 	add	r2, r3, #8
    a838:	e1530000 	cmp	r3, r0
    a83c:	e08c4082 	add	r4, ip, r2, lsl #1
    a840:	1afffff5 	bne	a81c <KeyboadGetKeyIsDown+0x80>
    a844:	e3a00000 	mov	r0, #0
    a848:	e8bd4038 	pop	{r3, r4, r5, lr}
    a84c:	e12fff1e 	bx	lr
    a850:	e3a00001 	mov	r0, #1
    a854:	e8bd4038 	pop	{r3, r4, r5, lr}
    a858:	e12fff1e 	bx	lr
    a85c:	000161b0 	.word	0x000161b0

0000a860 <KeyboardGetKeyDown>:
    a860:	e92d4070 	push	{r4, r5, r6, lr}
    a864:	e1a04000 	mov	r4, r0
    a868:	e1a05001 	mov	r5, r1
    a86c:	ebffffae 	bl	a72c <KeyboardGetKeyDownCount>
    a870:	e1a06000 	mov	r6, r0
    a874:	e2540000 	subs	r0, r4, #0
    a878:	0a000013 	beq	a8cc <KeyboardGetKeyDown+0x6c>
    a87c:	ebfffdc3 	bl	9f90 <KeyboardIndex.part.0>
    a880:	e3700001 	cmn	r0, #1
    a884:	0a000012 	beq	a8d4 <KeyboardGetKeyDown+0x74>
    a888:	e59f3050 	ldr	r3, [pc, #80]	; a8e0 <KeyboardGetKeyDown+0x80>
    a88c:	e7933100 	ldr	r3, [r3, r0, lsl #2]
    a890:	e5933414 	ldr	r3, [r3, #1044]	; 0x414
    a894:	e5d32010 	ldrb	r2, [r3, #16]
    a898:	e5d31011 	ldrb	r1, [r3, #17]
    a89c:	e5d30012 	ldrb	r0, [r3, #18]
    a8a0:	e1821401 	orr	r1, r2, r1, lsl #8
    a8a4:	e5d32013 	ldrb	r2, [r3, #19]
    a8a8:	e1560005 	cmp	r6, r5
    a8ac:	e1813800 	orr	r3, r1, r0, lsl #16
    a8b0:	e1833c02 	orr	r3, r3, r2, lsl #24
    a8b4:	9a000006 	bls	a8d4 <KeyboardGetKeyDown+0x74>
    a8b8:	e2855008 	add	r5, r5, #8
    a8bc:	e0832085 	add	r2, r3, r5, lsl #1
    a8c0:	e5d20001 	ldrb	r0, [r2, #1]
    a8c4:	e7d33085 	ldrb	r3, [r3, r5, lsl #1]
    a8c8:	e1830400 	orr	r0, r3, r0, lsl #8
    a8cc:	e8bd4070 	pop	{r4, r5, r6, lr}
    a8d0:	e12fff1e 	bx	lr
    a8d4:	e3a00000 	mov	r0, #0
    a8d8:	e8bd4070 	pop	{r4, r5, r6, lr}
    a8dc:	e12fff1e 	bx	lr
    a8e0:	000161b0 	.word	0x000161b0

0000a8e4 <MemoryReserve>:
    a8e4:	e1a00001 	mov	r0, r1
    a8e8:	e12fff1e 	bx	lr

0000a8ec <MemoryAllocate>:
    a8ec:	e92d0ff0 	push	{r4, r5, r6, r7, r8, r9, sl, fp}
    a8f0:	e59f63d4 	ldr	r6, [pc, #980]	; accc <MemoryAllocate+0x3e0>
    a8f4:	e5963000 	ldr	r3, [r6]
    a8f8:	e2605000 	rsb	r5, r0, #0
    a8fc:	e3530000 	cmp	r3, #0
    a900:	e2055007 	and	r5, r5, #7
    a904:	e5967004 	ldr	r7, [r6, #4]
    a908:	059f33c0 	ldreq	r3, [pc, #960]	; acd0 <MemoryAllocate+0x3e4>
    a90c:	e0855000 	add	r5, r5, r0
    a910:	e0857007 	add	r7, r5, r7
    a914:	05863000 	streq	r3, [r6]
    a918:	e3570901 	cmp	r7, #16384	; 0x4000
    a91c:	e59f33a8 	ldr	r3, [pc, #936]	; accc <MemoryAllocate+0x3e0>
    a920:	8a0000d2 	bhi	ac70 <MemoryAllocate+0x384>
    a924:	e5934000 	ldr	r4, [r3]
    a928:	e3740001 	cmn	r4, #1
    a92c:	0a0000cf 	beq	ac70 <MemoryAllocate+0x384>
    a930:	e59f139c 	ldr	r1, [pc, #924]	; acd4 <MemoryAllocate+0x3e8>
    a934:	e5912000 	ldr	r2, [r1]
    a938:	e3720001 	cmn	r2, #1
    a93c:	0a00007f 	beq	ab40 <MemoryAllocate+0x254>
    a940:	e5d21009 	ldrb	r1, [r2, #9]
    a944:	e5d23008 	ldrb	r3, [r2, #8]
    a948:	e5d2000a 	ldrb	r0, [r2, #10]
    a94c:	e1833401 	orr	r3, r3, r1, lsl #8
    a950:	e5d2100b 	ldrb	r1, [r2, #11]
    a954:	e1833800 	orr	r3, r3, r0, lsl #16
    a958:	e1833c01 	orr	r3, r3, r1, lsl #24
    a95c:	e3730001 	cmn	r3, #1
    a960:	0a0000d7 	beq	acc4 <MemoryAllocate+0x3d8>
    a964:	e5d28005 	ldrb	r8, [r2, #5]
    a968:	e5d3b005 	ldrb	fp, [r3, #5]
    a96c:	e5d2c004 	ldrb	ip, [r2, #4]
    a970:	e5d30004 	ldrb	r0, [r3, #4]
    a974:	e5d2a006 	ldrb	sl, [r2, #6]
    a978:	e5d39006 	ldrb	r9, [r3, #6]
    a97c:	e18cc408 	orr	ip, ip, r8, lsl #8
    a980:	e180040b 	orr	r0, r0, fp, lsl #8
    a984:	e5d28001 	ldrb	r8, [r2, #1]
    a988:	e5d21000 	ldrb	r1, [r2]
    a98c:	e18cc80a 	orr	ip, ip, sl, lsl #16
    a990:	e1800809 	orr	r0, r0, r9, lsl #16
    a994:	e5d2b007 	ldrb	fp, [r2, #7]
    a998:	e5d3a007 	ldrb	sl, [r3, #7]
    a99c:	e5d29002 	ldrb	r9, [r2, #2]
    a9a0:	e1811408 	orr	r1, r1, r8, lsl #8
    a9a4:	e5d28003 	ldrb	r8, [r2, #3]
    a9a8:	e18ccc0b 	orr	ip, ip, fp, lsl #24
    a9ac:	e1800c0a 	orr	r0, r0, sl, lsl #24
    a9b0:	e1811809 	orr	r1, r1, r9, lsl #16
    a9b4:	e06c0000 	rsb	r0, ip, r0
    a9b8:	e1811c08 	orr	r1, r1, r8, lsl #24
    a9bc:	e0610000 	rsb	r0, r1, r0
    a9c0:	e1550000 	cmp	r5, r0
    a9c4:	8a00001a 	bhi	aa34 <MemoryAllocate+0x148>
    a9c8:	ea00007d 	b	abc4 <MemoryAllocate+0x2d8>
    a9cc:	e5d3a005 	ldrb	sl, [r3, #5]
    a9d0:	e5d21004 	ldrb	r1, [r2, #4]
    a9d4:	e5d3c004 	ldrb	ip, [r3, #4]
    a9d8:	e5d20005 	ldrb	r0, [r2, #5]
    a9dc:	e5d38006 	ldrb	r8, [r3, #6]
    a9e0:	e5d2b006 	ldrb	fp, [r2, #6]
    a9e4:	e18cc40a 	orr	ip, ip, sl, lsl #8
    a9e8:	e1810400 	orr	r0, r1, r0, lsl #8
    a9ec:	e5d3a000 	ldrb	sl, [r3]
    a9f0:	e5d31001 	ldrb	r1, [r3, #1]
    a9f4:	e18cc808 	orr	ip, ip, r8, lsl #16
    a9f8:	e5d38007 	ldrb	r8, [r3, #7]
    a9fc:	e180080b 	orr	r0, r0, fp, lsl #16
    aa00:	e18a1401 	orr	r1, sl, r1, lsl #8
    aa04:	e5d2b007 	ldrb	fp, [r2, #7]
    aa08:	e5d3a002 	ldrb	sl, [r3, #2]
    aa0c:	e18ccc08 	orr	ip, ip, r8, lsl #24
    aa10:	e5d38003 	ldrb	r8, [r3, #3]
    aa14:	e1800c0b 	orr	r0, r0, fp, lsl #24
    aa18:	e181180a 	orr	r1, r1, sl, lsl #16
    aa1c:	e06c0000 	rsb	r0, ip, r0
    aa20:	e1811c08 	orr	r1, r1, r8, lsl #24
    aa24:	e0610000 	rsb	r0, r1, r0
    aa28:	e1550000 	cmp	r5, r0
    aa2c:	9a000066 	bls	abcc <MemoryAllocate+0x2e0>
    aa30:	e1a03002 	mov	r3, r2
    aa34:	e5d31009 	ldrb	r1, [r3, #9]
    aa38:	e5d32008 	ldrb	r2, [r3, #8]
    aa3c:	e5d3c00a 	ldrb	ip, [r3, #10]
    aa40:	e1822401 	orr	r2, r2, r1, lsl #8
    aa44:	e5d3100b 	ldrb	r1, [r3, #11]
    aa48:	e182280c 	orr	r2, r2, ip, lsl #16
    aa4c:	e1822c01 	orr	r2, r2, r1, lsl #24
    aa50:	e3720001 	cmn	r2, #1
    aa54:	e1a09002 	mov	r9, r2
    aa58:	1affffdb 	bne	a9cc <MemoryAllocate+0xe0>
    aa5c:	e5d30001 	ldrb	r0, [r3, #1]
    aa60:	e5d32000 	ldrb	r2, [r3]
    aa64:	e5d31002 	ldrb	r1, [r3, #2]
    aa68:	e1822400 	orr	r2, r2, r0, lsl #8
    aa6c:	e5d30003 	ldrb	r0, [r3, #3]
    aa70:	e1822801 	orr	r2, r2, r1, lsl #16
    aa74:	e59f125c 	ldr	r1, [pc, #604]	; acd8 <MemoryAllocate+0x3ec>
    aa78:	e1822c00 	orr	r2, r2, r0, lsl #24
    aa7c:	e0621001 	rsb	r1, r2, r1
    aa80:	e1550001 	cmp	r5, r1
    aa84:	8a000079 	bhi	ac70 <MemoryAllocate+0x384>
    aa88:	e5d31004 	ldrb	r1, [r3, #4]
    aa8c:	e5d30005 	ldrb	r0, [r3, #5]
    aa90:	e5d38006 	ldrb	r8, [r3, #6]
    aa94:	e5d3c007 	ldrb	ip, [r3, #7]
    aa98:	e1810400 	orr	r0, r1, r0, lsl #8
    aa9c:	e5d49009 	ldrb	r9, [r4, #9]
    aaa0:	e5d41008 	ldrb	r1, [r4, #8]
    aaa4:	e1800808 	orr	r0, r0, r8, lsl #16
    aaa8:	e5d4a00a 	ldrb	sl, [r4, #10]
    aaac:	e1819409 	orr	r9, r1, r9, lsl #8
    aab0:	e1800c0c 	orr	r0, r0, ip, lsl #24
    aab4:	e5d4800b 	ldrb	r8, [r4, #11]
    aab8:	e0800002 	add	r0, r0, r2
    aabc:	e189280a 	orr	r2, r9, sl, lsl #16
    aac0:	e1928c08 	orrs	r8, r2, r8, lsl #24
    aac4:	e1a0b420 	lsr	fp, r0, #8
    aac8:	e1a0a820 	lsr	sl, r0, #16
    aacc:	e1a09c20 	lsr	r9, r0, #24
    aad0:	e1a02425 	lsr	r2, r5, #8
    aad4:	e1a0c825 	lsr	ip, r5, #16
    aad8:	e1a01c25 	lsr	r1, r5, #24
    aadc:	e5c45000 	strb	r5, [r4]
    aae0:	e5c42001 	strb	r2, [r4, #1]
    aae4:	e5c4c002 	strb	ip, [r4, #2]
    aae8:	e5c41003 	strb	r1, [r4, #3]
    aaec:	e5c40004 	strb	r0, [r4, #4]
    aaf0:	e5c4b005 	strb	fp, [r4, #5]
    aaf4:	e5c4a006 	strb	sl, [r4, #6]
    aaf8:	e5c49007 	strb	r9, [r4, #7]
    aafc:	15868000 	strne	r8, [r6]
    ab00:	0a000069 	beq	acac <MemoryAllocate+0x3c0>
    ab04:	e3e02000 	mvn	r2, #0
    ab08:	e1a05424 	lsr	r5, r4, #8
    ab0c:	e1a0c824 	lsr	ip, r4, #16
    ab10:	e1a01c24 	lsr	r1, r4, #24
    ab14:	e5c42008 	strb	r2, [r4, #8]
    ab18:	e5c42009 	strb	r2, [r4, #9]
    ab1c:	e5c4200a 	strb	r2, [r4, #10]
    ab20:	e5c4200b 	strb	r2, [r4, #11]
    ab24:	e5867004 	str	r7, [r6, #4]
    ab28:	e5c34008 	strb	r4, [r3, #8]
    ab2c:	e5c35009 	strb	r5, [r3, #9]
    ab30:	e5c3c00a 	strb	ip, [r3, #10]
    ab34:	e5c3100b 	strb	r1, [r3, #11]
    ab38:	e8bd0ff0 	pop	{r4, r5, r6, r7, r8, r9, sl, fp}
    ab3c:	e12fff1e 	bx	lr
    ab40:	e5d40008 	ldrb	r0, [r4, #8]
    ab44:	e5d4c009 	ldrb	ip, [r4, #9]
    ab48:	e5d4900a 	ldrb	r9, [r4, #10]
    ab4c:	e180c40c 	orr	ip, r0, ip, lsl #8
    ab50:	e5d4800b 	ldrb	r8, [r4, #11]
    ab54:	e59f0180 	ldr	r0, [pc, #384]	; acdc <MemoryAllocate+0x3f0>
    ab58:	e18cc809 	orr	ip, ip, r9, lsl #16
    ab5c:	e5814000 	str	r4, [r1]
    ab60:	e19c8c08 	orrs	r8, ip, r8, lsl #24
    ab64:	e1a09425 	lsr	r9, r5, #8
    ab68:	e1a01825 	lsr	r1, r5, #16
    ab6c:	e5c45000 	strb	r5, [r4]
    ab70:	e1a0c420 	lsr	ip, r0, #8
    ab74:	e1a0b820 	lsr	fp, r0, #16
    ab78:	e1a0ac20 	lsr	sl, r0, #24
    ab7c:	e1a05c25 	lsr	r5, r5, #24
    ab80:	e5c49001 	strb	r9, [r4, #1]
    ab84:	e5c41002 	strb	r1, [r4, #2]
    ab88:	e5c45003 	strb	r5, [r4, #3]
    ab8c:	e5c42008 	strb	r2, [r4, #8]
    ab90:	e5c42009 	strb	r2, [r4, #9]
    ab94:	e5c4200a 	strb	r2, [r4, #10]
    ab98:	e5c4200b 	strb	r2, [r4, #11]
    ab9c:	e5c40004 	strb	r0, [r4, #4]
    aba0:	e5c4c005 	strb	ip, [r4, #5]
    aba4:	e5c4b006 	strb	fp, [r4, #6]
    aba8:	e5c4a007 	strb	sl, [r4, #7]
    abac:	15838000 	strne	r8, [r3]
    abb0:	0a000031 	beq	ac7c <MemoryAllocate+0x390>
    abb4:	e5867004 	str	r7, [r6, #4]
    abb8:	e59f011c 	ldr	r0, [pc, #284]	; acdc <MemoryAllocate+0x3f0>
    abbc:	e8bd0ff0 	pop	{r4, r5, r6, r7, r8, r9, sl, fp}
    abc0:	e12fff1e 	bx	lr
    abc4:	e1a09003 	mov	r9, r3
    abc8:	e1a03002 	mov	r3, r2
    abcc:	e5d40009 	ldrb	r0, [r4, #9]
    abd0:	e5d42008 	ldrb	r2, [r4, #8]
    abd4:	e5d4a00a 	ldrb	sl, [r4, #10]
    abd8:	e1822400 	orr	r2, r2, r0, lsl #8
    abdc:	e5d4800b 	ldrb	r8, [r4, #11]
    abe0:	e08c0001 	add	r0, ip, r1
    abe4:	e182280a 	orr	r2, r2, sl, lsl #16
    abe8:	e1928c08 	orrs	r8, r2, r8, lsl #24
    abec:	e1a0c425 	lsr	ip, r5, #8
    abf0:	e1a01825 	lsr	r1, r5, #16
    abf4:	e5c45000 	strb	r5, [r4]
    abf8:	e1a02420 	lsr	r2, r0, #8
    abfc:	e1a0b820 	lsr	fp, r0, #16
    ac00:	e1a0ac20 	lsr	sl, r0, #24
    ac04:	e1a05c25 	lsr	r5, r5, #24
    ac08:	e5c4c001 	strb	ip, [r4, #1]
    ac0c:	e5c41002 	strb	r1, [r4, #2]
    ac10:	e5c45003 	strb	r5, [r4, #3]
    ac14:	e5c40004 	strb	r0, [r4, #4]
    ac18:	e5c42005 	strb	r2, [r4, #5]
    ac1c:	e5c4b006 	strb	fp, [r4, #6]
    ac20:	e5c4a007 	strb	sl, [r4, #7]
    ac24:	15868000 	strne	r8, [r6]
    ac28:	0a000019 	beq	ac94 <MemoryAllocate+0x3a8>
    ac2c:	e1a0a429 	lsr	sl, r9, #8
    ac30:	e1a08829 	lsr	r8, r9, #16
    ac34:	e1a05c29 	lsr	r5, r9, #24
    ac38:	e1a0c424 	lsr	ip, r4, #8
    ac3c:	e1a01824 	lsr	r1, r4, #16
    ac40:	e1a02c24 	lsr	r2, r4, #24
    ac44:	e5c49008 	strb	r9, [r4, #8]
    ac48:	e5c4a009 	strb	sl, [r4, #9]
    ac4c:	e5c4800a 	strb	r8, [r4, #10]
    ac50:	e5c4500b 	strb	r5, [r4, #11]
    ac54:	e5867004 	str	r7, [r6, #4]
    ac58:	e5c34008 	strb	r4, [r3, #8]
    ac5c:	e5c3c009 	strb	ip, [r3, #9]
    ac60:	e5c3100a 	strb	r1, [r3, #10]
    ac64:	e5c3200b 	strb	r2, [r3, #11]
    ac68:	e8bd0ff0 	pop	{r4, r5, r6, r7, r8, r9, sl, fp}
    ac6c:	e12fff1e 	bx	lr
    ac70:	e3a00000 	mov	r0, #0
    ac74:	e8bd0ff0 	pop	{r4, r5, r6, r7, r8, r9, sl, fp}
    ac78:	e12fff1e 	bx	lr
    ac7c:	e59f205c 	ldr	r2, [pc, #92]	; ace0 <MemoryAllocate+0x3f4>
    ac80:	e284400c 	add	r4, r4, #12
    ac84:	e1540002 	cmp	r4, r2
    ac88:	23e04000 	mvncs	r4, #0
    ac8c:	e5834000 	str	r4, [r3]
    ac90:	eaffffc7 	b	abb4 <MemoryAllocate+0x2c8>
    ac94:	e59f1044 	ldr	r1, [pc, #68]	; ace0 <MemoryAllocate+0x3f4>
    ac98:	e284200c 	add	r2, r4, #12
    ac9c:	e1520001 	cmp	r2, r1
    aca0:	23e02000 	mvncs	r2, #0
    aca4:	e5862000 	str	r2, [r6]
    aca8:	eaffffdf 	b	ac2c <MemoryAllocate+0x340>
    acac:	e59f102c 	ldr	r1, [pc, #44]	; ace0 <MemoryAllocate+0x3f4>
    acb0:	e284200c 	add	r2, r4, #12
    acb4:	e1520001 	cmp	r2, r1
    acb8:	23e02000 	mvncs	r2, #0
    acbc:	e5862000 	str	r2, [r6]
    acc0:	eaffff8f 	b	ab04 <MemoryAllocate+0x218>
    acc4:	e1a03002 	mov	r3, r2
    acc8:	eaffff63 	b	aa5c <MemoryAllocate+0x170>
    accc:	00016164 	.word	0x00016164
    acd0:	0001a1c0 	.word	0x0001a1c0
    acd4:	000160e0 	.word	0x000160e0
    acd8:	0001a1c1 	.word	0x0001a1c1
    acdc:	000161c0 	.word	0x000161c0
    ace0:	0001adc0 	.word	0x0001adc0

0000ace4 <MemoryDeallocate>:
    ace4:	e59f210c 	ldr	r2, [pc, #268]	; adf8 <MemoryDeallocate+0x114>
    ace8:	e5923000 	ldr	r3, [r2]
    acec:	e3730001 	cmn	r3, #1
    acf0:	e92d00f0 	push	{r4, r5, r6, r7}
    acf4:	0a00001e 	beq	ad74 <MemoryDeallocate+0x90>
    acf8:	e5d3c005 	ldrb	ip, [r3, #5]
    acfc:	e5d31004 	ldrb	r1, [r3, #4]
    ad00:	e5d34006 	ldrb	r4, [r3, #6]
    ad04:	e181140c 	orr	r1, r1, ip, lsl #8
    ad08:	e5d3c007 	ldrb	ip, [r3, #7]
    ad0c:	e1811804 	orr	r1, r1, r4, lsl #16
    ad10:	e1811c0c 	orr	r1, r1, ip, lsl #24
    ad14:	e1500001 	cmp	r0, r1
    ad18:	11a02003 	movne	r2, r3
    ad1c:	1a00000a 	bne	ad4c <MemoryDeallocate+0x68>
    ad20:	ea000016 	b	ad80 <MemoryDeallocate+0x9c>
    ad24:	e5d34005 	ldrb	r4, [r3, #5]
    ad28:	e5d3c004 	ldrb	ip, [r3, #4]
    ad2c:	e5d35006 	ldrb	r5, [r3, #6]
    ad30:	e18cc404 	orr	ip, ip, r4, lsl #8
    ad34:	e5d34007 	ldrb	r4, [r3, #7]
    ad38:	e18cc805 	orr	ip, ip, r5, lsl #16
    ad3c:	e18ccc04 	orr	ip, ip, r4, lsl #24
    ad40:	e150000c 	cmp	r0, ip
    ad44:	0a00000c 	beq	ad7c <MemoryDeallocate+0x98>
    ad48:	e1a02001 	mov	r2, r1
    ad4c:	e5d31008 	ldrb	r1, [r3, #8]
    ad50:	e5d3c009 	ldrb	ip, [r3, #9]
    ad54:	e5d3400a 	ldrb	r4, [r3, #10]
    ad58:	e181c40c 	orr	ip, r1, ip, lsl #8
    ad5c:	e5d3100b 	ldrb	r1, [r3, #11]
    ad60:	e18c3804 	orr	r3, ip, r4, lsl #16
    ad64:	e1833c01 	orr	r3, r3, r1, lsl #24
    ad68:	e3730001 	cmn	r3, #1
    ad6c:	e5921008 	ldr	r1, [r2, #8]
    ad70:	1affffeb 	bne	ad24 <MemoryDeallocate+0x40>
    ad74:	e8bd00f0 	pop	{r4, r5, r6, r7}
    ad78:	e12fff1e 	bx	lr
    ad7c:	e2822008 	add	r2, r2, #8
    ad80:	e5d36001 	ldrb	r6, [r3, #1]
    ad84:	e5d3c000 	ldrb	ip, [r3]
    ad88:	e59f106c 	ldr	r1, [pc, #108]	; adfc <MemoryDeallocate+0x118>
    ad8c:	e5d35002 	ldrb	r5, [r3, #2]
    ad90:	e5d34009 	ldrb	r4, [r3, #9]
    ad94:	e5d30008 	ldrb	r0, [r3, #8]
    ad98:	e5d37003 	ldrb	r7, [r3, #3]
    ad9c:	e18cc406 	orr	ip, ip, r6, lsl #8
    ada0:	e5d3600a 	ldrb	r6, [r3, #10]
    ada4:	e18cc805 	orr	ip, ip, r5, lsl #16
    ada8:	e1800404 	orr	r0, r0, r4, lsl #8
    adac:	e5915004 	ldr	r5, [r1, #4]
    adb0:	e5d3400b 	ldrb	r4, [r3, #11]
    adb4:	e18ccc07 	orr	ip, ip, r7, lsl #24
    adb8:	e1800806 	orr	r0, r0, r6, lsl #16
    adbc:	e06cc005 	rsb	ip, ip, r5
    adc0:	e1800c04 	orr	r0, r0, r4, lsl #24
    adc4:	e581c004 	str	ip, [r1, #4]
    adc8:	e5820000 	str	r0, [r2]
    adcc:	e5d14000 	ldrb	r4, [r1]
    add0:	e5d1c001 	ldrb	ip, [r1, #1]
    add4:	e5d10002 	ldrb	r0, [r1, #2]
    add8:	e5d12003 	ldrb	r2, [r1, #3]
    addc:	e5c34008 	strb	r4, [r3, #8]
    ade0:	e5c3c009 	strb	ip, [r3, #9]
    ade4:	e5c3000a 	strb	r0, [r3, #10]
    ade8:	e5c3200b 	strb	r2, [r3, #11]
    adec:	e5813000 	str	r3, [r1]
    adf0:	e8bd00f0 	pop	{r4, r5, r6, r7}
    adf4:	e12fff1e 	bx	lr
    adf8:	000160e0 	.word	0x000160e0
    adfc:	00016164 	.word	0x00016164

0000ae00 <MemoryCopy>:
    ae00:	e3520000 	cmp	r2, #0
    ae04:	012fff1e 	bxeq	lr
    ae08:	e1510000 	cmp	r1, r0
    ae0c:	2a000005 	bcs	ae28 <MemoryCopy+0x28>
    ae10:	e0803002 	add	r3, r0, r2
    ae14:	e4d12001 	ldrb	r2, [r1], #1
    ae18:	e4c02001 	strb	r2, [r0], #1
    ae1c:	e1500003 	cmp	r0, r3
    ae20:	1afffffb 	bne	ae14 <MemoryCopy+0x14>
    ae24:	e12fff1e 	bx	lr
    ae28:	e0811002 	add	r1, r1, r2
    ae2c:	e0800002 	add	r0, r0, r2
    ae30:	e2423001 	sub	r3, r2, #1
    ae34:	e2433001 	sub	r3, r3, #1
    ae38:	e5712001 	ldrb	r2, [r1, #-1]!
    ae3c:	e3730001 	cmn	r3, #1
    ae40:	e5602001 	strb	r2, [r0, #-1]!
    ae44:	1afffffa 	bne	ae34 <MemoryCopy+0x34>
    ae48:	e12fff1e 	bx	lr

0000ae4c <LogPrintF>:
    ae4c:	e92d000e 	push	{r1, r2, r3}
    ae50:	e92d4ff0 	push	{r4, r5, r6, r7, r8, r9, sl, fp, lr}
    ae54:	e24dd050 	sub	sp, sp, #80	; 0x50
    ae58:	e59d8074 	ldr	r8, [sp, #116]	; 0x74
    ae5c:	e28d9078 	add	r9, sp, #120	; 0x78
    ae60:	e3580000 	cmp	r8, #0
    ae64:	e1a07000 	mov	r7, r0
    ae68:	e58d904c 	str	r9, [sp, #76]	; 0x4c
    ae6c:	0a000046 	beq	af8c <LogPrintF+0x140>
    ae70:	e3a04000 	mov	r4, #0
    ae74:	e3a0b001 	mov	fp, #1
    ae78:	e58d9010 	str	r9, [sp, #16]
    ae7c:	e58d4028 	str	r4, [sp, #40]	; 0x28
    ae80:	e58d4034 	str	r4, [sp, #52]	; 0x34
    ae84:	e58d4018 	str	r4, [sp, #24]
    ae88:	e58d400c 	str	r4, [sp, #12]
    ae8c:	e58d4030 	str	r4, [sp, #48]	; 0x30
    ae90:	e58d4020 	str	r4, [sp, #32]
    ae94:	e58d4024 	str	r4, [sp, #36]	; 0x24
    ae98:	e58d401c 	str	r4, [sp, #28]
    ae9c:	e58d402c 	str	r4, [sp, #44]	; 0x2c
    aea0:	e58d4008 	str	r4, [sp, #8]
    aea4:	e58d4004 	str	r4, [sp, #4]
    aea8:	e58db014 	str	fp, [sp, #20]
    aeac:	e1a06004 	mov	r6, r4
    aeb0:	e1a03004 	mov	r3, r4
    aeb4:	e1a00004 	mov	r0, r4
    aeb8:	e1a0a004 	mov	sl, r4
    aebc:	e1a05004 	mov	r5, r4
    aec0:	e1a0b004 	mov	fp, r4
    aec4:	e3500000 	cmp	r0, #0
    aec8:	0a000033 	beq	af9c <LogPrintF+0x150>
    aecc:	e35c0000 	cmp	ip, #0
    aed0:	1a000016 	bne	af30 <LogPrintF+0xe4>
    aed4:	e7d71004 	ldrb	r1, [r7, r4]
    aed8:	e2411020 	sub	r1, r1, #32
    aedc:	e3510010 	cmp	r1, #16
    aee0:	979ff101 	ldrls	pc, [pc, r1, lsl #2]
    aee4:	ea000010 	b	af2c <LogPrintF+0xe0>
    aee8:	0000b2ec 	.word	0x0000b2ec
    aeec:	0000af2c 	.word	0x0000af2c
    aef0:	0000af2c 	.word	0x0000af2c
    aef4:	0000b2d4 	.word	0x0000b2d4
    aef8:	0000af2c 	.word	0x0000af2c
    aefc:	0000af2c 	.word	0x0000af2c
    af00:	0000af2c 	.word	0x0000af2c
    af04:	0000af2c 	.word	0x0000af2c
    af08:	0000af2c 	.word	0x0000af2c
    af0c:	0000af2c 	.word	0x0000af2c
    af10:	0000af2c 	.word	0x0000af2c
    af14:	0000b2bc 	.word	0x0000b2bc
    af18:	0000af2c 	.word	0x0000af2c
    af1c:	0000b2a4 	.word	0x0000b2a4
    af20:	0000af2c 	.word	0x0000af2c
    af24:	0000af2c 	.word	0x0000af2c
    af28:	0000b288 	.word	0x0000b288
    af2c:	e3a0c001 	mov	ip, #1
    af30:	e3530000 	cmp	r3, #0
    af34:	1a000026 	bne	afd4 <LogPrintF+0x188>
    af38:	e7d71004 	ldrb	r1, [r7, r4]
    af3c:	e351002a 	cmp	r1, #42	; 0x2a
    af40:	0a00001f 	beq	afc4 <LogPrintF+0x178>
    af44:	3a000021 	bcc	afd0 <LogPrintF+0x184>
    af48:	e2410030 	sub	r0, r1, #48	; 0x30
    af4c:	e3500009 	cmp	r0, #9
    af50:	8a00001e 	bhi	afd0 <LogPrintF+0x184>
    af54:	e08b210b 	add	r2, fp, fp, lsl #2
    af58:	e3a0a001 	mov	sl, #1
    af5c:	e0812082 	add	r2, r1, r2, lsl #1
    af60:	e58da00c 	str	sl, [sp, #12]
    af64:	e2844001 	add	r4, r4, #1
    af68:	e242b030 	sub	fp, r2, #48	; 0x30
    af6c:	e1580004 	cmp	r8, r4
    af70:	93a0a000 	movls	sl, #0
    af74:	83a0a001 	movhi	sl, #1
    af78:	e355009e 	cmp	r5, #158	; 0x9e
    af7c:	83a0a000 	movhi	sl, #0
    af80:	e3a00001 	mov	r0, #1
    af84:	e35a0000 	cmp	sl, #0
    af88:	1affffcd 	bne	aec4 <LogPrintF+0x78>
    af8c:	e28dd050 	add	sp, sp, #80	; 0x50
    af90:	e8bd4ff0 	pop	{r4, r5, r6, r7, r8, r9, sl, fp, lr}
    af94:	e28dd00c 	add	sp, sp, #12
    af98:	e12fff1e 	bx	lr
    af9c:	e7d71004 	ldrb	r1, [r7, r4]
    afa0:	e3510025 	cmp	r1, #37	; 0x25
    afa4:	0a000083 	beq	b1b8 <LogPrintF+0x36c>
    afa8:	e2855001 	add	r5, r5, #1
    afac:	e2844001 	add	r4, r4, #1
    afb0:	e355009e 	cmp	r5, #158	; 0x9e
    afb4:	91540008 	cmpls	r4, r8
    afb8:	23a0a000 	movcs	sl, #0
    afbc:	33a0a001 	movcc	sl, #1
    afc0:	eaffffef 	b	af84 <LogPrintF+0x138>
    afc4:	e59d200c 	ldr	r2, [sp, #12]
    afc8:	e3520000 	cmp	r2, #0
    afcc:	0a0000cc 	beq	b304 <LogPrintF+0x4b8>
    afd0:	e3a03001 	mov	r3, #1
    afd4:	e59da004 	ldr	sl, [sp, #4]
    afd8:	e35a0000 	cmp	sl, #0
    afdc:	1a000019 	bne	b048 <LogPrintF+0x1fc>
    afe0:	e59d2018 	ldr	r2, [sp, #24]
    afe4:	e3520000 	cmp	r2, #0
    afe8:	e7d71004 	ldrb	r1, [r7, r4]
    afec:	0a000096 	beq	b24c <LogPrintF+0x400>
    aff0:	e351002a 	cmp	r1, #42	; 0x2a
    aff4:	0a0001a3 	beq	b688 <LogPrintF+0x83c>
    aff8:	3a0000ef 	bcc	b3bc <LogPrintF+0x570>
    affc:	e2410030 	sub	r0, r1, #48	; 0x30
    b000:	e3500009 	cmp	r0, #9
    b004:	8a0000ec 	bhi	b3bc <LogPrintF+0x570>
    b008:	e59d9014 	ldr	r9, [sp, #20]
    b00c:	e0890109 	add	r0, r9, r9, lsl #2
    b010:	e0811080 	add	r1, r1, r0, lsl #1
    b014:	e2844001 	add	r4, r4, #1
    b018:	e3a0a001 	mov	sl, #1
    b01c:	e2411030 	sub	r1, r1, #48	; 0x30
    b020:	e355009e 	cmp	r5, #158	; 0x9e
    b024:	91540008 	cmpls	r4, r8
    b028:	e58da034 	str	sl, [sp, #52]	; 0x34
    b02c:	e58d1014 	str	r1, [sp, #20]
    b030:	23a0a000 	movcs	sl, #0
    b034:	33a0a001 	movcc	sl, #1
    b038:	e3a00001 	mov	r0, #1
    b03c:	eaffffd0 	b	af84 <LogPrintF+0x138>
    b040:	e3a02001 	mov	r2, #1
    b044:	e58d2004 	str	r2, [sp, #4]
    b048:	e59d9008 	ldr	r9, [sp, #8]
    b04c:	e3590000 	cmp	r9, #0
    b050:	0a000070 	beq	b218 <LogPrintF+0x3cc>
    b054:	e7d71004 	ldrb	r1, [r7, r4]
    b058:	e2410025 	sub	r0, r1, #37	; 0x25
    b05c:	e3500053 	cmp	r0, #83	; 0x53
    b060:	979ff100 	ldrls	pc, [pc, r0, lsl #2]
    b064:	ea0000c2 	b	b374 <LogPrintF+0x528>
    b068:	0000b370 	.word	0x0000b370
    b06c:	0000b374 	.word	0x0000b374
    b070:	0000b374 	.word	0x0000b374
    b074:	0000b374 	.word	0x0000b374
    b078:	0000b374 	.word	0x0000b374
    b07c:	0000b374 	.word	0x0000b374
    b080:	0000b374 	.word	0x0000b374
    b084:	0000b374 	.word	0x0000b374
    b088:	0000b374 	.word	0x0000b374
    b08c:	0000b374 	.word	0x0000b374
    b090:	0000b374 	.word	0x0000b374
    b094:	0000b374 	.word	0x0000b374
    b098:	0000b374 	.word	0x0000b374
    b09c:	0000b374 	.word	0x0000b374
    b0a0:	0000b374 	.word	0x0000b374
    b0a4:	0000b374 	.word	0x0000b374
    b0a8:	0000b374 	.word	0x0000b374
    b0ac:	0000b374 	.word	0x0000b374
    b0b0:	0000b374 	.word	0x0000b374
    b0b4:	0000b374 	.word	0x0000b374
    b0b8:	0000b374 	.word	0x0000b374
    b0bc:	0000b374 	.word	0x0000b374
    b0c0:	0000b374 	.word	0x0000b374
    b0c4:	0000b374 	.word	0x0000b374
    b0c8:	0000b374 	.word	0x0000b374
    b0cc:	0000b374 	.word	0x0000b374
    b0d0:	0000b374 	.word	0x0000b374
    b0d4:	0000b374 	.word	0x0000b374
    b0d8:	0000b374 	.word	0x0000b374
    b0dc:	0000b374 	.word	0x0000b374
    b0e0:	0000b374 	.word	0x0000b374
    b0e4:	0000b374 	.word	0x0000b374
    b0e8:	0000b650 	.word	0x0000b650
    b0ec:	0000b374 	.word	0x0000b374
    b0f0:	0000b650 	.word	0x0000b650
    b0f4:	0000b374 	.word	0x0000b374
    b0f8:	0000b374 	.word	0x0000b374
    b0fc:	0000b374 	.word	0x0000b374
    b100:	0000b374 	.word	0x0000b374
    b104:	0000b374 	.word	0x0000b374
    b108:	0000b374 	.word	0x0000b374
    b10c:	0000b374 	.word	0x0000b374
    b110:	0000b374 	.word	0x0000b374
    b114:	0000b374 	.word	0x0000b374
    b118:	0000b374 	.word	0x0000b374
    b11c:	0000b374 	.word	0x0000b374
    b120:	0000b374 	.word	0x0000b374
    b124:	0000b374 	.word	0x0000b374
    b128:	0000b374 	.word	0x0000b374
    b12c:	0000b374 	.word	0x0000b374
    b130:	0000b374 	.word	0x0000b374
    b134:	0000b3c8 	.word	0x0000b3c8
    b138:	0000b374 	.word	0x0000b374
    b13c:	0000b374 	.word	0x0000b374
    b140:	0000b374 	.word	0x0000b374
    b144:	0000b374 	.word	0x0000b374
    b148:	0000b374 	.word	0x0000b374
    b14c:	0000b374 	.word	0x0000b374
    b150:	0000b374 	.word	0x0000b374
    b154:	0000b374 	.word	0x0000b374
    b158:	0000b374 	.word	0x0000b374
    b15c:	0000b374 	.word	0x0000b374
    b160:	0000b364 	.word	0x0000b364
    b164:	0000b4f0 	.word	0x0000b4f0
    b168:	0000b650 	.word	0x0000b650
    b16c:	0000b650 	.word	0x0000b650
    b170:	0000b650 	.word	0x0000b650
    b174:	0000b374 	.word	0x0000b374
    b178:	0000b4f0 	.word	0x0000b4f0
    b17c:	0000b374 	.word	0x0000b374
    b180:	0000b374 	.word	0x0000b374
    b184:	0000b374 	.word	0x0000b374
    b188:	0000b374 	.word	0x0000b374
    b18c:	0000b5b8 	.word	0x0000b5b8
    b190:	0000b5ec 	.word	0x0000b5ec
    b194:	0000b3c8 	.word	0x0000b3c8
    b198:	0000b374 	.word	0x0000b374
    b19c:	0000b374 	.word	0x0000b374
    b1a0:	0000b5f4 	.word	0x0000b5f4
    b1a4:	0000b374 	.word	0x0000b374
    b1a8:	0000b4e8 	.word	0x0000b4e8
    b1ac:	0000b374 	.word	0x0000b374
    b1b0:	0000b374 	.word	0x0000b374
    b1b4:	0000b3c8 	.word	0x0000b3c8
    b1b8:	e2844001 	add	r4, r4, #1
    b1bc:	e1580004 	cmp	r8, r4
    b1c0:	e1a06000 	mov	r6, r0
    b1c4:	93a0a000 	movls	sl, #0
    b1c8:	83a0a001 	movhi	sl, #1
    b1cc:	e3a00001 	mov	r0, #1
    b1d0:	e355009e 	cmp	r5, #158	; 0x9e
    b1d4:	83a0a000 	movhi	sl, #0
    b1d8:	e58d6028 	str	r6, [sp, #40]	; 0x28
    b1dc:	e58d6034 	str	r6, [sp, #52]	; 0x34
    b1e0:	e58d6018 	str	r6, [sp, #24]
    b1e4:	e58d600c 	str	r6, [sp, #12]
    b1e8:	e58d6030 	str	r6, [sp, #48]	; 0x30
    b1ec:	e58d6020 	str	r6, [sp, #32]
    b1f0:	e58d6024 	str	r6, [sp, #36]	; 0x24
    b1f4:	e58d601c 	str	r6, [sp, #28]
    b1f8:	e58d602c 	str	r6, [sp, #44]	; 0x2c
    b1fc:	e58d6008 	str	r6, [sp, #8]
    b200:	e58d6004 	str	r6, [sp, #4]
    b204:	e1a03006 	mov	r3, r6
    b208:	e1a0c006 	mov	ip, r6
    b20c:	e1a0b006 	mov	fp, r6
    b210:	e58d0014 	str	r0, [sp, #20]
    b214:	eaffff5a 	b	af84 <LogPrintF+0x138>
    b218:	e7d71004 	ldrb	r1, [r7, r4]
    b21c:	e3510068 	cmp	r1, #104	; 0x68
    b220:	0a00005b 	beq	b394 <LogPrintF+0x548>
    b224:	e351006c 	cmp	r1, #108	; 0x6c
    b228:	0a000042 	beq	b338 <LogPrintF+0x4ec>
    b22c:	e351004c 	cmp	r1, #76	; 0x4c
    b230:	13a0a001 	movne	sl, #1
    b234:	158da008 	strne	sl, [sp, #8]
    b238:	1affff85 	bne	b054 <LogPrintF+0x208>
    b23c:	e3a09001 	mov	r9, #1
    b240:	e2844001 	add	r4, r4, #1
    b244:	e58d9008 	str	r9, [sp, #8]
    b248:	eaffff47 	b	af6c <LogPrintF+0x120>
    b24c:	e351002e 	cmp	r1, #46	; 0x2e
    b250:	13a09001 	movne	r9, #1
    b254:	158d9004 	strne	r9, [sp, #4]
    b258:	1affff7a 	bne	b048 <LogPrintF+0x1fc>
    b25c:	e2844001 	add	r4, r4, #1
    b260:	e59d2004 	ldr	r2, [sp, #4]
    b264:	e3a09001 	mov	r9, #1
    b268:	e355009e 	cmp	r5, #158	; 0x9e
    b26c:	91540008 	cmpls	r4, r8
    b270:	e58d9018 	str	r9, [sp, #24]
    b274:	23a0a000 	movcs	sl, #0
    b278:	33a0a001 	movcc	sl, #1
    b27c:	e1a00009 	mov	r0, r9
    b280:	e58d2014 	str	r2, [sp, #20]
    b284:	eaffff3e 	b	af84 <LogPrintF+0x138>
    b288:	e59d9030 	ldr	r9, [sp, #48]	; 0x30
    b28c:	e3590000 	cmp	r9, #0
    b290:	1affff25 	bne	af2c <LogPrintF+0xe0>
    b294:	e3a02001 	mov	r2, #1
    b298:	e58d2030 	str	r2, [sp, #48]	; 0x30
    b29c:	e2844001 	add	r4, r4, #1
    b2a0:	eaffff31 	b	af6c <LogPrintF+0x120>
    b2a4:	e59d202c 	ldr	r2, [sp, #44]	; 0x2c
    b2a8:	e3520000 	cmp	r2, #0
    b2ac:	1affff1e 	bne	af2c <LogPrintF+0xe0>
    b2b0:	e3a0a001 	mov	sl, #1
    b2b4:	e58da02c 	str	sl, [sp, #44]	; 0x2c
    b2b8:	eafffff7 	b	b29c <LogPrintF+0x450>
    b2bc:	e59d901c 	ldr	r9, [sp, #28]
    b2c0:	e3590000 	cmp	r9, #0
    b2c4:	1affff18 	bne	af2c <LogPrintF+0xe0>
    b2c8:	e3a02001 	mov	r2, #1
    b2cc:	e58d201c 	str	r2, [sp, #28]
    b2d0:	eafffff1 	b	b29c <LogPrintF+0x450>
    b2d4:	e59d2020 	ldr	r2, [sp, #32]
    b2d8:	e3520000 	cmp	r2, #0
    b2dc:	1affff12 	bne	af2c <LogPrintF+0xe0>
    b2e0:	e3a0a001 	mov	sl, #1
    b2e4:	e58da020 	str	sl, [sp, #32]
    b2e8:	eaffffeb 	b	b29c <LogPrintF+0x450>
    b2ec:	e59da024 	ldr	sl, [sp, #36]	; 0x24
    b2f0:	e35a0000 	cmp	sl, #0
    b2f4:	1affff0c 	bne	af2c <LogPrintF+0xe0>
    b2f8:	e3a09001 	mov	r9, #1
    b2fc:	e58d9024 	str	r9, [sp, #36]	; 0x24
    b300:	eaffffe5 	b	b29c <LogPrintF+0x450>
    b304:	e59d9010 	ldr	r9, [sp, #16]
    b308:	e2844001 	add	r4, r4, #1
    b30c:	e1580004 	cmp	r8, r4
    b310:	93a0a000 	movls	sl, #0
    b314:	83a0a001 	movhi	sl, #1
    b318:	e599b000 	ldr	fp, [r9]
    b31c:	e3a03001 	mov	r3, #1
    b320:	e355009e 	cmp	r5, #158	; 0x9e
    b324:	e2899004 	add	r9, r9, #4
    b328:	83a0a000 	movhi	sl, #0
    b32c:	e1a00003 	mov	r0, r3
    b330:	e58d9010 	str	r9, [sp, #16]
    b334:	eaffff12 	b	af84 <LogPrintF+0x138>
    b338:	e2844001 	add	r4, r4, #1
    b33c:	e3a0a001 	mov	sl, #1
    b340:	e3a02001 	mov	r2, #1
    b344:	e355009e 	cmp	r5, #158	; 0x9e
    b348:	91540008 	cmpls	r4, r8
    b34c:	e58da028 	str	sl, [sp, #40]	; 0x28
    b350:	e58d2008 	str	r2, [sp, #8]
    b354:	23a0a000 	movcs	sl, #0
    b358:	33a0a001 	movcc	sl, #1
    b35c:	e1a00002 	mov	r0, r2
    b360:	eaffff07 	b	af84 <LogPrintF+0x138>
    b364:	e59d2010 	ldr	r2, [sp, #16]
    b368:	e2822004 	add	r2, r2, #4
    b36c:	e58d2010 	str	r2, [sp, #16]
    b370:	e2855001 	add	r5, r5, #1
    b374:	e2844001 	add	r4, r4, #1
    b378:	e1580004 	cmp	r8, r4
    b37c:	93a0a000 	movls	sl, #0
    b380:	83a0a001 	movhi	sl, #1
    b384:	e355009e 	cmp	r5, #158	; 0x9e
    b388:	83a0a000 	movhi	sl, #0
    b38c:	e3a00000 	mov	r0, #0
    b390:	eafffefb 	b	af84 <LogPrintF+0x138>
    b394:	e2844001 	add	r4, r4, #1
    b398:	e1580004 	cmp	r8, r4
    b39c:	e3a06001 	mov	r6, #1
    b3a0:	93a0a000 	movls	sl, #0
    b3a4:	83a0a001 	movhi	sl, #1
    b3a8:	e355009e 	cmp	r5, #158	; 0x9e
    b3ac:	83a0a000 	movhi	sl, #0
    b3b0:	e58d6008 	str	r6, [sp, #8]
    b3b4:	e1a00006 	mov	r0, r6
    b3b8:	eafffef1 	b	af84 <LogPrintF+0x138>
    b3bc:	e3a0a001 	mov	sl, #1
    b3c0:	e58da004 	str	sl, [sp, #4]
    b3c4:	eaffff1f 	b	b048 <LogPrintF+0x1fc>
    b3c8:	e3a02010 	mov	r2, #16
    b3cc:	e3560000 	cmp	r6, #0
    b3d0:	0a0000c2 	beq	b6e0 <LogPrintF+0x894>
    b3d4:	e59d9010 	ldr	r9, [sp, #16]
    b3d8:	e1d900b0 	ldrh	r0, [r9]
    b3dc:	e2899004 	add	r9, r9, #4
    b3e0:	e58d9010 	str	r9, [sp, #16]
    b3e4:	e59da01c 	ldr	sl, [sp, #28]
    b3e8:	e35a0000 	cmp	sl, #0
    b3ec:	1a0000b8 	bne	b6d4 <LogPrintF+0x888>
    b3f0:	e59d9024 	ldr	r9, [sp, #36]	; 0x24
    b3f4:	e3590000 	cmp	r9, #0
    b3f8:	1a0000b5 	bne	b6d4 <LogPrintF+0x888>
    b3fc:	e59da024 	ldr	sl, [sp, #36]	; 0x24
    b400:	e59d9020 	ldr	r9, [sp, #32]
    b404:	e3590000 	cmp	r9, #0
    b408:	0a000008 	beq	b430 <LogPrintF+0x5e4>
    b40c:	e351006f 	cmp	r1, #111	; 0x6f
    b410:	0a0000d4 	beq	b768 <LogPrintF+0x91c>
    b414:	e3510075 	cmp	r1, #117	; 0x75
    b418:	0a000004 	beq	b430 <LogPrintF+0x5e4>
    b41c:	e245109e 	sub	r1, r5, #158	; 0x9e
    b420:	e3510001 	cmp	r1, #1
    b424:	82855002 	addhi	r5, r5, #2
    b428:	93a0509f 	movls	r5, #159	; 0x9f
    b42c:	e28aa002 	add	sl, sl, #2
    b430:	e59d9014 	ldr	r9, [sp, #20]
    b434:	e3590000 	cmp	r9, #0
    b438:	03500000 	cmpeq	r0, #0
    b43c:	0a0000cd 	beq	b778 <LogPrintF+0x92c>
    b440:	e3a09000 	mov	r9, #0
    b444:	e58d6040 	str	r6, [sp, #64]	; 0x40
    b448:	e58dc038 	str	ip, [sp, #56]	; 0x38
    b44c:	e1a06009 	mov	r6, r9
    b450:	e58d303c 	str	r3, [sp, #60]	; 0x3c
    b454:	e59d9014 	ldr	r9, [sp, #20]
    b458:	e58d4044 	str	r4, [sp, #68]	; 0x44
    b45c:	e1a04002 	mov	r4, r2
    b460:	e066c005 	rsb	ip, r6, r5
    b464:	e35c009e 	cmp	ip, #158	; 0x9e
    b468:	e1a01004 	mov	r1, r4
    b46c:	92855001 	addls	r5, r5, #1
    b470:	eb0000ec 	bl	b828 <__aeabi_uidiv>
    b474:	e2866001 	add	r6, r6, #1
    b478:	e1560009 	cmp	r6, r9
    b47c:	23500000 	cmpcs	r0, #0
    b480:	e086100a 	add	r1, r6, sl
    b484:	1afffff5 	bne	b460 <LogPrintF+0x614>
    b488:	e28d303c 	add	r3, sp, #60	; 0x3c
    b48c:	e59dc038 	ldr	ip, [sp, #56]	; 0x38
    b490:	e8930048 	ldm	r3, {r3, r6}
    b494:	e59d4044 	ldr	r4, [sp, #68]	; 0x44
    b498:	e151000b 	cmp	r1, fp
    b49c:	2a000009 	bcs	b4c8 <LogPrintF+0x67c>
    b4a0:	e59da02c 	ldr	sl, [sp, #44]	; 0x2c
    b4a4:	e35a0000 	cmp	sl, #0
    b4a8:	01a09001 	moveq	r9, r1
    b4ac:	13a09000 	movne	r9, #0
    b4b0:	e0692005 	rsb	r2, r9, r5
    b4b4:	e352009e 	cmp	r2, #158	; 0x9e
    b4b8:	e2811001 	add	r1, r1, #1
    b4bc:	92855001 	addls	r5, r5, #1
    b4c0:	e151000b 	cmp	r1, fp
    b4c4:	1afffff9 	bne	b4b0 <LogPrintF+0x664>
    b4c8:	e355009e 	cmp	r5, #158	; 0x9e
    b4cc:	e2844001 	add	r4, r4, #1
    b4d0:	83a0a000 	movhi	sl, #0
    b4d4:	93a0a001 	movls	sl, #1
    b4d8:	e1580004 	cmp	r8, r4
    b4dc:	93a0a000 	movls	sl, #0
    b4e0:	e3a00000 	mov	r0, #0
    b4e4:	eafffea6 	b	af84 <LogPrintF+0x138>
    b4e8:	e3a0200a 	mov	r2, #10
    b4ec:	eaffffb6 	b	b3cc <LogPrintF+0x580>
    b4f0:	e3560000 	cmp	r6, #0
    b4f4:	1a000085 	bne	b710 <LogPrintF+0x8c4>
    b4f8:	e59da028 	ldr	sl, [sp, #40]	; 0x28
    b4fc:	e35a0000 	cmp	sl, #0
    b500:	159d2010 	ldrne	r2, [sp, #16]
    b504:	059d9010 	ldreq	r9, [sp, #16]
    b508:	12820007 	addne	r0, r2, #7
    b50c:	13c00007 	bicne	r0, r0, #7
    b510:	15901000 	ldrne	r1, [r0]
    b514:	05991000 	ldreq	r1, [r9]
    b518:	12800008 	addne	r0, r0, #8
    b51c:	02899004 	addeq	r9, r9, #4
    b520:	158d0010 	strne	r0, [sp, #16]
    b524:	058d9010 	streq	r9, [sp, #16]
    b528:	e3510000 	cmp	r1, #0
    b52c:	aa00007b 	bge	b720 <LogPrintF+0x8d4>
    b530:	e2611000 	rsb	r1, r1, #0
    b534:	e2855001 	add	r5, r5, #1
    b538:	e59da014 	ldr	sl, [sp, #20]
    b53c:	e3510000 	cmp	r1, #0
    b540:	d35a0000 	cmple	sl, #0
    b544:	03a00000 	moveq	r0, #0
    b548:	13a00001 	movne	r0, #1
    b54c:	02844001 	addeq	r4, r4, #1
    b550:	058d0014 	streq	r0, [sp, #20]
    b554:	0a000011 	beq	b5a0 <LogPrintF+0x754>
    b558:	e59d2014 	ldr	r2, [sp, #20]
    b55c:	e3a09000 	mov	r9, #0
    b560:	e59f0218 	ldr	r0, [pc, #536]	; b780 <LogPrintF+0x934>
    b564:	e0c0a091 	smull	sl, r0, r1, r0
    b568:	e1a01fc1 	asr	r1, r1, #31
    b56c:	e0611140 	rsb	r1, r1, r0, asr #2
    b570:	e0690005 	rsb	r0, r9, r5
    b574:	e350009e 	cmp	r0, #158	; 0x9e
    b578:	92855001 	addls	r5, r5, #1
    b57c:	e3510000 	cmp	r1, #0
    b580:	d3a00000 	movle	r0, #0
    b584:	c3a00001 	movgt	r0, #1
    b588:	e2899001 	add	r9, r9, #1
    b58c:	e1590002 	cmp	r9, r2
    b590:	33800001 	orrcc	r0, r0, #1
    b594:	e3500000 	cmp	r0, #0
    b598:	1afffff0 	bne	b560 <LogPrintF+0x714>
    b59c:	e2844001 	add	r4, r4, #1
    b5a0:	e355009e 	cmp	r5, #158	; 0x9e
    b5a4:	83a0a000 	movhi	sl, #0
    b5a8:	93a0a001 	movls	sl, #1
    b5ac:	e1580004 	cmp	r8, r4
    b5b0:	93a0a000 	movls	sl, #0
    b5b4:	eafffe72 	b	af84 <LogPrintF+0x138>
    b5b8:	e59d9010 	ldr	r9, [sp, #16]
    b5bc:	e2844001 	add	r4, r4, #1
    b5c0:	e5991000 	ldr	r1, [r9]
    b5c4:	e1580004 	cmp	r8, r4
    b5c8:	93a0a000 	movls	sl, #0
    b5cc:	83a0a001 	movhi	sl, #1
    b5d0:	e2899004 	add	r9, r9, #4
    b5d4:	e355009e 	cmp	r5, #158	; 0x9e
    b5d8:	83a0a000 	movhi	sl, #0
    b5dc:	e5815000 	str	r5, [r1]
    b5e0:	e58d9010 	str	r9, [sp, #16]
    b5e4:	e3a00000 	mov	r0, #0
    b5e8:	eafffe65 	b	af84 <LogPrintF+0x138>
    b5ec:	e3a02008 	mov	r2, #8
    b5f0:	eaffff75 	b	b3cc <LogPrintF+0x580>
    b5f4:	e59d2010 	ldr	r2, [sp, #16]
    b5f8:	e592a000 	ldr	sl, [r2]
    b5fc:	e58db010 	str	fp, [sp, #16]
    b600:	e59d9014 	ldr	r9, [sp, #20]
    b604:	e58dc038 	str	ip, [sp, #56]	; 0x38
    b608:	e59db018 	ldr	fp, [sp, #24]
    b60c:	e2822004 	add	r2, r2, #4
    b610:	e065a00a 	rsb	sl, r5, sl
    b614:	e1a01005 	mov	r1, r5
    b618:	e7da0001 	ldrb	r0, [sl, r1]
    b61c:	e3500000 	cmp	r0, #0
    b620:	e065c001 	rsb	ip, r5, r1
    b624:	0a000044 	beq	b73c <LogPrintF+0x8f0>
    b628:	e27b0001 	rsbs	r0, fp, #1
    b62c:	33a00000 	movcc	r0, #0
    b630:	e15c0009 	cmp	ip, r9
    b634:	33800001 	orrcc	r0, r0, #1
    b638:	e3500000 	cmp	r0, #0
    b63c:	0a00003e 	beq	b73c <LogPrintF+0x8f0>
    b640:	e2811001 	add	r1, r1, #1
    b644:	e351009f 	cmp	r1, #159	; 0x9f
    b648:	1afffff2 	bne	b618 <LogPrintF+0x7cc>
    b64c:	eafffe4e 	b	af8c <LogPrintF+0x140>
    b650:	e355009f 	cmp	r5, #159	; 0x9f
    b654:	0afffe4c 	beq	af8c <LogPrintF+0x140>
    b658:	e3a01000 	mov	r1, #0
    b65c:	ea000001 	b	b668 <LogPrintF+0x81c>
    b660:	e355009f 	cmp	r5, #159	; 0x9f
    b664:	0afffe48 	beq	af8c <LogPrintF+0x140>
    b668:	e2811001 	add	r1, r1, #1
    b66c:	e151000b 	cmp	r1, fp
    b670:	23510013 	cmpcs	r1, #19
    b674:	83a00000 	movhi	r0, #0
    b678:	93a00001 	movls	r0, #1
    b67c:	e2855001 	add	r5, r5, #1
    b680:	9afffff6 	bls	b660 <LogPrintF+0x814>
    b684:	eaffffc4 	b	b59c <LogPrintF+0x750>
    b688:	e59d2034 	ldr	r2, [sp, #52]	; 0x34
    b68c:	e3520000 	cmp	r2, #0
    b690:	1afffe6a 	bne	b040 <LogPrintF+0x1f4>
    b694:	e3a09001 	mov	r9, #1
    b698:	e59d2010 	ldr	r2, [sp, #16]
    b69c:	e2844001 	add	r4, r4, #1
    b6a0:	e58d9004 	str	r9, [sp, #4]
    b6a4:	e1a00009 	mov	r0, r9
    b6a8:	e59d9010 	ldr	r9, [sp, #16]
    b6ac:	e1580004 	cmp	r8, r4
    b6b0:	e5922000 	ldr	r2, [r2]
    b6b4:	93a0a000 	movls	sl, #0
    b6b8:	83a0a001 	movhi	sl, #1
    b6bc:	e2899004 	add	r9, r9, #4
    b6c0:	e355009e 	cmp	r5, #158	; 0x9e
    b6c4:	83a0a000 	movhi	sl, #0
    b6c8:	e58d2014 	str	r2, [sp, #20]
    b6cc:	e58d9010 	str	r9, [sp, #16]
    b6d0:	eafffe2b 	b	af84 <LogPrintF+0x138>
    b6d4:	e2855001 	add	r5, r5, #1
    b6d8:	e3a0a001 	mov	sl, #1
    b6dc:	eaffff47 	b	b400 <LogPrintF+0x5b4>
    b6e0:	e59da028 	ldr	sl, [sp, #40]	; 0x28
    b6e4:	e35a0000 	cmp	sl, #0
    b6e8:	159da010 	ldrne	sl, [sp, #16]
    b6ec:	059d9010 	ldreq	r9, [sp, #16]
    b6f0:	128a9007 	addne	r9, sl, #7
    b6f4:	13c99007 	bicne	r9, r9, #7
    b6f8:	15990000 	ldrne	r0, [r9]
    b6fc:	05990000 	ldreq	r0, [r9]
    b700:	12899008 	addne	r9, r9, #8
    b704:	02899004 	addeq	r9, r9, #4
    b708:	e58d9010 	str	r9, [sp, #16]
    b70c:	eaffff34 	b	b3e4 <LogPrintF+0x598>
    b710:	e59d9010 	ldr	r9, [sp, #16]
    b714:	e1d910b0 	ldrh	r1, [r9]
    b718:	e2899004 	add	r9, r9, #4
    b71c:	e58d9010 	str	r9, [sp, #16]
    b720:	e59d201c 	ldr	r2, [sp, #28]
    b724:	e3520000 	cmp	r2, #0
    b728:	1affff81 	bne	b534 <LogPrintF+0x6e8>
    b72c:	e59d9024 	ldr	r9, [sp, #36]	; 0x24
    b730:	e3590000 	cmp	r9, #0
    b734:	0affff7f 	beq	b538 <LogPrintF+0x6ec>
    b738:	eaffff7d 	b	b534 <LogPrintF+0x6e8>
    b73c:	e351009e 	cmp	r1, #158	; 0x9e
    b740:	e2844001 	add	r4, r4, #1
    b744:	83a0a000 	movhi	sl, #0
    b748:	93a0a001 	movls	sl, #1
    b74c:	e1580004 	cmp	r8, r4
    b750:	e59db010 	ldr	fp, [sp, #16]
    b754:	e59dc038 	ldr	ip, [sp, #56]	; 0x38
    b758:	e58d2010 	str	r2, [sp, #16]
    b75c:	93a0a000 	movls	sl, #0
    b760:	e1a05001 	mov	r5, r1
    b764:	eafffe06 	b	af84 <LogPrintF+0x138>
    b768:	e355009f 	cmp	r5, #159	; 0x9f
    b76c:	12855001 	addne	r5, r5, #1
    b770:	e28aa001 	add	sl, sl, #1
    b774:	eaffff2d 	b	b430 <LogPrintF+0x5e4>
    b778:	e1a0100a 	mov	r1, sl
    b77c:	eaffff45 	b	b498 <LogPrintF+0x64c>
    b780:	66666667 	.word	0x66666667

0000b784 <LogPrint>:
    b784:	e12fff1e 	bx	lr

0000b788 <PlatformLoad>:
    b788:	e59f1014 	ldr	r1, [pc, #20]	; b7a4 <PlatformLoad+0x1c>
    b78c:	e59f3014 	ldr	r3, [pc, #20]	; b7a8 <PlatformLoad+0x20>
    b790:	e3e00000 	mvn	r0, #0
    b794:	e3a02000 	mov	r2, #0
    b798:	e5810000 	str	r0, [r1]
    b79c:	e5832000 	str	r2, [r3]
    b7a0:	e12fff1e 	bx	lr
    b7a4:	000160e0 	.word	0x000160e0
    b7a8:	00016164 	.word	0x00016164

0000b7ac <Arm6Load>:
    b7ac:	e12fff1e 	bx	lr

0000b7b0 <__aeabi_uidivmod>:
    b7b0:	e92d0070 	push	{r4, r5, r6}
    b7b4:	e3a0c01f 	mov	ip, #31
    b7b8:	e3a02000 	mov	r2, #0
    b7bc:	e3a03000 	mov	r3, #0
    b7c0:	e3a06001 	mov	r6, #1
    b7c4:	ea000001 	b	b7d0 <__aeabi_uidivmod+0x20>
    b7c8:	e25cc001 	subs	ip, ip, #1
    b7cc:	3a00000f 	bcc	b810 <__aeabi_uidivmod+0x60>
    b7d0:	e1a04c11 	lsl	r4, r1, ip
    b7d4:	e1510c34 	cmp	r1, r4, lsr ip
    b7d8:	1afffffa 	bne	b7c8 <__aeabi_uidivmod+0x18>
    b7dc:	e1540000 	cmp	r4, r0
    b7e0:	8afffff8 	bhi	b7c8 <__aeabi_uidivmod+0x18>
    b7e4:	e1a05c16 	lsl	r5, r6, ip
    b7e8:	e0500004 	subs	r0, r0, r4
    b7ec:	e1822005 	orr	r2, r2, r5
    b7f0:	e1833fc5 	orr	r3, r3, r5, asr #31
    b7f4:	1afffff3 	bne	b7c8 <__aeabi_uidivmod+0x18>
    b7f8:	e3a04000 	mov	r4, #0
    b7fc:	e3a05000 	mov	r5, #0
    b800:	e1840002 	orr	r0, r4, r2
    b804:	e1851003 	orr	r1, r5, r3
    b808:	e8bd0070 	pop	{r4, r5, r6}
    b80c:	e12fff1e 	bx	lr
    b810:	e1a05000 	mov	r5, r0
    b814:	e3a04000 	mov	r4, #0
    b818:	e1840002 	orr	r0, r4, r2
    b81c:	e1851003 	orr	r1, r5, r3
    b820:	e8bd0070 	pop	{r4, r5, r6}
    b824:	e12fff1e 	bx	lr

0000b828 <__aeabi_uidiv>:
    b828:	e92d4008 	push	{r3, lr}
    b82c:	ebffffdf 	bl	b7b0 <__aeabi_uidivmod>
    b830:	e8bd4008 	pop	{r3, lr}
    b834:	e12fff1e 	bx	lr

0000b838 <UsbGetRootHub>:
    b838:	e59f3004 	ldr	r3, [pc, #4]	; b844 <UsbGetRootHub+0xc>
    b83c:	e5930000 	ldr	r0, [r3]
    b840:	e12fff1e 	bx	lr
    b844:	0001ae00 	.word	0x0001ae00

0000b848 <UsbLoad>:
    b848:	e92d4008 	push	{r3, lr}
    b84c:	e3a0101e 	mov	r1, #30
    b850:	e59f0038 	ldr	r0, [pc, #56]	; b890 <UsbLoad+0x48>
    b854:	ebffffca 	bl	b784 <LogPrint>
    b858:	e59f3034 	ldr	r3, [pc, #52]	; b894 <UsbLoad+0x4c>
    b85c:	e3a01000 	mov	r1, #0
    b860:	e2832080 	add	r2, r3, #128	; 0x80
    b864:	e5a31004 	str	r1, [r3, #4]!
    b868:	e1530002 	cmp	r3, r2
    b86c:	1afffffc 	bne	b864 <UsbLoad+0x1c>
    b870:	e59f3020 	ldr	r3, [pc, #32]	; b898 <UsbLoad+0x50>
    b874:	e3a01000 	mov	r1, #0
    b878:	e2832040 	add	r2, r3, #64	; 0x40
    b87c:	e5a31004 	str	r1, [r3, #4]!
    b880:	e1530002 	cmp	r3, r2
    b884:	1afffffc 	bne	b87c <UsbLoad+0x34>
    b888:	e8bd4008 	pop	{r3, lr}
    b88c:	e12fff1e 	bx	lr
    b890:	00012e24 	.word	0x00012e24
    b894:	0001adfc 	.word	0x0001adfc
    b898:	0001adbc 	.word	0x0001adbc

0000b89c <UsbControlMessage>:
    b89c:	e92d4070 	push	{r4, r5, r6, lr}
    b8a0:	e24dd010 	sub	sp, sp, #16
    b8a4:	e59dc020 	ldr	ip, [sp, #32]
    b8a8:	e58dc000 	str	ip, [sp]
    b8ac:	e58d100c 	str	r1, [sp, #12]
    b8b0:	e1a05000 	mov	r5, r0
    b8b4:	e59d6024 	ldr	r6, [sp, #36]	; 0x24
    b8b8:	eb001712 	bl	11508 <HcdSumbitControlMessage>
    b8bc:	e3500000 	cmp	r0, #0
    b8c0:	1a000021 	bne	b94c <UsbControlMessage+0xb0>
    b8c4:	e3560000 	cmp	r6, #0
    b8c8:	e2466001 	sub	r6, r6, #1
    b8cc:	0a00000c 	beq	b904 <UsbControlMessage+0x68>
    b8d0:	e5953008 	ldr	r3, [r5, #8]
    b8d4:	e3530000 	cmp	r3, #0
    b8d8:	aa000009 	bge	b904 <UsbControlMessage+0x68>
    b8dc:	e1a04000 	mov	r4, r0
    b8e0:	ea000003 	b	b8f4 <UsbControlMessage+0x58>
    b8e4:	e5953008 	ldr	r3, [r5, #8]
    b8e8:	e3530000 	cmp	r3, #0
    b8ec:	e2844001 	add	r4, r4, #1
    b8f0:	aa000003 	bge	b904 <UsbControlMessage+0x68>
    b8f4:	e3a00ffa 	mov	r0, #1000	; 0x3e8
    b8f8:	eb001bab 	bl	127ac <MicroDelay>
    b8fc:	e1560004 	cmp	r6, r4
    b900:	1afffff7 	bne	b8e4 <UsbControlMessage+0x48>
    b904:	e5953008 	ldr	r3, [r5, #8]
    b908:	e3530000 	cmp	r3, #0
    b90c:	ba000015 	blt	b968 <UsbControlMessage+0xcc>
    b910:	e5950008 	ldr	r0, [r5, #8]
    b914:	e3d00102 	bics	r0, r0, #-2147483648	; 0x80000000
    b918:	0a00000b 	beq	b94c <UsbControlMessage+0xb0>
    b91c:	e595040c 	ldr	r0, [r5, #1036]	; 0x40c
    b920:	e3500000 	cmp	r0, #0
    b924:	0a00000d 	beq	b960 <UsbControlMessage+0xc4>
    b928:	e5903020 	ldr	r3, [r0, #32]
    b92c:	e3530000 	cmp	r3, #0
    b930:	0a00000a 	beq	b960 <UsbControlMessage+0xc4>
    b934:	e1a01005 	mov	r1, r5
    b938:	e1a0e00f 	mov	lr, pc
    b93c:	e12fff13 	bx	r3
    b940:	e3500000 	cmp	r0, #0
    b944:	03a000fc 	moveq	r0, #252	; 0xfc
    b948:	13a000f7 	movne	r0, #247	; 0xf7
    b94c:	e1a00c00 	lsl	r0, r0, #24
    b950:	e1a00c40 	asr	r0, r0, #24
    b954:	e28dd010 	add	sp, sp, #16
    b958:	e8bd4070 	pop	{r4, r5, r6, lr}
    b95c:	e12fff1e 	bx	lr
    b960:	e3a000fc 	mov	r0, #252	; 0xfc
    b964:	eafffff8 	b	b94c <UsbControlMessage+0xb0>
    b968:	e3a000f8 	mov	r0, #248	; 0xf8
    b96c:	eafffff6 	b	b94c <UsbControlMessage+0xb0>

0000b970 <UsbGetDescription>:
    b970:	e5d03005 	ldrb	r3, [r0, #5]
    b974:	e3530000 	cmp	r3, #0
    b978:	0a00001c 	beq	b9f0 <UsbGetDescription+0x80>
    b97c:	e3530001 	cmp	r3, #1
    b980:	0a00001c 	beq	b9f8 <UsbGetDescription+0x88>
    b984:	e59f223c 	ldr	r2, [pc, #572]	; bbc8 <UsbGetDescription+0x258>
    b988:	e5922000 	ldr	r2, [r2]
    b98c:	e1520000 	cmp	r2, r0
    b990:	0a00004a 	beq	bac0 <UsbGetDescription+0x150>
    b994:	e5d02028 	ldrb	r2, [r0, #40]	; 0x28
    b998:	e20220ff 	and	r2, r2, #255	; 0xff
    b99c:	e3520009 	cmp	r2, #9
    b9a0:	0a000031 	beq	ba6c <UsbGetDescription+0xfc>
    b9a4:	e35200ff 	cmp	r2, #255	; 0xff
    b9a8:	0a000003 	beq	b9bc <UsbGetDescription+0x4c>
    b9ac:	e3520000 	cmp	r2, #0
    b9b0:	0a000005 	beq	b9cc <UsbGetDescription+0x5c>
    b9b4:	e59f0210 	ldr	r0, [pc, #528]	; bbcc <UsbGetDescription+0x25c>
    b9b8:	e12fff1e 	bx	lr
    b9bc:	e1d012bc 	ldrh	r1, [r0, #44]	; 0x2c
    b9c0:	e59f2208 	ldr	r2, [pc, #520]	; bbd0 <UsbGetDescription+0x260>
    b9c4:	e1510002 	cmp	r1, r2
    b9c8:	0a000035 	beq	baa4 <UsbGetDescription+0x134>
    b9cc:	e3530004 	cmp	r3, #4
    b9d0:	0a00000a 	beq	ba00 <UsbGetDescription+0x90>
    b9d4:	e5d00028 	ldrb	r0, [r0, #40]	; 0x28
    b9d8:	e59f31f4 	ldr	r3, [pc, #500]	; bbd4 <UsbGetDescription+0x264>
    b9dc:	e35000ff 	cmp	r0, #255	; 0xff
    b9e0:	e2832018 	add	r2, r3, #24
    b9e4:	11a00003 	movne	r0, r3
    b9e8:	01a00002 	moveq	r0, r2
    b9ec:	e12fff1e 	bx	lr
    b9f0:	e59f01e0 	ldr	r0, [pc, #480]	; bbd8 <UsbGetDescription+0x268>
    b9f4:	e12fff1e 	bx	lr
    b9f8:	e59f01dc 	ldr	r0, [pc, #476]	; bbdc <UsbGetDescription+0x26c>
    b9fc:	e12fff1e 	bx	lr
    ba00:	e5d03049 	ldrb	r3, [r0, #73]	; 0x49
    ba04:	e20330ff 	and	r3, r3, #255	; 0xff
    ba08:	e353000a 	cmp	r3, #10
    ba0c:	0a00004c 	beq	bb44 <UsbGetDescription+0x1d4>
    ba10:	9a00000b 	bls	ba44 <UsbGetDescription+0xd4>
    ba14:	e3530010 	cmp	r3, #16
    ba18:	0a00005b 	beq	bb8c <UsbGetDescription+0x21c>
    ba1c:	8a00002f 	bhi	bae0 <UsbGetDescription+0x170>
    ba20:	e353000d 	cmp	r3, #13
    ba24:	0a00004e 	beq	bb64 <UsbGetDescription+0x1f4>
    ba28:	9a00003d 	bls	bb24 <UsbGetDescription+0x1b4>
    ba2c:	e353000e 	cmp	r3, #14
    ba30:	0a000053 	beq	bb84 <UsbGetDescription+0x214>
    ba34:	e353000f 	cmp	r3, #15
    ba38:	1affffdd 	bne	b9b4 <UsbGetDescription+0x44>
    ba3c:	e59f019c 	ldr	r0, [pc, #412]	; bbe0 <UsbGetDescription+0x270>
    ba40:	e12fff1e 	bx	lr
    ba44:	e3530005 	cmp	r3, #5
    ba48:	0a000049 	beq	bb74 <UsbGetDescription+0x204>
    ba4c:	9a00002c 	bls	bb04 <UsbGetDescription+0x194>
    ba50:	e3530007 	cmp	r3, #7
    ba54:	0a000040 	beq	bb5c <UsbGetDescription+0x1ec>
    ba58:	3a00003d 	bcc	bb54 <UsbGetDescription+0x1e4>
    ba5c:	e3530008 	cmp	r3, #8
    ba60:	0a000039 	beq	bb4c <UsbGetDescription+0x1dc>
    ba64:	e3530009 	cmp	r3, #9
    ba68:	1affffd1 	bne	b9b4 <UsbGetDescription+0x44>
    ba6c:	e1d032b6 	ldrh	r3, [r0, #38]	; 0x26
    ba70:	e3530e21 	cmp	r3, #528	; 0x210
    ba74:	0a000013 	beq	bac8 <UsbGetDescription+0x158>
    ba78:	e1d032b6 	ldrh	r3, [r0, #38]	; 0x26
    ba7c:	e3530c02 	cmp	r3, #512	; 0x200
    ba80:	0a000012 	beq	bad0 <UsbGetDescription+0x160>
    ba84:	e1d032b6 	ldrh	r3, [r0, #38]	; 0x26
    ba88:	e3530e11 	cmp	r3, #272	; 0x110
    ba8c:	0a000011 	beq	bad8 <UsbGetDescription+0x168>
    ba90:	e1d032b6 	ldrh	r3, [r0, #38]	; 0x26
    ba94:	e3530c01 	cmp	r3, #256	; 0x100
    ba98:	0a000006 	beq	bab8 <UsbGetDescription+0x148>
    ba9c:	e59f0140 	ldr	r0, [pc, #320]	; bbe4 <UsbGetDescription+0x274>
    baa0:	e12fff1e 	bx	lr
    baa4:	e1d022be 	ldrh	r2, [r0, #46]	; 0x2e
    baa8:	e3520b3b 	cmp	r2, #60416	; 0xec00
    baac:	1affffc6 	bne	b9cc <UsbGetDescription+0x5c>
    bab0:	e59f0130 	ldr	r0, [pc, #304]	; bbe8 <UsbGetDescription+0x278>
    bab4:	e12fff1e 	bx	lr
    bab8:	e59f012c 	ldr	r0, [pc, #300]	; bbec <UsbGetDescription+0x27c>
    babc:	e12fff1e 	bx	lr
    bac0:	e59f0128 	ldr	r0, [pc, #296]	; bbf0 <UsbGetDescription+0x280>
    bac4:	e12fff1e 	bx	lr
    bac8:	e59f0124 	ldr	r0, [pc, #292]	; bbf4 <UsbGetDescription+0x284>
    bacc:	e12fff1e 	bx	lr
    bad0:	e59f0120 	ldr	r0, [pc, #288]	; bbf8 <UsbGetDescription+0x288>
    bad4:	e12fff1e 	bx	lr
    bad8:	e59f011c 	ldr	r0, [pc, #284]	; bbfc <UsbGetDescription+0x28c>
    badc:	e12fff1e 	bx	lr
    bae0:	e35300e0 	cmp	r3, #224	; 0xe0
    bae4:	0a000020 	beq	bb6c <UsbGetDescription+0x1fc>
    bae8:	9a000011 	bls	bb34 <UsbGetDescription+0x1c4>
    baec:	e35300ef 	cmp	r3, #239	; 0xef
    baf0:	0a000021 	beq	bb7c <UsbGetDescription+0x20c>
    baf4:	e35300ff 	cmp	r3, #255	; 0xff
    baf8:	1affffad 	bne	b9b4 <UsbGetDescription+0x44>
    bafc:	e59f00fc 	ldr	r0, [pc, #252]	; bc00 <UsbGetDescription+0x290>
    bb00:	e12fff1e 	bx	lr
    bb04:	e3530002 	cmp	r3, #2
    bb08:	0a00002a 	beq	bbb8 <UsbGetDescription+0x248>
    bb0c:	e3530003 	cmp	r3, #3
    bb10:	0a00001f 	beq	bb94 <UsbGetDescription+0x224>
    bb14:	e3530001 	cmp	r3, #1
    bb18:	1affffa5 	bne	b9b4 <UsbGetDescription+0x44>
    bb1c:	e59f00e0 	ldr	r0, [pc, #224]	; bc04 <UsbGetDescription+0x294>
    bb20:	e12fff1e 	bx	lr
    bb24:	e353000b 	cmp	r3, #11
    bb28:	1affffa1 	bne	b9b4 <UsbGetDescription+0x44>
    bb2c:	e59f00d4 	ldr	r0, [pc, #212]	; bc08 <UsbGetDescription+0x298>
    bb30:	e12fff1e 	bx	lr
    bb34:	e35300dc 	cmp	r3, #220	; 0xdc
    bb38:	1affff9d 	bne	b9b4 <UsbGetDescription+0x44>
    bb3c:	e59f00c8 	ldr	r0, [pc, #200]	; bc0c <UsbGetDescription+0x29c>
    bb40:	e12fff1e 	bx	lr
    bb44:	e59f00c4 	ldr	r0, [pc, #196]	; bc10 <UsbGetDescription+0x2a0>
    bb48:	e12fff1e 	bx	lr
    bb4c:	e59f00c0 	ldr	r0, [pc, #192]	; bc14 <UsbGetDescription+0x2a4>
    bb50:	e12fff1e 	bx	lr
    bb54:	e59f00bc 	ldr	r0, [pc, #188]	; bc18 <UsbGetDescription+0x2a8>
    bb58:	e12fff1e 	bx	lr
    bb5c:	e59f00b8 	ldr	r0, [pc, #184]	; bc1c <UsbGetDescription+0x2ac>
    bb60:	e12fff1e 	bx	lr
    bb64:	e59f00b4 	ldr	r0, [pc, #180]	; bc20 <UsbGetDescription+0x2b0>
    bb68:	e12fff1e 	bx	lr
    bb6c:	e59f00b0 	ldr	r0, [pc, #176]	; bc24 <UsbGetDescription+0x2b4>
    bb70:	e12fff1e 	bx	lr
    bb74:	e59f00ac 	ldr	r0, [pc, #172]	; bc28 <UsbGetDescription+0x2b8>
    bb78:	e12fff1e 	bx	lr
    bb7c:	e59f00a8 	ldr	r0, [pc, #168]	; bc2c <UsbGetDescription+0x2bc>
    bb80:	e12fff1e 	bx	lr
    bb84:	e59f00a4 	ldr	r0, [pc, #164]	; bc30 <UsbGetDescription+0x2c0>
    bb88:	e12fff1e 	bx	lr
    bb8c:	e59f00a0 	ldr	r0, [pc, #160]	; bc34 <UsbGetDescription+0x2c4>
    bb90:	e12fff1e 	bx	lr
    bb94:	e5d0304b 	ldrb	r3, [r0, #75]	; 0x4b
    bb98:	e20330ff 	and	r3, r3, #255	; 0xff
    bb9c:	e3530001 	cmp	r3, #1
    bba0:	0a000006 	beq	bbc0 <UsbGetDescription+0x250>
    bba4:	e59f208c 	ldr	r2, [pc, #140]	; bc38 <UsbGetDescription+0x2c8>
    bba8:	e3530002 	cmp	r3, #2
    bbac:	e282000c 	add	r0, r2, #12
    bbb0:	01a00002 	moveq	r0, r2
    bbb4:	e12fff1e 	bx	lr
    bbb8:	e59f007c 	ldr	r0, [pc, #124]	; bc3c <UsbGetDescription+0x2cc>
    bbbc:	e12fff1e 	bx	lr
    bbc0:	e59f0078 	ldr	r0, [pc, #120]	; bc40 <UsbGetDescription+0x2d0>
    bbc4:	e12fff1e 	bx	lr
    bbc8:	0001ae00 	.word	0x0001ae00
    bbcc:	00012d44 	.word	0x00012d44
    bbd0:	00000424 	.word	0x00000424
    bbd4:	00012d18 	.word	0x00012d18
    bbd8:	00012bd4 	.word	0x00012bd4
    bbdc:	00012bec 	.word	0x00012bec
    bbe0:	00012dac 	.word	0x00012dac
    bbe4:	00012c58 	.word	0x00012c58
    bbe8:	00012c64 	.word	0x00012c64
    bbec:	00012c48 	.word	0x00012c48
    bbf0:	00012c08 	.word	0x00012c08
    bbf4:	00012c18 	.word	0x00012c18
    bbf8:	00012c28 	.word	0x00012c28
    bbfc:	00012c38 	.word	0x00012c38
    bc00:	00012d30 	.word	0x00012d30
    bc04:	00012c74 	.word	0x00012c74
    bc08:	00012d6c 	.word	0x00012d6c
    bc0c:	00012dd4 	.word	0x00012dd4
    bc10:	00012d54 	.word	0x00012d54
    bc14:	00012cfc 	.word	0x00012cfc
    bc18:	00012cd8 	.word	0x00012cd8
    bc1c:	00012cec 	.word	0x00012cec
    bc20:	00012d7c 	.word	0x00012d7c
    bc24:	00012dec 	.word	0x00012dec
    bc28:	00012cc0 	.word	0x00012cc0
    bc2c:	00012e08 	.word	0x00012e08
    bc30:	00012d98 	.word	0x00012d98
    bc34:	00012dc4 	.word	0x00012dc4
    bc38:	00012ca8 	.word	0x00012ca8
    bc3c:	00012c88 	.word	0x00012c88
    bc40:	00012c98 	.word	0x00012c98

0000bc44 <UsbGetDescriptor>:
    bc44:	e92d43f0 	push	{r4, r5, r6, r7, r8, r9, lr}
    bc48:	e1a04000 	mov	r4, r0
    bc4c:	e5d0002b 	ldrb	r0, [r0, #43]	; 0x2b
    bc50:	e24dd024 	sub	sp, sp, #36	; 0x24
    bc54:	e20000ff 	and	r0, r0, #255	; 0xff
    bc58:	e3a05000 	mov	r5, #0
    bc5c:	e1a06002 	mov	r6, r2
    bc60:	e3500008 	cmp	r0, #8
    bc64:	e28d2040 	add	r2, sp, #64	; 0x40
    bc68:	e1a07001 	mov	r7, r1
    bc6c:	e1a09003 	mov	r9, r3
    bc70:	e58d5014 	str	r5, [sp, #20]
    bc74:	e8924004 	ldm	r2, {r2, lr}
    bc78:	e5ddc04c 	ldrb	ip, [sp, #76]	; 0x4c
    bc7c:	9a000005 	bls	bc98 <UsbGetDescriptor+0x54>
    bc80:	e3500010 	cmp	r0, #16
    bc84:	93a05001 	movls	r5, #1
    bc88:	9a000002 	bls	bc98 <UsbGetDescriptor+0x54>
    bc8c:	e3500020 	cmp	r0, #32
    bc90:	83a05003 	movhi	r5, #3
    bc94:	93a05002 	movls	r5, #2
    bc98:	e5dd0014 	ldrb	r0, [sp, #20]
    bc9c:	e5d43004 	ldrb	r3, [r4, #4]
    bca0:	e5dd1016 	ldrb	r1, [sp, #22]
    bca4:	e20000f0 	and	r0, r0, #240	; 0xf0
    bca8:	e1800005 	orr	r0, r0, r5
    bcac:	e2035003 	and	r5, r3, #3
    bcb0:	e5d43000 	ldrb	r3, [r4]
    bcb4:	e1805105 	orr	r5, r0, r5, lsl #2
    bcb8:	e3811004 	orr	r1, r1, #4
    bcbc:	e5cd5014 	strb	r5, [sp, #20]
    bcc0:	e5cd3015 	strb	r3, [sp, #21]
    bcc4:	e5cd1016 	strb	r1, [sp, #22]
    bcc8:	e28d5018 	add	r5, sp, #24
    bccc:	e3a0000a 	mov	r0, #10
    bcd0:	e1e0cc8c 	mvn	ip, ip, lsl #25
    bcd4:	e1e0ccac 	mvn	ip, ip, lsr #25
    bcd8:	e58d5000 	str	r5, [sp]
    bcdc:	e58d0004 	str	r0, [sp, #4]
    bce0:	e1865407 	orr	r5, r6, r7, lsl #8
    bce4:	e1a0300e 	mov	r3, lr
    bce8:	e59d1014 	ldr	r1, [sp, #20]
    bcec:	e3a08006 	mov	r8, #6
    bcf0:	e1a00004 	mov	r0, r4
    bcf4:	e1cd51ba 	strh	r5, [sp, #26]
    bcf8:	e5cdc018 	strb	ip, [sp, #24]
    bcfc:	e1cd91bc 	strh	r9, [sp, #28]
    bd00:	e1cde1be 	strh	lr, [sp, #30]
    bd04:	e5cd8019 	strb	r8, [sp, #25]
    bd08:	ebfffee3 	bl	b89c <UsbControlMessage>
    bd0c:	e2505000 	subs	r5, r0, #0
    bd10:	1a000008 	bne	bd38 <UsbGetDescriptor+0xf4>
    bd14:	e5943418 	ldr	r3, [r4, #1048]	; 0x418
    bd18:	e59d2048 	ldr	r2, [sp, #72]	; 0x48
    bd1c:	e1530002 	cmp	r3, r2
    bd20:	3a00000d 	bcc	bd5c <UsbGetDescriptor+0x118>
    bd24:	e1a00c05 	lsl	r0, r5, #24
    bd28:	e1a00c40 	asr	r0, r0, #24
    bd2c:	e28dd024 	add	sp, sp, #36	; 0x24
    bd30:	e8bd43f0 	pop	{r4, r5, r6, r7, r8, r9, lr}
    bd34:	e12fff1e 	bx	lr
    bd38:	e1a00004 	mov	r0, r4
    bd3c:	ebffff0b 	bl	b970 <UsbGetDescription>
    bd40:	e1a02007 	mov	r2, r7
    bd44:	e88d0021 	stm	sp, {r0, r5}
    bd48:	e1a03006 	mov	r3, r6
    bd4c:	e59f0040 	ldr	r0, [pc, #64]	; bd94 <UsbGetDescriptor+0x150>
    bd50:	e3a01043 	mov	r1, #67	; 0x43
    bd54:	ebfffc3c 	bl	ae4c <LogPrintF>
    bd58:	eafffff1 	b	bd24 <UsbGetDescriptor+0xe0>
    bd5c:	e1a00004 	mov	r0, r4
    bd60:	e5944418 	ldr	r4, [r4, #1048]	; 0x418
    bd64:	ebffff01 	bl	b970 <UsbGetDescription>
    bd68:	e58d500c 	str	r5, [sp, #12]
    bd6c:	e58d0008 	str	r0, [sp, #8]
    bd70:	e1a02004 	mov	r2, r4
    bd74:	e58d7000 	str	r7, [sp]
    bd78:	e58d6004 	str	r6, [sp, #4]
    bd7c:	e59f0014 	ldr	r0, [pc, #20]	; bd98 <UsbGetDescriptor+0x154>
    bd80:	e3a01050 	mov	r1, #80	; 0x50
    bd84:	e59d3048 	ldr	r3, [sp, #72]	; 0x48
    bd88:	ebfffc2f 	bl	ae4c <LogPrintF>
    bd8c:	e3a050fc 	mov	r5, #252	; 0xfc
    bd90:	eaffffe3 	b	bd24 <UsbGetDescriptor+0xe0>
    bd94:	00012e44 	.word	0x00012e44
    bd98:	00012e88 	.word	0x00012e88

0000bd9c <UsbGetString>:
    bd9c:	e92d47f0 	push	{r4, r5, r6, r7, r8, r9, sl, lr}
    bda0:	e24dd010 	sub	sp, sp, #16
    bda4:	e59d5030 	ldr	r5, [sp, #48]	; 0x30
    bda8:	e1a0a000 	mov	sl, r0
    bdac:	e1a09001 	mov	r9, r1
    bdb0:	e1a08002 	mov	r8, r2
    bdb4:	e1a07003 	mov	r7, r3
    bdb8:	e3a04003 	mov	r4, #3
    bdbc:	e3a06000 	mov	r6, #0
    bdc0:	e58d7000 	str	r7, [sp]
    bdc4:	e58d5004 	str	r5, [sp, #4]
    bdc8:	e58d5008 	str	r5, [sp, #8]
    bdcc:	e58d600c 	str	r6, [sp, #12]
    bdd0:	e1a0000a 	mov	r0, sl
    bdd4:	e3a01003 	mov	r1, #3
    bdd8:	e1a02009 	mov	r2, r9
    bddc:	e1a03008 	mov	r3, r8
    bde0:	ebffff97 	bl	bc44 <UsbGetDescriptor>
    bde4:	e3500000 	cmp	r0, #0
    bde8:	0a000001 	beq	bdf4 <UsbGetString+0x58>
    bdec:	e2544001 	subs	r4, r4, #1
    bdf0:	1afffff2 	bne	bdc0 <UsbGetString+0x24>
    bdf4:	e1a00c00 	lsl	r0, r0, #24
    bdf8:	e1a00c40 	asr	r0, r0, #24
    bdfc:	e28dd010 	add	sp, sp, #16
    be00:	e8bd47f0 	pop	{r4, r5, r6, r7, r8, r9, sl, lr}
    be04:	e12fff1e 	bx	lr

0000be08 <UsbReadStringLang>:
    be08:	e92d41f0 	push	{r4, r5, r6, r7, r8, lr}
    be0c:	e24dd008 	sub	sp, sp, #8
    be10:	e59d4020 	ldr	r4, [sp, #32]
    be14:	e3540002 	cmp	r4, #2
    be18:	31a0c004 	movcc	ip, r4
    be1c:	23a0c002 	movcs	ip, #2
    be20:	e58dc000 	str	ip, [sp]
    be24:	e1a05000 	mov	r5, r0
    be28:	e1a08001 	mov	r8, r1
    be2c:	e1a07002 	mov	r7, r2
    be30:	e1a06003 	mov	r6, r3
    be34:	ebffffd8 	bl	bd9c <UsbGetString>
    be38:	e3500000 	cmp	r0, #0
    be3c:	1a00000d 	bne	be78 <UsbReadStringLang+0x70>
    be40:	e5953418 	ldr	r3, [r5, #1048]	; 0x418
    be44:	e1530004 	cmp	r3, r4
    be48:	0a00000a 	beq	be78 <UsbReadStringLang+0x70>
    be4c:	e5d63000 	ldrb	r3, [r6]
    be50:	e1540003 	cmp	r4, r3
    be54:	958d4020 	strls	r4, [sp, #32]
    be58:	858d3020 	strhi	r3, [sp, #32]
    be5c:	e1a00005 	mov	r0, r5
    be60:	e1a01008 	mov	r1, r8
    be64:	e1a02007 	mov	r2, r7
    be68:	e1a03006 	mov	r3, r6
    be6c:	e28dd008 	add	sp, sp, #8
    be70:	e8bd41f0 	pop	{r4, r5, r6, r7, r8, lr}
    be74:	eaffffc8 	b	bd9c <UsbGetString>
    be78:	e1a00c00 	lsl	r0, r0, #24
    be7c:	e1a00c40 	asr	r0, r0, #24
    be80:	e28dd008 	add	sp, sp, #8
    be84:	e8bd41f0 	pop	{r4, r5, r6, r7, r8, lr}
    be88:	e12fff1e 	bx	lr

0000be8c <UsbReadDeviceDescriptor>:
    be8c:	e92d40f0 	push	{r4, r5, r6, r7, lr}
    be90:	e5d05004 	ldrb	r5, [r0, #4]
    be94:	e3a03000 	mov	r3, #0
    be98:	e3550002 	cmp	r5, #2
    be9c:	e24dd014 	sub	sp, sp, #20
    bea0:	e1a04000 	mov	r4, r0
    bea4:	e1a02003 	mov	r2, r3
    bea8:	0a00002a 	beq	bf58 <UsbReadDeviceDescriptor+0xcc>
    beac:	e3550001 	cmp	r5, #1
    beb0:	0a00000e 	beq	bef0 <UsbReadDeviceDescriptor+0x64>
    beb4:	e3a01012 	mov	r1, #18
    beb8:	e3a0e040 	mov	lr, #64	; 0x40
    bebc:	e280c024 	add	ip, r0, #36	; 0x24
    bec0:	e58d300c 	str	r3, [sp, #12]
    bec4:	e5c0e02b 	strb	lr, [r0, #43]	; 0x2b
    bec8:	e58d1004 	str	r1, [sp, #4]
    becc:	e58d1008 	str	r1, [sp, #8]
    bed0:	e58dc000 	str	ip, [sp]
    bed4:	e3a01001 	mov	r1, #1
    bed8:	ebffff59 	bl	bc44 <UsbGetDescriptor>
    bedc:	e1a00c00 	lsl	r0, r0, #24
    bee0:	e1a00c40 	asr	r0, r0, #24
    bee4:	e28dd014 	add	sp, sp, #20
    bee8:	e8bd40f0 	pop	{r4, r5, r6, r7, lr}
    beec:	e12fff1e 	bx	lr
    bef0:	e3a0c040 	mov	ip, #64	; 0x40
    bef4:	e2807024 	add	r7, r0, #36	; 0x24
    bef8:	e3a01008 	mov	r1, #8
    befc:	e3a06012 	mov	r6, #18
    bf00:	e58d300c 	str	r3, [sp, #12]
    bf04:	e5c0c02b 	strb	ip, [r0, #43]	; 0x2b
    bf08:	e58d1008 	str	r1, [sp, #8]
    bf0c:	e58d7000 	str	r7, [sp]
    bf10:	e58d6004 	str	r6, [sp, #4]
    bf14:	e1a01005 	mov	r1, r5
    bf18:	ebffff49 	bl	bc44 <UsbGetDescriptor>
    bf1c:	e3500000 	cmp	r0, #0
    bf20:	1affffed 	bne	bedc <UsbReadDeviceDescriptor+0x50>
    bf24:	e5943418 	ldr	r3, [r4, #1048]	; 0x418
    bf28:	e1530006 	cmp	r3, r6
    bf2c:	0a000022 	beq	bfbc <UsbReadDeviceDescriptor+0x130>
    bf30:	e1a02000 	mov	r2, r0
    bf34:	e58d000c 	str	r0, [sp, #12]
    bf38:	e58d7000 	str	r7, [sp]
    bf3c:	e58d6004 	str	r6, [sp, #4]
    bf40:	e58d6008 	str	r6, [sp, #8]
    bf44:	e1a00004 	mov	r0, r4
    bf48:	e1a01005 	mov	r1, r5
    bf4c:	e1a03002 	mov	r3, r2
    bf50:	ebffff3b 	bl	bc44 <UsbGetDescriptor>
    bf54:	eaffffe0 	b	bedc <UsbReadDeviceDescriptor+0x50>
    bf58:	e3a01008 	mov	r1, #8
    bf5c:	e2806024 	add	r6, r0, #36	; 0x24
    bf60:	e3a05012 	mov	r5, #18
    bf64:	e58d300c 	str	r3, [sp, #12]
    bf68:	e5c0102b 	strb	r1, [r0, #43]	; 0x2b
    bf6c:	e58d1008 	str	r1, [sp, #8]
    bf70:	e58d6000 	str	r6, [sp]
    bf74:	e58d5004 	str	r5, [sp, #4]
    bf78:	e3a01001 	mov	r1, #1
    bf7c:	ebffff30 	bl	bc44 <UsbGetDescriptor>
    bf80:	e3500000 	cmp	r0, #0
    bf84:	1affffd4 	bne	bedc <UsbReadDeviceDescriptor+0x50>
    bf88:	e5943418 	ldr	r3, [r4, #1048]	; 0x418
    bf8c:	e1530005 	cmp	r3, r5
    bf90:	0a000009 	beq	bfbc <UsbReadDeviceDescriptor+0x130>
    bf94:	e1a02000 	mov	r2, r0
    bf98:	e58d000c 	str	r0, [sp, #12]
    bf9c:	e58d6000 	str	r6, [sp]
    bfa0:	e58d5004 	str	r5, [sp, #4]
    bfa4:	e58d5008 	str	r5, [sp, #8]
    bfa8:	e1a00004 	mov	r0, r4
    bfac:	e1a03002 	mov	r3, r2
    bfb0:	e3a01001 	mov	r1, #1
    bfb4:	ebffff22 	bl	bc44 <UsbGetDescriptor>
    bfb8:	eaffffc7 	b	bedc <UsbReadDeviceDescriptor+0x50>
    bfbc:	e3a00000 	mov	r0, #0
    bfc0:	eaffffc5 	b	bedc <UsbReadDeviceDescriptor+0x50>

0000bfc4 <UsbReadString>:
    bfc4:	e92d41f0 	push	{r4, r5, r6, r7, r8, lr}
    bfc8:	e3510000 	cmp	r1, #0
    bfcc:	13520000 	cmpne	r2, #0
    bfd0:	e1a06001 	mov	r6, r1
    bfd4:	e24dd010 	sub	sp, sp, #16
    bfd8:	e1a04002 	mov	r4, r2
    bfdc:	13a01000 	movne	r1, #0
    bfe0:	03a01001 	moveq	r1, #1
    bfe4:	e1a05003 	mov	r5, r3
    bfe8:	e1a07000 	mov	r7, r0
    bfec:	0a000037 	beq	c0d0 <UsbReadString+0x10c>
    bff0:	e3a03004 	mov	r3, #4
    bff4:	e58d3000 	str	r3, [sp]
    bff8:	e1a02001 	mov	r2, r1
    bffc:	e28d300c 	add	r3, sp, #12
    c000:	ebffff80 	bl	be08 <UsbReadStringLang>
    c004:	e2508000 	subs	r8, r0, #0
    c008:	1a000028 	bne	c0b0 <UsbReadString+0xec>
    c00c:	e5973418 	ldr	r3, [r7, #1048]	; 0x418
    c010:	e3530003 	cmp	r3, #3
    c014:	9a000033 	bls	c0e8 <UsbReadString+0x124>
    c018:	e1dd20be 	ldrh	r2, [sp, #14]
    c01c:	e58d5000 	str	r5, [sp]
    c020:	e1a00007 	mov	r0, r7
    c024:	e1a01006 	mov	r1, r6
    c028:	e1a03004 	mov	r3, r4
    c02c:	ebffff75 	bl	be08 <UsbReadStringLang>
    c030:	e3500000 	cmp	r0, #0
    c034:	1a000018 	bne	c09c <UsbReadString+0xd8>
    c038:	e2553001 	subs	r3, r5, #1
    c03c:	e5d47000 	ldrb	r7, [r4]
    c040:	0a000024 	beq	c0d8 <UsbReadString+0x114>
    c044:	e2477002 	sub	r7, r7, #2
    c048:	e1b070c7 	asrs	r7, r7, #1
    c04c:	0a000023 	beq	c0e0 <UsbReadString+0x11c>
    c050:	e3a0603f 	mov	r6, #63	; 0x3f
    c054:	ea000001 	b	c060 <UsbReadString+0x9c>
    c058:	e1500007 	cmp	r0, r7
    c05c:	0a000009 	beq	c088 <UsbReadString+0xc4>
    c060:	e084c080 	add	ip, r4, r0, lsl #1
    c064:	e5dc2002 	ldrb	r2, [ip, #2]
    c068:	e5dc1003 	ldrb	r1, [ip, #3]
    c06c:	e1821401 	orr	r1, r2, r1, lsl #8
    c070:	e3510c01 	cmp	r1, #256	; 0x100
    c074:	21a01006 	movcs	r1, r6
    c078:	e7c41000 	strb	r1, [r4, r0]
    c07c:	e2800001 	add	r0, r0, #1
    c080:	e1500003 	cmp	r0, r3
    c084:	1afffff3 	bne	c058 <UsbReadString+0x94>
    c088:	e1500005 	cmp	r0, r5
    c08c:	23a00000 	movcs	r0, #0
    c090:	33a03000 	movcc	r3, #0
    c094:	37c43000 	strbcc	r3, [r4, r0]
    c098:	31a00003 	movcc	r0, r3
    c09c:	e1a00c00 	lsl	r0, r0, #24
    c0a0:	e1a00c40 	asr	r0, r0, #24
    c0a4:	e28dd010 	add	sp, sp, #16
    c0a8:	e8bd41f0 	pop	{r4, r5, r6, r7, r8, lr}
    c0ac:	e12fff1e 	bx	lr
    c0b0:	e1a00007 	mov	r0, r7
    c0b4:	ebfffe2d 	bl	b970 <UsbGetDescription>
    c0b8:	e3a0102c 	mov	r1, #44	; 0x2c
    c0bc:	e1a02000 	mov	r2, r0
    c0c0:	e59f0040 	ldr	r0, [pc, #64]	; c108 <UsbReadString+0x144>
    c0c4:	ebfffb60 	bl	ae4c <LogPrintF>
    c0c8:	e1a00008 	mov	r0, r8
    c0cc:	eafffff2 	b	c09c <UsbReadString+0xd8>
    c0d0:	e3a000fe 	mov	r0, #254	; 0xfe
    c0d4:	eafffff0 	b	c09c <UsbReadString+0xd8>
    c0d8:	e1a00003 	mov	r0, r3
    c0dc:	eaffffe9 	b	c088 <UsbReadString+0xc4>
    c0e0:	e1a00007 	mov	r0, r7
    c0e4:	eaffffe7 	b	c088 <UsbReadString+0xc4>
    c0e8:	e1a00007 	mov	r0, r7
    c0ec:	ebfffe1f 	bl	b970 <UsbGetDescription>
    c0f0:	e3a01031 	mov	r1, #49	; 0x31
    c0f4:	e1a02000 	mov	r2, r0
    c0f8:	e59f000c 	ldr	r0, [pc, #12]	; c10c <UsbReadString+0x148>
    c0fc:	ebfffb52 	bl	ae4c <LogPrintF>
    c100:	e3a000fc 	mov	r0, #252	; 0xfc
    c104:	eaffffe4 	b	c09c <UsbReadString+0xd8>
    c108:	00012ed8 	.word	0x00012ed8
    c10c:	00012f04 	.word	0x00012f04

0000c110 <UsbSetAddress>:
    c110:	e92d4070 	push	{r4, r5, r6, lr}
    c114:	e5d03005 	ldrb	r3, [r0, #5]
    c118:	e3530002 	cmp	r3, #2
    c11c:	e24dd018 	sub	sp, sp, #24
    c120:	e1a04000 	mov	r4, r0
    c124:	e1a05001 	mov	r5, r1
    c128:	1a000030 	bne	c1f0 <UsbSetAddress+0xe0>
    c12c:	e5d0302b 	ldrb	r3, [r0, #43]	; 0x2b
    c130:	e20330ff 	and	r3, r3, #255	; 0xff
    c134:	e3a02000 	mov	r2, #0
    c138:	e3530008 	cmp	r3, #8
    c13c:	e58d200c 	str	r2, [sp, #12]
    c140:	8a000023 	bhi	c1d4 <UsbSetAddress+0xc4>
    c144:	e5dd000c 	ldrb	r0, [sp, #12]
    c148:	e5d41004 	ldrb	r1, [r4, #4]
    c14c:	e20000f0 	and	r0, r0, #240	; 0xf0
    c150:	e1803002 	orr	r3, r0, r2
    c154:	e2012003 	and	r2, r1, #3
    c158:	e1832102 	orr	r2, r3, r2, lsl #2
    c15c:	e3a0c000 	mov	ip, #0
    c160:	e5cd200c 	strb	r2, [sp, #12]
    c164:	e28de010 	add	lr, sp, #16
    c168:	e3a0000a 	mov	r0, #10
    c16c:	e58de000 	str	lr, [sp]
    c170:	e58d0004 	str	r0, [sp, #4]
    c174:	e3a0e005 	mov	lr, #5
    c178:	e1a0200c 	mov	r2, ip
    c17c:	e59d100c 	ldr	r1, [sp, #12]
    c180:	e1a0300c 	mov	r3, ip
    c184:	e1a00004 	mov	r0, r4
    c188:	e58dc010 	str	ip, [sp, #16]
    c18c:	e58dc014 	str	ip, [sp, #20]
    c190:	e1cd51b2 	strh	r5, [sp, #18]
    c194:	e5cde011 	strb	lr, [sp, #17]
    c198:	ebfffdbf 	bl	b89c <UsbControlMessage>
    c19c:	e2506000 	subs	r6, r0, #0
    c1a0:	11a00006 	movne	r0, r6
    c1a4:	1a000005 	bne	c1c0 <UsbSetAddress+0xb0>
    c1a8:	e59f0060 	ldr	r0, [pc, #96]	; c210 <UsbSetAddress+0x100>
    c1ac:	eb00197e 	bl	127ac <MicroDelay>
    c1b0:	e3a03003 	mov	r3, #3
    c1b4:	e5845000 	str	r5, [r4]
    c1b8:	e5c43005 	strb	r3, [r4, #5]
    c1bc:	e1a00006 	mov	r0, r6
    c1c0:	e1a00c00 	lsl	r0, r0, #24
    c1c4:	e1a00c40 	asr	r0, r0, #24
    c1c8:	e28dd018 	add	sp, sp, #24
    c1cc:	e8bd4070 	pop	{r4, r5, r6, lr}
    c1d0:	e12fff1e 	bx	lr
    c1d4:	e3530010 	cmp	r3, #16
    c1d8:	93a02001 	movls	r2, #1
    c1dc:	9affffd8 	bls	c144 <UsbSetAddress+0x34>
    c1e0:	e3530020 	cmp	r3, #32
    c1e4:	83a02003 	movhi	r2, #3
    c1e8:	93a02002 	movls	r2, #2
    c1ec:	eaffffd4 	b	c144 <UsbSetAddress+0x34>
    c1f0:	ebfffdde 	bl	b970 <UsbGetDescription>
    c1f4:	e5d43005 	ldrb	r3, [r4, #5]
    c1f8:	e1a02000 	mov	r2, r0
    c1fc:	e3a0103c 	mov	r1, #60	; 0x3c
    c200:	e59f000c 	ldr	r0, [pc, #12]	; c214 <UsbSetAddress+0x104>
    c204:	ebfffb10 	bl	ae4c <LogPrintF>
    c208:	e3a000fc 	mov	r0, #252	; 0xfc
    c20c:	eaffffeb 	b	c1c0 <UsbSetAddress+0xb0>
    c210:	00002710 	.word	0x00002710
    c214:	00012f38 	.word	0x00012f38

0000c218 <UsbSetConfiguration>:
    c218:	e92d4030 	push	{r4, r5, lr}
    c21c:	e5d03005 	ldrb	r3, [r0, #5]
    c220:	e3530003 	cmp	r3, #3
    c224:	e24dd01c 	sub	sp, sp, #28
    c228:	e1a04000 	mov	r4, r0
    c22c:	e1a05001 	mov	r5, r1
    c230:	1a00002d 	bne	c2ec <UsbSetConfiguration+0xd4>
    c234:	e5d0302b 	ldrb	r3, [r0, #43]	; 0x2b
    c238:	e20330ff 	and	r3, r3, #255	; 0xff
    c23c:	e3a02000 	mov	r2, #0
    c240:	e3530008 	cmp	r3, #8
    c244:	e58d200c 	str	r2, [sp, #12]
    c248:	8a000020 	bhi	c2d0 <UsbSetConfiguration+0xb8>
    c24c:	e5dd000c 	ldrb	r0, [sp, #12]
    c250:	e5d41004 	ldrb	r1, [r4, #4]
    c254:	e20000f0 	and	r0, r0, #240	; 0xf0
    c258:	e1803002 	orr	r3, r0, r2
    c25c:	e2012003 	and	r2, r1, #3
    c260:	e5d41000 	ldrb	r1, [r4]
    c264:	e1832102 	orr	r2, r3, r2, lsl #2
    c268:	e3a0c000 	mov	ip, #0
    c26c:	e5cd200c 	strb	r2, [sp, #12]
    c270:	e5cd100d 	strb	r1, [sp, #13]
    c274:	e28de010 	add	lr, sp, #16
    c278:	e3a0000a 	mov	r0, #10
    c27c:	e1a0300c 	mov	r3, ip
    c280:	e58de000 	str	lr, [sp]
    c284:	e58d0004 	str	r0, [sp, #4]
    c288:	e3a0e009 	mov	lr, #9
    c28c:	e1a0200c 	mov	r2, ip
    c290:	e59d100c 	ldr	r1, [sp, #12]
    c294:	e1a00004 	mov	r0, r4
    c298:	e58dc010 	str	ip, [sp, #16]
    c29c:	e58dc014 	str	ip, [sp, #20]
    c2a0:	e1cd51b2 	strh	r5, [sp, #18]
    c2a4:	e5cde011 	strb	lr, [sp, #17]
    c2a8:	ebfffd7b 	bl	b89c <UsbControlMessage>
    c2ac:	e3500000 	cmp	r0, #0
    c2b0:	03a03004 	moveq	r3, #4
    c2b4:	05c45006 	strbeq	r5, [r4, #6]
    c2b8:	05c43005 	strbeq	r3, [r4, #5]
    c2bc:	e1a00c00 	lsl	r0, r0, #24
    c2c0:	e1a00c40 	asr	r0, r0, #24
    c2c4:	e28dd01c 	add	sp, sp, #28
    c2c8:	e8bd4030 	pop	{r4, r5, lr}
    c2cc:	e12fff1e 	bx	lr
    c2d0:	e3530010 	cmp	r3, #16
    c2d4:	93a02001 	movls	r2, #1
    c2d8:	9affffdb 	bls	c24c <UsbSetConfiguration+0x34>
    c2dc:	e3530020 	cmp	r3, #32
    c2e0:	83a02003 	movhi	r2, #3
    c2e4:	93a02002 	movls	r2, #2
    c2e8:	eaffffd7 	b	c24c <UsbSetConfiguration+0x34>
    c2ec:	ebfffd9f 	bl	b970 <UsbGetDescription>
    c2f0:	e5d43005 	ldrb	r3, [r4, #5]
    c2f4:	e1a02000 	mov	r2, r0
    c2f8:	e3a0103c 	mov	r1, #60	; 0x3c
    c2fc:	e59f0008 	ldr	r0, [pc, #8]	; c30c <UsbSetConfiguration+0xf4>
    c300:	ebfffad1 	bl	ae4c <LogPrintF>
    c304:	e3a000fc 	mov	r0, #252	; 0xfc
    c308:	eaffffeb 	b	c2bc <UsbSetConfiguration+0xa4>
    c30c:	00012f38 	.word	0x00012f38

0000c310 <UsbConfigure>:
    c310:	e92d47f0 	push	{r4, r5, r6, r7, r8, r9, sl, lr}
    c314:	e5d03005 	ldrb	r3, [r0, #5]
    c318:	e3530003 	cmp	r3, #3
    c31c:	e24dd010 	sub	sp, sp, #16
    c320:	e1a05000 	mov	r5, r0
    c324:	e1a04001 	mov	r4, r1
    c328:	1a000077 	bne	c50c <UsbConfigure+0x1fc>
    c32c:	e2801038 	add	r1, r0, #56	; 0x38
    c330:	e3a02009 	mov	r2, #9
    c334:	e3a03000 	mov	r3, #0
    c338:	e88d0006 	stm	sp, {r1, r2}
    c33c:	e58d2008 	str	r2, [sp, #8]
    c340:	e58d300c 	str	r3, [sp, #12]
    c344:	e3a01002 	mov	r1, #2
    c348:	e1a02004 	mov	r2, r4
    c34c:	ebfffe3c 	bl	bc44 <UsbGetDescriptor>
    c350:	e2509000 	subs	r9, r0, #0
    c354:	1a00004f 	bne	c498 <UsbConfigure+0x188>
    c358:	e1d503ba 	ldrh	r0, [r5, #58]	; 0x3a
    c35c:	ebfff962 	bl	a8ec <MemoryAllocate>
    c360:	e2506000 	subs	r6, r0, #0
    c364:	0a000070 	beq	c52c <UsbConfigure+0x21c>
    c368:	e1d513ba 	ldrh	r1, [r5, #58]	; 0x3a
    c36c:	e1d523ba 	ldrh	r2, [r5, #58]	; 0x3a
    c370:	e1a03009 	mov	r3, r9
    c374:	e98d0006 	stmib	sp, {r1, r2}
    c378:	e58d900c 	str	r9, [sp, #12]
    c37c:	e58d6000 	str	r6, [sp]
    c380:	e1a00005 	mov	r0, r5
    c384:	e3a01002 	mov	r1, #2
    c388:	e1a02004 	mov	r2, r4
    c38c:	ebfffe2c 	bl	bc44 <UsbGetDescriptor>
    c390:	e2509000 	subs	r9, r0, #0
    c394:	1a000052 	bne	c4e4 <UsbConfigure+0x1d4>
    c398:	e5c54006 	strb	r4, [r5, #6]
    c39c:	e5d5703d 	ldrb	r7, [r5, #61]	; 0x3d
    c3a0:	e5d64000 	ldrb	r4, [r6]
    c3a4:	e1d533ba 	ldrh	r3, [r5, #58]	; 0x3a
    c3a8:	e1540003 	cmp	r4, r3
    c3ac:	e20770ff 	and	r7, r7, #255	; 0xff
    c3b0:	e0864004 	add	r4, r6, r4
    c3b4:	33a01010 	movcc	r1, #16
    c3b8:	33a08008 	movcc	r8, #8
    c3bc:	3a000011 	bcc	c408 <UsbConfigure+0xf8>
    c3c0:	ea000018 	b	c428 <UsbConfigure+0x118>
    c3c4:	e3590000 	cmp	r9, #0
    c3c8:	1a000008 	bne	c3f0 <UsbConfigure+0xe0>
    c3cc:	e3580008 	cmp	r8, #8
    c3d0:	0a000006 	beq	c3f0 <UsbConfigure+0xe0>
    c3d4:	e1a03188 	lsl	r3, r8, #3
    c3d8:	e0832008 	add	r2, r3, r8
    c3dc:	e0852002 	add	r2, r5, r2
    c3e0:	e2822040 	add	r2, r2, #64	; 0x40
    c3e4:	e5d22008 	ldrb	r2, [r2, #8]
    c3e8:	e1520001 	cmp	r2, r1
    c3ec:	8a000031 	bhi	c4b8 <UsbConfigure+0x1a8>
    c3f0:	e5d43000 	ldrb	r3, [r4]
    c3f4:	e0844003 	add	r4, r4, r3
    c3f8:	e1d533ba 	ldrh	r3, [r5, #58]	; 0x3a
    c3fc:	e0662004 	rsb	r2, r6, r4
    c400:	e1520003 	cmp	r2, r3
    c404:	2a000007 	bcs	c428 <UsbConfigure+0x118>
    c408:	e5d43001 	ldrb	r3, [r4, #1]
    c40c:	e3530004 	cmp	r3, #4
    c410:	0a000010 	beq	c458 <UsbConfigure+0x148>
    c414:	e3530005 	cmp	r3, #5
    c418:	0affffe9 	beq	c3c4 <UsbConfigure+0xb4>
    c41c:	e5d43000 	ldrb	r3, [r4]
    c420:	e3530000 	cmp	r3, #0
    c424:	1afffff2 	bne	c3f4 <UsbConfigure+0xe4>
    c428:	e1a01007 	mov	r1, r7
    c42c:	e1a00005 	mov	r0, r5
    c430:	ebffff78 	bl	c218 <UsbSetConfiguration>
    c434:	e2509000 	subs	r9, r0, #0
    c438:	0a000031 	beq	c504 <UsbConfigure+0x1f4>
    c43c:	e1a00006 	mov	r0, r6
    c440:	ebfffa27 	bl	ace4 <MemoryDeallocate>
    c444:	e1a00c09 	lsl	r0, r9, #24
    c448:	e1a00c40 	asr	r0, r0, #24
    c44c:	e28dd010 	add	sp, sp, #16
    c450:	e8bd47f0 	pop	{r4, r5, r6, r7, r8, r9, sl, lr}
    c454:	e12fff1e 	bx	lr
    c458:	e5d43002 	ldrb	r3, [r4, #2]
    c45c:	e1530008 	cmp	r3, r8
    c460:	05d43000 	ldrbeq	r3, [r4]
    c464:	03a09001 	moveq	r9, #1
    c468:	0affffe1 	beq	c3f4 <UsbConfigure+0xe4>
    c46c:	e0830183 	add	r0, r3, r3, lsl #3
    c470:	e0850000 	add	r0, r5, r0
    c474:	e1a01004 	mov	r1, r4
    c478:	e2800044 	add	r0, r0, #68	; 0x44
    c47c:	e3a02009 	mov	r2, #9
    c480:	e3a09000 	mov	r9, #0
    c484:	e1a08003 	mov	r8, r3
    c488:	ebfffa5c 	bl	ae00 <MemoryCopy>
    c48c:	e1a01009 	mov	r1, r9
    c490:	e5d43000 	ldrb	r3, [r4]
    c494:	eaffffd6 	b	c3f4 <UsbConfigure+0xe4>
    c498:	e1a00005 	mov	r0, r5
    c49c:	ebfffd33 	bl	b970 <UsbGetDescription>
    c4a0:	e1a02004 	mov	r2, r4
    c4a4:	e1a03000 	mov	r3, r0
    c4a8:	e3a01046 	mov	r1, #70	; 0x46
    c4ac:	e59f008c 	ldr	r0, [pc, #140]	; c540 <UsbConfigure+0x230>
    c4b0:	ebfffa65 	bl	ae4c <LogPrintF>
    c4b4:	eaffffe2 	b	c444 <UsbConfigure+0x134>
    c4b8:	e0612181 	rsb	r2, r1, r1, lsl #3
    c4bc:	e0680003 	rsb	r0, r8, r3
    c4c0:	e0820200 	add	r0, r2, r0, lsl #4
    c4c4:	e0850000 	add	r0, r5, r0
    c4c8:	e281a001 	add	sl, r1, #1
    c4cc:	e280008c 	add	r0, r0, #140	; 0x8c
    c4d0:	e1a01004 	mov	r1, r4
    c4d4:	e3a02007 	mov	r2, #7
    c4d8:	ebfffa48 	bl	ae00 <MemoryCopy>
    c4dc:	e1a0100a 	mov	r1, sl
    c4e0:	eaffffc2 	b	c3f0 <UsbConfigure+0xe0>
    c4e4:	e1a00005 	mov	r0, r5
    c4e8:	ebfffd20 	bl	b970 <UsbGetDescription>
    c4ec:	e1a02004 	mov	r2, r4
    c4f0:	e1a03000 	mov	r3, r0
    c4f4:	e3a0104b 	mov	r1, #75	; 0x4b
    c4f8:	e59f0044 	ldr	r0, [pc, #68]	; c544 <UsbConfigure+0x234>
    c4fc:	ebfffa52 	bl	ae4c <LogPrintF>
    c500:	eaffffcd 	b	c43c <UsbConfigure+0x12c>
    c504:	e5856410 	str	r6, [r5, #1040]	; 0x410
    c508:	eaffffcd 	b	c444 <UsbConfigure+0x134>
    c50c:	ebfffd17 	bl	b970 <UsbGetDescription>
    c510:	e5d53005 	ldrb	r3, [r5, #5]
    c514:	e1a02000 	mov	r2, r0
    c518:	e3a0103c 	mov	r1, #60	; 0x3c
    c51c:	e59f0024 	ldr	r0, [pc, #36]	; c548 <UsbConfigure+0x238>
    c520:	ebfffa49 	bl	ae4c <LogPrintF>
    c524:	e3a090fc 	mov	r9, #252	; 0xfc
    c528:	eaffffc5 	b	c444 <UsbConfigure+0x134>
    c52c:	e59f0018 	ldr	r0, [pc, #24]	; c54c <UsbConfigure+0x23c>
    c530:	e3a01030 	mov	r1, #48	; 0x30
    c534:	ebfffc92 	bl	b784 <LogPrint>
    c538:	e3a090f9 	mov	r9, #249	; 0xf9
    c53c:	eaffffc0 	b	c444 <UsbConfigure+0x134>
    c540:	00012f74 	.word	0x00012f74
    c544:	00012fec 	.word	0x00012fec
    c548:	00012f38 	.word	0x00012f38
    c54c:	00012fbc 	.word	0x00012fbc

0000c550 <UsbAttachDevice>:
    c550:	e3a03000 	mov	r3, #0
    c554:	e92d4070 	push	{r4, r5, r6, lr}
    c558:	e5905000 	ldr	r5, [r0]
    c55c:	e5803000 	str	r3, [r0]
    c560:	e1a04000 	mov	r4, r0
    c564:	ebfffe48 	bl	be8c <UsbReadDeviceDescriptor>
    c568:	e2506000 	subs	r6, r0, #0
    c56c:	1a000068 	bne	c714 <UsbAttachDevice+0x1c4>
    c570:	e594040c 	ldr	r0, [r4, #1036]	; 0x40c
    c574:	e3a03002 	mov	r3, #2
    c578:	e3500000 	cmp	r0, #0
    c57c:	e5c43005 	strb	r3, [r4, #5]
    c580:	0a000007 	beq	c5a4 <UsbAttachDevice+0x54>
    c584:	e590301c 	ldr	r3, [r0, #28]
    c588:	e3530000 	cmp	r3, #0
    c58c:	0a000004 	beq	c5a4 <UsbAttachDevice+0x54>
    c590:	e1a01004 	mov	r1, r4
    c594:	e1a0e00f 	mov	lr, pc
    c598:	e12fff13 	bx	r3
    c59c:	e2506000 	subs	r6, r0, #0
    c5a0:	1a000066 	bne	c740 <UsbAttachDevice+0x1f0>
    c5a4:	e20550ff 	and	r5, r5, #255	; 0xff
    c5a8:	e1a01005 	mov	r1, r5
    c5ac:	e1a00004 	mov	r0, r4
    c5b0:	ebfffed6 	bl	c110 <UsbSetAddress>
    c5b4:	e2506000 	subs	r6, r0, #0
    c5b8:	1a00004b 	bne	c6ec <UsbAttachDevice+0x19c>
    c5bc:	e5845000 	str	r5, [r4]
    c5c0:	e1a00004 	mov	r0, r4
    c5c4:	ebfffe30 	bl	be8c <UsbReadDeviceDescriptor>
    c5c8:	e2506000 	subs	r6, r0, #0
    c5cc:	1a000083 	bne	c7e0 <UsbAttachDevice+0x290>
    c5d0:	e1a00004 	mov	r0, r4
    c5d4:	ebfffce5 	bl	b970 <UsbGetDescription>
    c5d8:	e3a0101c 	mov	r1, #28
    c5dc:	e1a02000 	mov	r2, r0
    c5e0:	e59f02a0 	ldr	r0, [pc, #672]	; c888 <UsbAttachDevice+0x338>
    c5e4:	ebfffa18 	bl	ae4c <LogPrintF>
    c5e8:	e5d43033 	ldrb	r3, [r4, #51]	; 0x33
    c5ec:	e3530000 	cmp	r3, #0
    c5f0:	1a00005f 	bne	c774 <UsbAttachDevice+0x224>
    c5f4:	e5d43032 	ldrb	r3, [r4, #50]	; 0x32
    c5f8:	e3530000 	cmp	r3, #0
    c5fc:	0a000003 	beq	c610 <UsbAttachDevice+0xc0>
    c600:	e3a00c01 	mov	r0, #256	; 0x100
    c604:	ebfff8b8 	bl	a8ec <MemoryAllocate>
    c608:	e2506000 	subs	r6, r0, #0
    c60c:	1a000081 	bne	c818 <UsbAttachDevice+0x2c8>
    c610:	e5d43034 	ldrb	r3, [r4, #52]	; 0x34
    c614:	e3530000 	cmp	r3, #0
    c618:	0a000003 	beq	c62c <UsbAttachDevice+0xdc>
    c61c:	e3a00c01 	mov	r0, #256	; 0x100
    c620:	ebfff8b1 	bl	a8ec <MemoryAllocate>
    c624:	e2506000 	subs	r6, r0, #0
    c628:	1a000062 	bne	c7b8 <UsbAttachDevice+0x268>
    c62c:	e1a00004 	mov	r0, r4
    c630:	e3a01000 	mov	r1, #0
    c634:	ebffff35 	bl	c310 <UsbConfigure>
    c638:	e3500000 	cmp	r0, #0
    c63c:	1a000081 	bne	c848 <UsbAttachDevice+0x2f8>
    c640:	e5d4303e 	ldrb	r3, [r4, #62]	; 0x3e
    c644:	e3530000 	cmp	r3, #0
    c648:	0a00000c 	beq	c680 <UsbAttachDevice+0x130>
    c64c:	e3a00c01 	mov	r0, #256	; 0x100
    c650:	ebfff8a5 	bl	a8ec <MemoryAllocate>
    c654:	e2505000 	subs	r5, r0, #0
    c658:	0a000008 	beq	c680 <UsbAttachDevice+0x130>
    c65c:	e5d4103e 	ldrb	r1, [r4, #62]	; 0x3e
    c660:	e1a00004 	mov	r0, r4
    c664:	e1a02005 	mov	r2, r5
    c668:	e3a03c01 	mov	r3, #256	; 0x100
    c66c:	ebfffe54 	bl	bfc4 <UsbReadString>
    c670:	e3500000 	cmp	r0, #0
    c674:	0a00007e 	beq	c874 <UsbAttachDevice+0x324>
    c678:	e1a00005 	mov	r0, r5
    c67c:	ebfff998 	bl	ace4 <MemoryDeallocate>
    c680:	e5d43049 	ldrb	r3, [r4, #73]	; 0x49
    c684:	e353000f 	cmp	r3, #15
    c688:	8a000012 	bhi	c6d8 <UsbAttachDevice+0x188>
    c68c:	e5d42049 	ldrb	r2, [r4, #73]	; 0x49
    c690:	e59f31f4 	ldr	r3, [pc, #500]	; c88c <UsbAttachDevice+0x33c>
    c694:	e7932102 	ldr	r2, [r3, r2, lsl #2]
    c698:	e3520000 	cmp	r2, #0
    c69c:	0a00000d 	beq	c6d8 <UsbAttachDevice+0x188>
    c6a0:	e5d42049 	ldrb	r2, [r4, #73]	; 0x49
    c6a4:	e1a00004 	mov	r0, r4
    c6a8:	e3a01000 	mov	r1, #0
    c6ac:	e793c102 	ldr	ip, [r3, r2, lsl #2]
    c6b0:	e1a0e00f 	mov	lr, pc
    c6b4:	e12fff1c 	bx	ip
    c6b8:	e3500000 	cmp	r0, #0
    c6bc:	0a000005 	beq	c6d8 <UsbAttachDevice+0x188>
    c6c0:	e1a00004 	mov	r0, r4
    c6c4:	ebfffca9 	bl	b970 <UsbGetDescription>
    c6c8:	e3a0102a 	mov	r1, #42	; 0x2a
    c6cc:	e1a02000 	mov	r2, r0
    c6d0:	e59f01b8 	ldr	r0, [pc, #440]	; c890 <UsbAttachDevice+0x340>
    c6d4:	ebfff9dc 	bl	ae4c <LogPrintF>
    c6d8:	e3a00000 	mov	r0, #0
    c6dc:	e1a00c00 	lsl	r0, r0, #24
    c6e0:	e1a00c40 	asr	r0, r0, #24
    c6e4:	e8bd4070 	pop	{r4, r5, r6, lr}
    c6e8:	e12fff1e 	bx	lr
    c6ec:	e59f01a0 	ldr	r0, [pc, #416]	; c894 <UsbAttachDevice+0x344>
    c6f0:	e3a01028 	mov	r1, #40	; 0x28
    c6f4:	e1a02005 	mov	r2, r5
    c6f8:	ebfff9d3 	bl	ae4c <LogPrintF>
    c6fc:	e5845000 	str	r5, [r4]
    c700:	e1a00006 	mov	r0, r6
    c704:	e1a00c00 	lsl	r0, r0, #24
    c708:	e1a00c40 	asr	r0, r0, #24
    c70c:	e8bd4070 	pop	{r4, r5, r6, lr}
    c710:	e12fff1e 	bx	lr
    c714:	e20550ff 	and	r5, r5, #255	; 0xff
    c718:	e1a02005 	mov	r2, r5
    c71c:	e59f0174 	ldr	r0, [pc, #372]	; c898 <UsbAttachDevice+0x348>
    c720:	e3a01030 	mov	r1, #48	; 0x30
    c724:	ebfff9c8 	bl	ae4c <LogPrintF>
    c728:	e1a00006 	mov	r0, r6
    c72c:	e1a00c00 	lsl	r0, r0, #24
    c730:	e5845000 	str	r5, [r4]
    c734:	e1a00c40 	asr	r0, r0, #24
    c738:	e8bd4070 	pop	{r4, r5, r6, lr}
    c73c:	e12fff1e 	bx	lr
    c740:	e1a00004 	mov	r0, r4
    c744:	ebfffc89 	bl	b970 <UsbGetDescription>
    c748:	e3a01035 	mov	r1, #53	; 0x35
    c74c:	e1a02000 	mov	r2, r0
    c750:	e59f0144 	ldr	r0, [pc, #324]	; c89c <UsbAttachDevice+0x34c>
    c754:	ebfff9bc 	bl	ae4c <LogPrintF>
    c758:	e1a00006 	mov	r0, r6
    c75c:	e20550ff 	and	r5, r5, #255	; 0xff
    c760:	e1a00c00 	lsl	r0, r0, #24
    c764:	e5845000 	str	r5, [r4]
    c768:	e1a00c40 	asr	r0, r0, #24
    c76c:	e8bd4070 	pop	{r4, r5, r6, lr}
    c770:	e12fff1e 	bx	lr
    c774:	e3a00c01 	mov	r0, #256	; 0x100
    c778:	ebfff85b 	bl	a8ec <MemoryAllocate>
    c77c:	e2506000 	subs	r6, r0, #0
    c780:	0affff9b 	beq	c5f4 <UsbAttachDevice+0xa4>
    c784:	e5d41033 	ldrb	r1, [r4, #51]	; 0x33
    c788:	e1a00004 	mov	r0, r4
    c78c:	e1a02006 	mov	r2, r6
    c790:	e3a03c01 	mov	r3, #256	; 0x100
    c794:	ebfffe0a 	bl	bfc4 <UsbReadString>
    c798:	e3500000 	cmp	r0, #0
    c79c:	0a000018 	beq	c804 <UsbAttachDevice+0x2b4>
    c7a0:	e5d43032 	ldrb	r3, [r4, #50]	; 0x32
    c7a4:	e3530000 	cmp	r3, #0
    c7a8:	1a00001a 	bne	c818 <UsbAttachDevice+0x2c8>
    c7ac:	e5d43034 	ldrb	r3, [r4, #52]	; 0x34
    c7b0:	e3530000 	cmp	r3, #0
    c7b4:	0a000006 	beq	c7d4 <UsbAttachDevice+0x284>
    c7b8:	e5d41034 	ldrb	r1, [r4, #52]	; 0x34
    c7bc:	e1a00004 	mov	r0, r4
    c7c0:	e1a02006 	mov	r2, r6
    c7c4:	e3a03c01 	mov	r3, #256	; 0x100
    c7c8:	ebfffdfd 	bl	bfc4 <UsbReadString>
    c7cc:	e3500000 	cmp	r0, #0
    c7d0:	0a000022 	beq	c860 <UsbAttachDevice+0x310>
    c7d4:	e1a00006 	mov	r0, r6
    c7d8:	ebfff941 	bl	ace4 <MemoryDeallocate>
    c7dc:	eaffff92 	b	c62c <UsbAttachDevice+0xdc>
    c7e0:	e1a02005 	mov	r2, r5
    c7e4:	e59f00b4 	ldr	r0, [pc, #180]	; c8a0 <UsbAttachDevice+0x350>
    c7e8:	e3a01033 	mov	r1, #51	; 0x33
    c7ec:	ebfff996 	bl	ae4c <LogPrintF>
    c7f0:	e1a00006 	mov	r0, r6
    c7f4:	e1a00c00 	lsl	r0, r0, #24
    c7f8:	e1a00c40 	asr	r0, r0, #24
    c7fc:	e8bd4070 	pop	{r4, r5, r6, lr}
    c800:	e12fff1e 	bx	lr
    c804:	e59f0098 	ldr	r0, [pc, #152]	; c8a4 <UsbAttachDevice+0x354>
    c808:	e3a0101c 	mov	r1, #28
    c80c:	e1a02006 	mov	r2, r6
    c810:	ebfff98d 	bl	ae4c <LogPrintF>
    c814:	eaffffe1 	b	c7a0 <UsbAttachDevice+0x250>
    c818:	e5d41032 	ldrb	r1, [r4, #50]	; 0x32
    c81c:	e1a00004 	mov	r0, r4
    c820:	e1a02006 	mov	r2, r6
    c824:	e3a03c01 	mov	r3, #256	; 0x100
    c828:	ebfffde5 	bl	bfc4 <UsbReadString>
    c82c:	e3500000 	cmp	r0, #0
    c830:	1affffdd 	bne	c7ac <UsbAttachDevice+0x25c>
    c834:	e59f006c 	ldr	r0, [pc, #108]	; c8a8 <UsbAttachDevice+0x358>
    c838:	e3a0101c 	mov	r1, #28
    c83c:	e1a02006 	mov	r2, r6
    c840:	ebfff981 	bl	ae4c <LogPrintF>
    c844:	eaffffd8 	b	c7ac <UsbAttachDevice+0x25c>
    c848:	e59f005c 	ldr	r0, [pc, #92]	; c8ac <UsbAttachDevice+0x35c>
    c84c:	e1a02005 	mov	r2, r5
    c850:	e3a01027 	mov	r1, #39	; 0x27
    c854:	ebfff97c 	bl	ae4c <LogPrintF>
    c858:	e3a00000 	mov	r0, #0
    c85c:	eaffffa8 	b	c704 <UsbAttachDevice+0x1b4>
    c860:	e59f0048 	ldr	r0, [pc, #72]	; c8b0 <UsbAttachDevice+0x360>
    c864:	e3a0101c 	mov	r1, #28
    c868:	e1a02006 	mov	r2, r6
    c86c:	ebfff976 	bl	ae4c <LogPrintF>
    c870:	eaffffd7 	b	c7d4 <UsbAttachDevice+0x284>
    c874:	e59f0038 	ldr	r0, [pc, #56]	; c8b4 <UsbAttachDevice+0x364>
    c878:	e3a0101c 	mov	r1, #28
    c87c:	e1a02005 	mov	r2, r5
    c880:	ebfff971 	bl	ae4c <LogPrintF>
    c884:	eaffff7b 	b	c678 <UsbAttachDevice+0x128>
    c888:	000130fc 	.word	0x000130fc
    c88c:	0001adc0 	.word	0x0001adc0
    c890:	000131b0 	.word	0x000131b0
    c894:	000130a0 	.word	0x000130a0
    c898:	00013038 	.word	0x00013038
    c89c:	00013068 	.word	0x00013068
    c8a0:	000130c8 	.word	0x000130c8
    c8a4:	00013118 	.word	0x00013118
    c8a8:	00013134 	.word	0x00013134
    c8ac:	0001316c 	.word	0x0001316c
    c8b0:	00013150 	.word	0x00013150
    c8b4:	00013194 	.word	0x00013194

0000c8b8 <UsbAllocateDevice>:
    c8b8:	e92d4010 	push	{r4, lr}
    c8bc:	e1a04000 	mov	r4, r0
    c8c0:	e59f00c4 	ldr	r0, [pc, #196]	; c98c <UsbAllocateDevice+0xd4>
    c8c4:	ebfff808 	bl	a8ec <MemoryAllocate>
    c8c8:	e3500000 	cmp	r0, #0
    c8cc:	e5840000 	str	r0, [r4]
    c8d0:	0a00002b 	beq	c984 <UsbAllocateDevice+0xcc>
    c8d4:	e59f20b4 	ldr	r2, [pc, #180]	; c990 <UsbAllocateDevice+0xd8>
    c8d8:	e3a03000 	mov	r3, #0
    c8dc:	ea000002 	b	c8ec <UsbAllocateDevice+0x34>
    c8e0:	e2833001 	add	r3, r3, #1
    c8e4:	e3530020 	cmp	r3, #32
    c8e8:	0a000007 	beq	c90c <UsbAllocateDevice+0x54>
    c8ec:	e5b21004 	ldr	r1, [r2, #4]!
    c8f0:	e3510000 	cmp	r1, #0
    c8f4:	1afffff9 	bne	c8e0 <UsbAllocateDevice+0x28>
    c8f8:	e59f2094 	ldr	r2, [pc, #148]	; c994 <UsbAllocateDevice+0xdc>
    c8fc:	e7820103 	str	r0, [r2, r3, lsl #2]
    c900:	e5940000 	ldr	r0, [r4]
    c904:	e2833001 	add	r3, r3, #1
    c908:	e5803000 	str	r3, [r0]
    c90c:	e3a03000 	mov	r3, #0
    c910:	e5c03007 	strb	r3, [r0, #7]
    c914:	e5942000 	ldr	r2, [r4]
    c918:	e5c03005 	strb	r3, [r0, #5]
    c91c:	e5803008 	str	r3, [r0, #8]
    c920:	e582340c 	str	r3, [r2, #1036]	; 0x40c
    c924:	e5942000 	ldr	r2, [r4]
    c928:	e5823414 	str	r3, [r2, #1044]	; 0x414
    c92c:	e5942000 	ldr	r2, [r4]
    c930:	e5823410 	str	r3, [r2, #1040]	; 0x410
    c934:	e5942000 	ldr	r2, [r4]
    c938:	e3e01000 	mvn	r1, #0
    c93c:	e5c21006 	strb	r1, [r2, #6]
    c940:	e5942000 	ldr	r2, [r4]
    c944:	e5823010 	str	r3, [r2, #16]
    c948:	e5942000 	ldr	r2, [r4]
    c94c:	e582300c 	str	r3, [r2, #12]
    c950:	e5942000 	ldr	r2, [r4]
    c954:	e5823020 	str	r3, [r2, #32]
    c958:	e5942000 	ldr	r2, [r4]
    c95c:	e5823014 	str	r3, [r2, #20]
    c960:	e5942000 	ldr	r2, [r4]
    c964:	e5823018 	str	r3, [r2, #24]
    c968:	e5942000 	ldr	r2, [r4]
    c96c:	e582301c 	str	r3, [r2, #28]
    c970:	e1a00003 	mov	r0, r3
    c974:	e1a00c00 	lsl	r0, r0, #24
    c978:	e1a00c40 	asr	r0, r0, #24
    c97c:	e8bd4010 	pop	{r4, lr}
    c980:	e12fff1e 	bx	lr
    c984:	e3a000f9 	mov	r0, #249	; 0xf9
    c988:	eafffff9 	b	c974 <UsbAllocateDevice+0xbc>
    c98c:	0000041c 	.word	0x0000041c
    c990:	0001adfc 	.word	0x0001adfc
    c994:	0001ae00 	.word	0x0001ae00

0000c998 <UsbDeallocateDevice>:
    c998:	e590300c 	ldr	r3, [r0, #12]
    c99c:	e3530000 	cmp	r3, #0
    c9a0:	e92d4010 	push	{r4, lr}
    c9a4:	e1a04000 	mov	r4, r0
    c9a8:	11a0e00f 	movne	lr, pc
    c9ac:	112fff13 	bxne	r3
    c9b0:	e5943010 	ldr	r3, [r4, #16]
    c9b4:	e3530000 	cmp	r3, #0
    c9b8:	11a00004 	movne	r0, r4
    c9bc:	11a0e00f 	movne	lr, pc
    c9c0:	112fff13 	bxne	r3
    c9c4:	e594040c 	ldr	r0, [r4, #1036]	; 0x40c
    c9c8:	e3500000 	cmp	r0, #0
    c9cc:	0a000004 	beq	c9e4 <UsbDeallocateDevice+0x4c>
    c9d0:	e5903018 	ldr	r3, [r0, #24]
    c9d4:	e3530000 	cmp	r3, #0
    c9d8:	11a01004 	movne	r1, r4
    c9dc:	11a0e00f 	movne	lr, pc
    c9e0:	112fff13 	bxne	r3
    c9e4:	e5d43005 	ldrb	r3, [r4, #5]
    c9e8:	e2433003 	sub	r3, r3, #3
    c9ec:	e20330ff 	and	r3, r3, #255	; 0xff
    c9f0:	e3530001 	cmp	r3, #1
    c9f4:	9a000006 	bls	ca14 <UsbDeallocateDevice+0x7c>
    c9f8:	e5940410 	ldr	r0, [r4, #1040]	; 0x410
    c9fc:	e3500000 	cmp	r0, #0
    ca00:	1bfff8b7 	blne	ace4 <MemoryDeallocate>
    ca04:	e1a00004 	mov	r0, r4
    ca08:	ebfff8b5 	bl	ace4 <MemoryDeallocate>
    ca0c:	e8bd4010 	pop	{r4, lr}
    ca10:	e12fff1e 	bx	lr
    ca14:	e5943000 	ldr	r3, [r4]
    ca18:	e2433001 	sub	r3, r3, #1
    ca1c:	e353001f 	cmp	r3, #31
    ca20:	8afffff4 	bhi	c9f8 <UsbDeallocateDevice+0x60>
    ca24:	e59f2010 	ldr	r2, [pc, #16]	; ca3c <UsbDeallocateDevice+0xa4>
    ca28:	e7921103 	ldr	r1, [r2, r3, lsl #2]
    ca2c:	e1510004 	cmp	r1, r4
    ca30:	03a01000 	moveq	r1, #0
    ca34:	07821103 	streq	r1, [r2, r3, lsl #2]
    ca38:	eaffffee 	b	c9f8 <UsbDeallocateDevice+0x60>
    ca3c:	0001ae00 	.word	0x0001ae00

0000ca40 <UsbAttachRootHub>:
    ca40:	e92d4010 	push	{r4, lr}
    ca44:	e59f403c 	ldr	r4, [pc, #60]	; ca88 <UsbAttachRootHub+0x48>
    ca48:	e5940000 	ldr	r0, [r4]
    ca4c:	e3500000 	cmp	r0, #0
    ca50:	e24dd008 	sub	sp, sp, #8
    ca54:	1bffffcf 	blne	c998 <UsbDeallocateDevice>
    ca58:	e28d0004 	add	r0, sp, #4
    ca5c:	ebffff95 	bl	c8b8 <UsbAllocateDevice>
    ca60:	e3500000 	cmp	r0, #0
    ca64:	05940000 	ldreq	r0, [r4]
    ca68:	03a03001 	moveq	r3, #1
    ca6c:	05c03005 	strbeq	r3, [r0, #5]
    ca70:	0bfffeb6 	bleq	c550 <UsbAttachDevice>
    ca74:	e1a00c00 	lsl	r0, r0, #24
    ca78:	e1a00c40 	asr	r0, r0, #24
    ca7c:	e28dd008 	add	sp, sp, #8
    ca80:	e8bd4010 	pop	{r4, lr}
    ca84:	e12fff1e 	bx	lr
    ca88:	0001ae00 	.word	0x0001ae00

0000ca8c <UsbInitialise>:
    ca8c:	e92d4010 	push	{r4, lr}
    ca90:	eb00002b 	bl	cb44 <ConfigurationLoad>
    ca94:	eb00135a 	bl	11804 <HcdInitialise>
    ca98:	e2504000 	subs	r4, r0, #0
    ca9c:	0a000006 	beq	cabc <UsbInitialise+0x30>
    caa0:	e59f0060 	ldr	r0, [pc, #96]	; cb08 <UsbInitialise+0x7c>
    caa4:	e3a01028 	mov	r1, #40	; 0x28
    caa8:	ebfffb35 	bl	b784 <LogPrint>
    caac:	e1a00c04 	lsl	r0, r4, #24
    cab0:	e1a00c40 	asr	r0, r0, #24
    cab4:	e8bd4010 	pop	{r4, lr}
    cab8:	e12fff1e 	bx	lr
    cabc:	eb0013e8 	bl	11a64 <HcdStart>
    cac0:	e2504000 	subs	r4, r0, #0
    cac4:	0a000007 	beq	cae8 <UsbInitialise+0x5c>
    cac8:	e59f003c 	ldr	r0, [pc, #60]	; cb0c <UsbInitialise+0x80>
    cacc:	e3a01023 	mov	r1, #35	; 0x23
    cad0:	ebfffb2b 	bl	b784 <LogPrint>
    cad4:	eb001563 	bl	12068 <HcdDeinitialise>
    cad8:	e1a00c04 	lsl	r0, r4, #24
    cadc:	e1a00c40 	asr	r0, r0, #24
    cae0:	e8bd4010 	pop	{r4, lr}
    cae4:	e12fff1e 	bx	lr
    cae8:	ebffffd4 	bl	ca40 <UsbAttachRootHub>
    caec:	e2504000 	subs	r4, r0, #0
    caf0:	0affffed 	beq	caac <UsbInitialise+0x20>
    caf4:	e3a01024 	mov	r1, #36	; 0x24
    caf8:	e59f0010 	ldr	r0, [pc, #16]	; cb10 <UsbInitialise+0x84>
    cafc:	ebfffb20 	bl	b784 <LogPrint>
    cb00:	eb00154f 	bl	12044 <HcdStop>
    cb04:	eafffff2 	b	cad4 <UsbInitialise+0x48>
    cb08:	000131dc 	.word	0x000131dc
    cb0c:	00013204 	.word	0x00013204
    cb10:	00013228 	.word	0x00013228

0000cb14 <UsbCheckForChange>:
    cb14:	e92d4008 	push	{r3, lr}
    cb18:	e59f3020 	ldr	r3, [pc, #32]	; cb40 <UsbCheckForChange+0x2c>
    cb1c:	e5930000 	ldr	r0, [r3]
    cb20:	e3500000 	cmp	r0, #0
    cb24:	0a000003 	beq	cb38 <UsbCheckForChange+0x24>
    cb28:	e5903014 	ldr	r3, [r0, #20]
    cb2c:	e3530000 	cmp	r3, #0
    cb30:	11a0e00f 	movne	lr, pc
    cb34:	112fff13 	bxne	r3
    cb38:	e8bd4008 	pop	{r3, lr}
    cb3c:	e12fff1e 	bx	lr
    cb40:	0001ae00 	.word	0x0001ae00

0000cb44 <ConfigurationLoad>:
    cb44:	e92d4008 	push	{r3, lr}
    cb48:	ebfffb0e 	bl	b788 <PlatformLoad>
    cb4c:	ebfffb3d 	bl	b848 <UsbLoad>
    cb50:	eb0007dc 	bl	eac8 <HidLoad>
    cb54:	eb000082 	bl	cd64 <HubLoad>
    cb58:	ebfff522 	bl	9fe8 <KbdLoad>
    cb5c:	eb000d39 	bl	10048 <MouseLoad>
    cb60:	e8bd4008 	pop	{r3, lr}
    cb64:	e12fff1e 	bx	lr

0000cb68 <HubDetached>:
    cb68:	e92d41f0 	push	{r4, r5, r6, r7, r8, lr}
    cb6c:	e5905414 	ldr	r5, [r0, #1044]	; 0x414
    cb70:	e3550000 	cmp	r5, #0
    cb74:	0a000021 	beq	cc00 <HubDetached+0x98>
    cb78:	e5d52010 	ldrb	r2, [r5, #16]
    cb7c:	e5d51011 	ldrb	r1, [r5, #17]
    cb80:	e5d5c012 	ldrb	ip, [r5, #18]
    cb84:	e1823401 	orr	r3, r2, r1, lsl #8
    cb88:	e5d56013 	ldrb	r6, [r5, #19]
    cb8c:	e183380c 	orr	r3, r3, ip, lsl #16
    cb90:	e1933c06 	orrs	r3, r3, r6, lsl #24
    cb94:	0a000019 	beq	cc00 <HubDetached+0x98>
    cb98:	e3a04000 	mov	r4, #0
    cb9c:	e284300e 	add	r3, r4, #14
    cba0:	e0853103 	add	r3, r5, r3, lsl #2
    cba4:	e5d30004 	ldrb	r0, [r3, #4]
    cba8:	e5d37005 	ldrb	r7, [r3, #5]
    cbac:	e5d38006 	ldrb	r8, [r3, #6]
    cbb0:	e1807407 	orr	r7, r0, r7, lsl #8
    cbb4:	e5d30007 	ldrb	r0, [r3, #7]
    cbb8:	e1873808 	orr	r3, r7, r8, lsl #16
    cbbc:	e1930c00 	orrs	r0, r3, r0, lsl #24
    cbc0:	e2844001 	add	r4, r4, #1
    cbc4:	0a000008 	beq	cbec <HubDetached+0x84>
    cbc8:	e590300c 	ldr	r3, [r0, #12]
    cbcc:	e3530000 	cmp	r3, #0
    cbd0:	0a000005 	beq	cbec <HubDetached+0x84>
    cbd4:	e1a0e00f 	mov	lr, pc
    cbd8:	e12fff13 	bx	r3
    cbdc:	e5d52010 	ldrb	r2, [r5, #16]
    cbe0:	e5d51011 	ldrb	r1, [r5, #17]
    cbe4:	e5d5c012 	ldrb	ip, [r5, #18]
    cbe8:	e5d56013 	ldrb	r6, [r5, #19]
    cbec:	e1823401 	orr	r3, r2, r1, lsl #8
    cbf0:	e183380c 	orr	r3, r3, ip, lsl #16
    cbf4:	e1833c06 	orr	r3, r3, r6, lsl #24
    cbf8:	e1530004 	cmp	r3, r4
    cbfc:	8affffe6 	bhi	cb9c <HubDetached+0x34>
    cc00:	e8bd41f0 	pop	{r4, r5, r6, r7, r8, lr}
    cc04:	e12fff1e 	bx	lr

0000cc08 <HubChildDetached>:
    cc08:	e591340c 	ldr	r3, [r1, #1036]	; 0x40c
    cc0c:	e1530000 	cmp	r3, r0
    cc10:	e5903414 	ldr	r3, [r0, #1044]	; 0x414
    cc14:	112fff1e 	bxne	lr
    cc18:	e5d3c011 	ldrb	ip, [r3, #17]
    cc1c:	e5d30010 	ldrb	r0, [r3, #16]
    cc20:	e5d32012 	ldrb	r2, [r3, #18]
    cc24:	e180040c 	orr	r0, r0, ip, lsl #8
    cc28:	e5d3c013 	ldrb	ip, [r3, #19]
    cc2c:	e1800802 	orr	r0, r0, r2, lsl #16
    cc30:	e5d12007 	ldrb	r2, [r1, #7]
    cc34:	e1800c0c 	orr	r0, r0, ip, lsl #24
    cc38:	e1520000 	cmp	r2, r0
    cc3c:	212fff1e 	bxcs	lr
    cc40:	e0833102 	add	r3, r3, r2, lsl #2
    cc44:	e5d3003d 	ldrb	r0, [r3, #61]	; 0x3d
    cc48:	e5d3203c 	ldrb	r2, [r3, #60]	; 0x3c
    cc4c:	e5d3c03e 	ldrb	ip, [r3, #62]	; 0x3e
    cc50:	e1822400 	orr	r2, r2, r0, lsl #8
    cc54:	e5d3003f 	ldrb	r0, [r3, #63]	; 0x3f
    cc58:	e182280c 	orr	r2, r2, ip, lsl #16
    cc5c:	e1822c00 	orr	r2, r2, r0, lsl #24
    cc60:	e1510002 	cmp	r1, r2
    cc64:	03a02000 	moveq	r2, #0
    cc68:	05c3203c 	strbeq	r2, [r3, #60]	; 0x3c
    cc6c:	05c3203d 	strbeq	r2, [r3, #61]	; 0x3d
    cc70:	05c3203e 	strbeq	r2, [r3, #62]	; 0x3e
    cc74:	05c3203f 	strbeq	r2, [r3, #63]	; 0x3f
    cc78:	e12fff1e 	bx	lr

0000cc7c <HubDeallocate>:
    cc7c:	e92d43f8 	push	{r3, r4, r5, r6, r7, r8, r9, lr}
    cc80:	e5905414 	ldr	r5, [r0, #1044]	; 0x414
    cc84:	e3550000 	cmp	r5, #0
    cc88:	e1a08000 	mov	r8, r0
    cc8c:	0a00002b 	beq	cd40 <HubDeallocate+0xc4>
    cc90:	e5d51010 	ldrb	r1, [r5, #16]
    cc94:	e5d5c011 	ldrb	ip, [r5, #17]
    cc98:	e5d5e012 	ldrb	lr, [r5, #18]
    cc9c:	e181340c 	orr	r3, r1, ip, lsl #8
    cca0:	e5d59013 	ldrb	r9, [r5, #19]
    cca4:	e183380e 	orr	r3, r3, lr, lsl #16
    cca8:	e1933c09 	orrs	r3, r3, r9, lsl #24
    ccac:	13a06000 	movne	r6, #0
    ccb0:	11a07006 	movne	r7, r6
    ccb4:	0a000017 	beq	cd18 <HubDeallocate+0x9c>
    ccb8:	e0854106 	add	r4, r5, r6, lsl #2
    ccbc:	e5d4203d 	ldrb	r2, [r4, #61]	; 0x3d
    ccc0:	e5d4303c 	ldrb	r3, [r4, #60]	; 0x3c
    ccc4:	e5d4003e 	ldrb	r0, [r4, #62]	; 0x3e
    ccc8:	e1833402 	orr	r3, r3, r2, lsl #8
    cccc:	e5d4203f 	ldrb	r2, [r4, #63]	; 0x3f
    ccd0:	e1833800 	orr	r3, r3, r0, lsl #16
    ccd4:	e1930c02 	orrs	r0, r3, r2, lsl #24
    ccd8:	e2866001 	add	r6, r6, #1
    ccdc:	0a000008 	beq	cd04 <HubDeallocate+0x88>
    cce0:	ebffff2c 	bl	c998 <UsbDeallocateDevice>
    cce4:	e5c4703c 	strb	r7, [r4, #60]	; 0x3c
    cce8:	e5c4703d 	strb	r7, [r4, #61]	; 0x3d
    ccec:	e5c4703e 	strb	r7, [r4, #62]	; 0x3e
    ccf0:	e5c4703f 	strb	r7, [r4, #63]	; 0x3f
    ccf4:	e5d51010 	ldrb	r1, [r5, #16]
    ccf8:	e5d5c011 	ldrb	ip, [r5, #17]
    ccfc:	e5d5e012 	ldrb	lr, [r5, #18]
    cd00:	e5d59013 	ldrb	r9, [r5, #19]
    cd04:	e181340c 	orr	r3, r1, ip, lsl #8
    cd08:	e183380e 	orr	r3, r3, lr, lsl #16
    cd0c:	e1833c09 	orr	r3, r3, r9, lsl #24
    cd10:	e1530006 	cmp	r3, r6
    cd14:	8affffe7 	bhi	ccb8 <HubDeallocate+0x3c>
    cd18:	e5d5300c 	ldrb	r3, [r5, #12]
    cd1c:	e5d5100d 	ldrb	r1, [r5, #13]
    cd20:	e5d5200e 	ldrb	r2, [r5, #14]
    cd24:	e1833401 	orr	r3, r3, r1, lsl #8
    cd28:	e5d5000f 	ldrb	r0, [r5, #15]
    cd2c:	e1833802 	orr	r3, r3, r2, lsl #16
    cd30:	e1930c00 	orrs	r0, r3, r0, lsl #24
    cd34:	1bfff7ea 	blne	ace4 <MemoryDeallocate>
    cd38:	e5980414 	ldr	r0, [r8, #1044]	; 0x414
    cd3c:	ebfff7e8 	bl	ace4 <MemoryDeallocate>
    cd40:	e3a03000 	mov	r3, #0
    cd44:	e5883010 	str	r3, [r8, #16]
    cd48:	e588300c 	str	r3, [r8, #12]
    cd4c:	e5883014 	str	r3, [r8, #20]
    cd50:	e5883018 	str	r3, [r8, #24]
    cd54:	e588301c 	str	r3, [r8, #28]
    cd58:	e5883020 	str	r3, [r8, #32]
    cd5c:	e8bd43f8 	pop	{r3, r4, r5, r6, r7, r8, r9, lr}
    cd60:	e12fff1e 	bx	lr

0000cd64 <HubLoad>:
    cd64:	e59f3008 	ldr	r3, [pc, #8]	; cd74 <HubLoad+0x10>
    cd68:	e59f2008 	ldr	r2, [pc, #8]	; cd78 <HubLoad+0x14>
    cd6c:	e5832024 	str	r2, [r3, #36]	; 0x24
    cd70:	e12fff1e 	bx	lr
    cd74:	0001adc0 	.word	0x0001adc0
    cd78:	0000dc10 	.word	0x0000dc10

0000cd7c <HubReadDescriptor>:
    cd7c:	e92d4030 	push	{r4, r5, lr}
    cd80:	e24dd01c 	sub	sp, sp, #28
    cd84:	e3a03002 	mov	r3, #2
    cd88:	e28dc014 	add	ip, sp, #20
    cd8c:	e3a01020 	mov	r1, #32
    cd90:	e3a02000 	mov	r2, #0
    cd94:	e58d3004 	str	r3, [sp, #4]
    cd98:	e58d3008 	str	r3, [sp, #8]
    cd9c:	e58d100c 	str	r1, [sp, #12]
    cda0:	e58dc000 	str	ip, [sp]
    cda4:	e1a03002 	mov	r3, r2
    cda8:	e3a01029 	mov	r1, #41	; 0x29
    cdac:	e1a05000 	mov	r5, r0
    cdb0:	ebfffba3 	bl	bc44 <UsbGetDescriptor>
    cdb4:	e2504000 	subs	r4, r0, #0
    cdb8:	1a00001a 	bne	ce28 <HubReadDescriptor+0xac>
    cdbc:	e5954414 	ldr	r4, [r5, #1044]	; 0x414
    cdc0:	e5d4200d 	ldrb	r2, [r4, #13]
    cdc4:	e5d4300c 	ldrb	r3, [r4, #12]
    cdc8:	e5d4100e 	ldrb	r1, [r4, #14]
    cdcc:	e1833402 	orr	r3, r3, r2, lsl #8
    cdd0:	e5d4200f 	ldrb	r2, [r4, #15]
    cdd4:	e1833801 	orr	r3, r3, r1, lsl #16
    cdd8:	e1931c02 	orrs	r1, r3, r2, lsl #24
    cddc:	0a000019 	beq	ce48 <HubReadDescriptor+0xcc>
    cde0:	e5dd3014 	ldrb	r3, [sp, #20]
    cde4:	e3a00020 	mov	r0, #32
    cde8:	e3a02000 	mov	r2, #0
    cdec:	e88d000a 	stm	sp, {r1, r3}
    cdf0:	e58d3008 	str	r3, [sp, #8]
    cdf4:	e58d000c 	str	r0, [sp, #12]
    cdf8:	e1a03002 	mov	r3, r2
    cdfc:	e1a00005 	mov	r0, r5
    ce00:	e3a01029 	mov	r1, #41	; 0x29
    ce04:	ebfffb8e 	bl	bc44 <UsbGetDescriptor>
    ce08:	e2504000 	subs	r4, r0, #0
    ce0c:	01a00004 	moveq	r0, r4
    ce10:	1a000004 	bne	ce28 <HubReadDescriptor+0xac>
    ce14:	e1a00c00 	lsl	r0, r0, #24
    ce18:	e1a00c40 	asr	r0, r0, #24
    ce1c:	e28dd01c 	add	sp, sp, #28
    ce20:	e8bd4030 	pop	{r4, r5, lr}
    ce24:	e12fff1e 	bx	lr
    ce28:	e1a00005 	mov	r0, r5
    ce2c:	ebfffacf 	bl	b970 <UsbGetDescription>
    ce30:	e3a0102c 	mov	r1, #44	; 0x2c
    ce34:	e1a02000 	mov	r2, r0
    ce38:	e59f0078 	ldr	r0, [pc, #120]	; ceb8 <HubReadDescriptor+0x13c>
    ce3c:	ebfff802 	bl	ae4c <LogPrintF>
    ce40:	e1a00004 	mov	r0, r4
    ce44:	eafffff2 	b	ce14 <HubReadDescriptor+0x98>
    ce48:	e5dd0014 	ldrb	r0, [sp, #20]
    ce4c:	ebfff6a6 	bl	a8ec <MemoryAllocate>
    ce50:	e1a01420 	lsr	r1, r0, #8
    ce54:	e1a02820 	lsr	r2, r0, #16
    ce58:	e1a03c20 	lsr	r3, r0, #24
    ce5c:	e3500000 	cmp	r0, #0
    ce60:	e5c4000c 	strb	r0, [r4, #12]
    ce64:	e5c4100d 	strb	r1, [r4, #13]
    ce68:	e5c4200e 	strb	r2, [r4, #14]
    ce6c:	e5c4300f 	strb	r3, [r4, #15]
    ce70:	0a000008 	beq	ce98 <HubReadDescriptor+0x11c>
    ce74:	e5950414 	ldr	r0, [r5, #1044]	; 0x414
    ce78:	e5d0300c 	ldrb	r3, [r0, #12]
    ce7c:	e5d0100d 	ldrb	r1, [r0, #13]
    ce80:	e5d0200e 	ldrb	r2, [r0, #14]
    ce84:	e1831401 	orr	r1, r3, r1, lsl #8
    ce88:	e5d0300f 	ldrb	r3, [r0, #15]
    ce8c:	e1811802 	orr	r1, r1, r2, lsl #16
    ce90:	e1811c03 	orr	r1, r1, r3, lsl #24
    ce94:	eaffffd1 	b	cde0 <HubReadDescriptor+0x64>
    ce98:	e1a00005 	mov	r0, r5
    ce9c:	ebfffab3 	bl	b970 <UsbGetDescription>
    cea0:	e3a01037 	mov	r1, #55	; 0x37
    cea4:	e1a02000 	mov	r2, r0
    cea8:	e59f000c 	ldr	r0, [pc, #12]	; cebc <HubReadDescriptor+0x140>
    ceac:	ebfff7e6 	bl	ae4c <LogPrintF>
    ceb0:	e3a000f9 	mov	r0, #249	; 0xf9
    ceb4:	eaffffd6 	b	ce14 <HubReadDescriptor+0x98>
    ceb8:	0001324c 	.word	0x0001324c
    cebc:	00013278 	.word	0x00013278

0000cec0 <HubGetStatus>:
    cec0:	e92d4030 	push	{r4, r5, lr}
    cec4:	e5d0302b 	ldrb	r3, [r0, #43]	; 0x2b
    cec8:	e20330ff 	and	r3, r3, #255	; 0xff
    cecc:	e24dd01c 	sub	sp, sp, #28
    ced0:	e3a02000 	mov	r2, #0
    ced4:	e3530008 	cmp	r3, #8
    ced8:	e1a04000 	mov	r4, r0
    cedc:	e58d200c 	str	r2, [sp, #12]
    cee0:	9a000005 	bls	cefc <HubGetStatus+0x3c>
    cee4:	e3530010 	cmp	r3, #16
    cee8:	93a02001 	movls	r2, #1
    ceec:	9a000002 	bls	cefc <HubGetStatus+0x3c>
    cef0:	e3530020 	cmp	r3, #32
    cef4:	83a02003 	movhi	r2, #3
    cef8:	93a02002 	movls	r2, #2
    cefc:	e5dd300c 	ldrb	r3, [sp, #12]
    cf00:	e5d41004 	ldrb	r1, [r4, #4]
    cf04:	e5dd000e 	ldrb	r0, [sp, #14]
    cf08:	e20330f0 	and	r3, r3, #240	; 0xf0
    cf0c:	e1832002 	orr	r2, r3, r2
    cf10:	e2013003 	and	r3, r1, #3
    cf14:	e5d41000 	ldrb	r1, [r4]
    cf18:	e1823103 	orr	r3, r2, r3, lsl #2
    cf1c:	e3800004 	orr	r0, r0, #4
    cf20:	e5942414 	ldr	r2, [r4, #1044]	; 0x414
    cf24:	e5cd300c 	strb	r3, [sp, #12]
    cf28:	e5cd000e 	strb	r0, [sp, #14]
    cf2c:	e3a0c004 	mov	ip, #4
    cf30:	e5cd100d 	strb	r1, [sp, #13]
    cf34:	e28d5010 	add	r5, sp, #16
    cf38:	e3a0000a 	mov	r0, #10
    cf3c:	e3a0e000 	mov	lr, #0
    cf40:	e58d5000 	str	r5, [sp]
    cf44:	e58d0004 	str	r0, [sp, #4]
    cf48:	e59d100c 	ldr	r1, [sp, #12]
    cf4c:	e2822008 	add	r2, r2, #8
    cf50:	e1a0300c 	mov	r3, ip
    cf54:	e3e0505f 	mvn	r5, #95	; 0x5f
    cf58:	e1a00004 	mov	r0, r4
    cf5c:	e58de010 	str	lr, [sp, #16]
    cf60:	e58de014 	str	lr, [sp, #20]
    cf64:	e5cd5010 	strb	r5, [sp, #16]
    cf68:	e1cdc1b6 	strh	ip, [sp, #22]
    cf6c:	ebfffa4a 	bl	b89c <UsbControlMessage>
    cf70:	e3500000 	cmp	r0, #0
    cf74:	1a000002 	bne	cf84 <HubGetStatus+0xc4>
    cf78:	e5943418 	ldr	r3, [r4, #1048]	; 0x418
    cf7c:	e3530003 	cmp	r3, #3
    cf80:	9a000004 	bls	cf98 <HubGetStatus+0xd8>
    cf84:	e1a00c00 	lsl	r0, r0, #24
    cf88:	e1a00c40 	asr	r0, r0, #24
    cf8c:	e28dd01c 	add	sp, sp, #28
    cf90:	e8bd4030 	pop	{r4, r5, lr}
    cf94:	e12fff1e 	bx	lr
    cf98:	e1a00004 	mov	r0, r4
    cf9c:	ebfffa73 	bl	b970 <UsbGetDescription>
    cfa0:	e3a01028 	mov	r1, #40	; 0x28
    cfa4:	e1a02000 	mov	r2, r0
    cfa8:	e59f0008 	ldr	r0, [pc, #8]	; cfb8 <HubGetStatus+0xf8>
    cfac:	ebfff7a6 	bl	ae4c <LogPrintF>
    cfb0:	e3a000fc 	mov	r0, #252	; 0xfc
    cfb4:	eafffff2 	b	cf84 <HubGetStatus+0xc4>
    cfb8:	000132b0 	.word	0x000132b0

0000cfbc <HubPortGetStatus>:
    cfbc:	e92d4070 	push	{r4, r5, r6, lr}
    cfc0:	e5d0202b 	ldrb	r2, [r0, #43]	; 0x2b
    cfc4:	e20220ff 	and	r2, r2, #255	; 0xff
    cfc8:	e24dd018 	sub	sp, sp, #24
    cfcc:	e1a04000 	mov	r4, r0
    cfd0:	e3520008 	cmp	r2, #8
    cfd4:	e3a00000 	mov	r0, #0
    cfd8:	e1a03001 	mov	r3, r1
    cfdc:	e58d000c 	str	r0, [sp, #12]
    cfe0:	9a000005 	bls	cffc <HubPortGetStatus+0x40>
    cfe4:	e3520010 	cmp	r2, #16
    cfe8:	93a00001 	movls	r0, #1
    cfec:	9a000002 	bls	cffc <HubPortGetStatus+0x40>
    cff0:	e3520020 	cmp	r2, #32
    cff4:	83a00003 	movhi	r0, #3
    cff8:	93a00002 	movls	r0, #2
    cffc:	e5dd200c 	ldrb	r2, [sp, #12]
    d000:	e5d4e004 	ldrb	lr, [r4, #4]
    d004:	e5ddc00e 	ldrb	ip, [sp, #14]
    d008:	e20220f0 	and	r2, r2, #240	; 0xf0
    d00c:	e5d41000 	ldrb	r1, [r4]
    d010:	e1820000 	orr	r0, r2, r0
    d014:	e20ee003 	and	lr, lr, #3
    d018:	e5942414 	ldr	r2, [r4, #1044]	; 0x414
    d01c:	e180010e 	orr	r0, r0, lr, lsl #2
    d020:	e38cc004 	orr	ip, ip, #4
    d024:	e5cd000c 	strb	r0, [sp, #12]
    d028:	e5cdc00e 	strb	ip, [sp, #14]
    d02c:	e5cd100d 	strb	r1, [sp, #13]
    d030:	e3a0c004 	mov	ip, #4
    d034:	e0822103 	add	r2, r2, r3, lsl #2
    d038:	e28de010 	add	lr, sp, #16
    d03c:	e3a0000a 	mov	r0, #10
    d040:	e2835001 	add	r5, r3, #1
    d044:	e58de000 	str	lr, [sp]
    d048:	e58d0004 	str	r0, [sp, #4]
    d04c:	e3e0e05c 	mvn	lr, #92	; 0x5c
    d050:	e59d100c 	ldr	r1, [sp, #12]
    d054:	e2822014 	add	r2, r2, #20
    d058:	e3a06000 	mov	r6, #0
    d05c:	e1a0300c 	mov	r3, ip
    d060:	e1a00004 	mov	r0, r4
    d064:	e58d6010 	str	r6, [sp, #16]
    d068:	e1cd51b4 	strh	r5, [sp, #20]
    d06c:	e1cdc1b6 	strh	ip, [sp, #22]
    d070:	e5cde010 	strb	lr, [sp, #16]
    d074:	ebfffa08 	bl	b89c <UsbControlMessage>
    d078:	e3500000 	cmp	r0, #0
    d07c:	1a000002 	bne	d08c <HubPortGetStatus+0xd0>
    d080:	e5943418 	ldr	r3, [r4, #1048]	; 0x418
    d084:	e3530003 	cmp	r3, #3
    d088:	9a000004 	bls	d0a0 <HubPortGetStatus+0xe4>
    d08c:	e1a00c00 	lsl	r0, r0, #24
    d090:	e1a00c40 	asr	r0, r0, #24
    d094:	e28dd018 	add	sp, sp, #24
    d098:	e8bd4070 	pop	{r4, r5, r6, lr}
    d09c:	e12fff1e 	bx	lr
    d0a0:	e1a00004 	mov	r0, r4
    d0a4:	ebfffa31 	bl	b970 <UsbGetDescription>
    d0a8:	e1a03005 	mov	r3, r5
    d0ac:	e1a02000 	mov	r2, r0
    d0b0:	e3a01034 	mov	r1, #52	; 0x34
    d0b4:	e59f0008 	ldr	r0, [pc, #8]	; d0c4 <HubPortGetStatus+0x108>
    d0b8:	ebfff763 	bl	ae4c <LogPrintF>
    d0bc:	e3a000fc 	mov	r0, #252	; 0xfc
    d0c0:	eafffff1 	b	d08c <HubPortGetStatus+0xd0>
    d0c4:	000132d8 	.word	0x000132d8

0000d0c8 <HubChangeFeature>:
    d0c8:	e92d4070 	push	{r4, r5, r6, lr}
    d0cc:	e5d0302b 	ldrb	r3, [r0, #43]	; 0x2b
    d0d0:	e20330ff 	and	r3, r3, #255	; 0xff
    d0d4:	e24dd018 	sub	sp, sp, #24
    d0d8:	e3a0c000 	mov	ip, #0
    d0dc:	e3530008 	cmp	r3, #8
    d0e0:	e1a04001 	mov	r4, r1
    d0e4:	e1a05002 	mov	r5, r2
    d0e8:	e58dc00c 	str	ip, [sp, #12]
    d0ec:	9a000005 	bls	d108 <HubChangeFeature+0x40>
    d0f0:	e3530010 	cmp	r3, #16
    d0f4:	93a0c001 	movls	ip, #1
    d0f8:	9a000002 	bls	d108 <HubChangeFeature+0x40>
    d0fc:	e3530020 	cmp	r3, #32
    d100:	83a0c003 	movhi	ip, #3
    d104:	93a0c002 	movls	ip, #2
    d108:	e5dd300c 	ldrb	r3, [sp, #12]
    d10c:	e5d02004 	ldrb	r2, [r0, #4]
    d110:	e20330f0 	and	r3, r3, #240	; 0xf0
    d114:	e183c00c 	orr	ip, r3, ip
    d118:	e2023003 	and	r3, r2, #3
    d11c:	e5d02000 	ldrb	r2, [r0]
    d120:	e18c3103 	orr	r3, ip, r3, lsl #2
    d124:	e3a0c000 	mov	ip, #0
    d128:	e5cd300c 	strb	r3, [sp, #12]
    d12c:	e5cd200d 	strb	r2, [sp, #13]
    d130:	e155000c 	cmp	r5, ip
    d134:	e28d6010 	add	r6, sp, #16
    d138:	e3a0e00a 	mov	lr, #10
    d13c:	13a05003 	movne	r5, #3
    d140:	03a05001 	moveq	r5, #1
    d144:	e88d4040 	stm	sp, {r6, lr}
    d148:	e1a0200c 	mov	r2, ip
    d14c:	e3a0e020 	mov	lr, #32
    d150:	e59d100c 	ldr	r1, [sp, #12]
    d154:	e1a0300c 	mov	r3, ip
    d158:	e5cd5011 	strb	r5, [sp, #17]
    d15c:	e1cd41b2 	strh	r4, [sp, #18]
    d160:	e58dc014 	str	ip, [sp, #20]
    d164:	e5cde010 	strb	lr, [sp, #16]
    d168:	ebfff9cb 	bl	b89c <UsbControlMessage>
    d16c:	e28dd018 	add	sp, sp, #24
    d170:	e8bd4070 	pop	{r4, r5, r6, lr}
    d174:	e12fff1e 	bx	lr

0000d178 <HubChangePortFeature>:
    d178:	e92d40f0 	push	{r4, r5, r6, r7, lr}
    d17c:	e5d0c02b 	ldrb	ip, [r0, #43]	; 0x2b
    d180:	e20cc0ff 	and	ip, ip, #255	; 0xff
    d184:	e24dd01c 	sub	sp, sp, #28
    d188:	e3a0e000 	mov	lr, #0
    d18c:	e35c0008 	cmp	ip, #8
    d190:	e1a05001 	mov	r5, r1
    d194:	e58de00c 	str	lr, [sp, #12]
    d198:	e1a01002 	mov	r1, r2
    d19c:	9a000005 	bls	d1b8 <HubChangePortFeature+0x40>
    d1a0:	e35c0010 	cmp	ip, #16
    d1a4:	93a0e001 	movls	lr, #1
    d1a8:	9a000002 	bls	d1b8 <HubChangePortFeature+0x40>
    d1ac:	e35c0020 	cmp	ip, #32
    d1b0:	83a0e003 	movhi	lr, #3
    d1b4:	93a0e002 	movls	lr, #2
    d1b8:	e5ddc00c 	ldrb	ip, [sp, #12]
    d1bc:	e5d02004 	ldrb	r2, [r0, #4]
    d1c0:	e20cc0f0 	and	ip, ip, #240	; 0xf0
    d1c4:	e5d04000 	ldrb	r4, [r0]
    d1c8:	e18ce00e 	orr	lr, ip, lr
    d1cc:	e2022003 	and	r2, r2, #3
    d1d0:	e3a0c000 	mov	ip, #0
    d1d4:	e18ee102 	orr	lr, lr, r2, lsl #2
    d1d8:	e153000c 	cmp	r3, ip
    d1dc:	e5cde00c 	strb	lr, [sp, #12]
    d1e0:	e5cd400d 	strb	r4, [sp, #13]
    d1e4:	e28d7010 	add	r7, sp, #16
    d1e8:	e3a0400a 	mov	r4, #10
    d1ec:	e281e001 	add	lr, r1, #1
    d1f0:	13a06003 	movne	r6, #3
    d1f4:	03a06001 	moveq	r6, #1
    d1f8:	e58d4004 	str	r4, [sp, #4]
    d1fc:	e1a0200c 	mov	r2, ip
    d200:	e59d100c 	ldr	r1, [sp, #12]
    d204:	e1a0300c 	mov	r3, ip
    d208:	e58d7000 	str	r7, [sp]
    d20c:	e3a04023 	mov	r4, #35	; 0x23
    d210:	e58dc014 	str	ip, [sp, #20]
    d214:	e5cd6011 	strb	r6, [sp, #17]
    d218:	e1cd51b2 	strh	r5, [sp, #18]
    d21c:	e5cd4010 	strb	r4, [sp, #16]
    d220:	e1cde1b4 	strh	lr, [sp, #20]
    d224:	ebfff99c 	bl	b89c <UsbControlMessage>
    d228:	e28dd01c 	add	sp, sp, #28
    d22c:	e8bd40f0 	pop	{r4, r5, r6, r7, lr}
    d230:	e12fff1e 	bx	lr

0000d234 <HubPowerOn>:
    d234:	e92d40f8 	push	{r3, r4, r5, r6, r7, lr}
    d238:	e5904414 	ldr	r4, [r0, #1044]	; 0x414
    d23c:	e5d42010 	ldrb	r2, [r4, #16]
    d240:	e5d41011 	ldrb	r1, [r4, #17]
    d244:	e5d4300c 	ldrb	r3, [r4, #12]
    d248:	e5d4c012 	ldrb	ip, [r4, #18]
    d24c:	e5d4700d 	ldrb	r7, [r4, #13]
    d250:	e1821401 	orr	r1, r2, r1, lsl #8
    d254:	e1a06000 	mov	r6, r0
    d258:	e5d4200e 	ldrb	r2, [r4, #14]
    d25c:	e5d40013 	ldrb	r0, [r4, #19]
    d260:	e1837407 	orr	r7, r3, r7, lsl #8
    d264:	e181180c 	orr	r1, r1, ip, lsl #16
    d268:	e5d4300f 	ldrb	r3, [r4, #15]
    d26c:	e1877802 	orr	r7, r7, r2, lsl #16
    d270:	e1910c00 	orrs	r0, r1, r0, lsl #24
    d274:	e1877c03 	orr	r7, r7, r3, lsl #24
    d278:	0a00001d 	beq	d2f4 <HubPowerOn+0xc0>
    d27c:	e3a05001 	mov	r5, #1
    d280:	ea000009 	b	d2ac <HubPowerOn+0x78>
    d284:	e5d42011 	ldrb	r2, [r4, #17]
    d288:	e5d43010 	ldrb	r3, [r4, #16]
    d28c:	e5d41012 	ldrb	r1, [r4, #18]
    d290:	e1833402 	orr	r3, r3, r2, lsl #8
    d294:	e5d42013 	ldrb	r2, [r4, #19]
    d298:	e1833801 	orr	r3, r3, r1, lsl #16
    d29c:	e1833c02 	orr	r3, r3, r2, lsl #24
    d2a0:	e1530000 	cmp	r3, r0
    d2a4:	e2855001 	add	r5, r5, #1
    d2a8:	9a000011 	bls	d2f4 <HubPowerOn+0xc0>
    d2ac:	e2452001 	sub	r2, r5, #1
    d2b0:	e20220ff 	and	r2, r2, #255	; 0xff
    d2b4:	e1a00006 	mov	r0, r6
    d2b8:	e3a01008 	mov	r1, #8
    d2bc:	e3a03001 	mov	r3, #1
    d2c0:	ebffffac 	bl	d178 <HubChangePortFeature>
    d2c4:	e3500000 	cmp	r0, #0
    d2c8:	01a00005 	moveq	r0, r5
    d2cc:	0affffec 	beq	d284 <HubPowerOn+0x50>
    d2d0:	e1a00006 	mov	r0, r6
    d2d4:	ebfff9a5 	bl	b970 <UsbGetDescription>
    d2d8:	e3a01021 	mov	r1, #33	; 0x21
    d2dc:	e1a02000 	mov	r2, r0
    d2e0:	e1a03005 	mov	r3, r5
    d2e4:	e59f0028 	ldr	r0, [pc, #40]	; d314 <HubPowerOn+0xe0>
    d2e8:	ebfff6d7 	bl	ae4c <LogPrintF>
    d2ec:	e1a00005 	mov	r0, r5
    d2f0:	eaffffe3 	b	d284 <HubPowerOn+0x50>
    d2f4:	e5d73005 	ldrb	r3, [r7, #5]
    d2f8:	e0632283 	rsb	r2, r3, r3, lsl #5
    d2fc:	e0830102 	add	r0, r3, r2, lsl #2
    d300:	e1a00200 	lsl	r0, r0, #4
    d304:	eb001528 	bl	127ac <MicroDelay>
    d308:	e3a00000 	mov	r0, #0
    d30c:	e8bd40f8 	pop	{r3, r4, r5, r6, r7, lr}
    d310:	e12fff1e 	bx	lr
    d314:	0001330c 	.word	0x0001330c

0000d318 <HubPortReset>:
    d318:	e92d43f8 	push	{r3, r4, r5, r6, r7, r8, r9, lr}
    d31c:	e5905414 	ldr	r5, [r0, #1044]	; 0x414
    d320:	e0855101 	add	r5, r5, r1, lsl #2
    d324:	e1a08000 	mov	r8, r0
    d328:	e1a07001 	mov	r7, r1
    d32c:	e2855014 	add	r5, r5, #20
    d330:	e3a09003 	mov	r9, #3
    d334:	e1a00008 	mov	r0, r8
    d338:	e3a01004 	mov	r1, #4
    d33c:	e1a02007 	mov	r2, r7
    d340:	e3a03001 	mov	r3, #1
    d344:	ebffff8b 	bl	d178 <HubChangePortFeature>
    d348:	e2504000 	subs	r4, r0, #0
    d34c:	1a000046 	bne	d46c <HubPortReset+0x154>
    d350:	e59f0138 	ldr	r0, [pc, #312]	; d490 <HubPortReset+0x178>
    d354:	eb001514 	bl	127ac <MicroDelay>
    d358:	e1a00008 	mov	r0, r8
    d35c:	e1a01007 	mov	r1, r7
    d360:	ebffff15 	bl	cfbc <HubPortGetStatus>
    d364:	e2506000 	subs	r6, r0, #0
    d368:	1a000032 	bne	d438 <HubPortReset+0x120>
    d36c:	e5d5c002 	ldrb	ip, [r5, #2]
    d370:	e31c0010 	tst	ip, #16
    d374:	e2844001 	add	r4, r4, #1
    d378:	1a000012 	bne	d3c8 <HubPortReset+0xb0>
    d37c:	e5d56000 	ldrb	r6, [r5]
    d380:	e3160002 	tst	r6, #2
    d384:	1a00000f 	bne	d3c8 <HubPortReset+0xb0>
    d388:	e354000a 	cmp	r4, #10
    d38c:	1affffef 	bne	d350 <HubPortReset+0x38>
    d390:	e2599001 	subs	r9, r9, #1
    d394:	1affffe6 	bne	d334 <HubPortReset+0x1c>
    d398:	e1a00008 	mov	r0, r8
    d39c:	ebfff973 	bl	b970 <UsbGetDescription>
    d3a0:	e2873001 	add	r3, r7, #1
    d3a4:	e1a02000 	mov	r2, r0
    d3a8:	e3a01046 	mov	r1, #70	; 0x46
    d3ac:	e59f00e0 	ldr	r0, [pc, #224]	; d494 <HubPortReset+0x17c>
    d3b0:	ebfff6a5 	bl	ae4c <LogPrintF>
    d3b4:	e3a060fc 	mov	r6, #252	; 0xfc
    d3b8:	e1a06c06 	lsl	r6, r6, #24
    d3bc:	e1a00c46 	asr	r0, r6, #24
    d3c0:	e8bd43f8 	pop	{r3, r4, r5, r6, r7, r8, r9, lr}
    d3c4:	e12fff1e 	bx	lr
    d3c8:	e354000a 	cmp	r4, #10
    d3cc:	0affffef 	beq	d390 <HubPortReset+0x78>
    d3d0:	e21c6001 	ands	r6, ip, #1
    d3d4:	1a000022 	bne	d464 <HubPortReset+0x14c>
    d3d8:	e5d52000 	ldrb	r2, [r5]
    d3dc:	e3120001 	tst	r2, #1
    d3e0:	0a00001f 	beq	d464 <HubPortReset+0x14c>
    d3e4:	e3120002 	tst	r2, #2
    d3e8:	0affffe8 	beq	d390 <HubPortReset+0x78>
    d3ec:	e1a03006 	mov	r3, r6
    d3f0:	e1a00008 	mov	r0, r8
    d3f4:	e3a01014 	mov	r1, #20
    d3f8:	e1a02007 	mov	r2, r7
    d3fc:	ebffff5d 	bl	d178 <HubChangePortFeature>
    d400:	e3500000 	cmp	r0, #0
    d404:	01a06000 	moveq	r6, r0
    d408:	0affffea 	beq	d3b8 <HubPortReset+0xa0>
    d40c:	e1a00008 	mov	r0, r8
    d410:	ebfff956 	bl	b970 <UsbGetDescription>
    d414:	e1a06c06 	lsl	r6, r6, #24
    d418:	e1a02000 	mov	r2, r0
    d41c:	e2873001 	add	r3, r7, #1
    d420:	e59f0070 	ldr	r0, [pc, #112]	; d498 <HubPortReset+0x180>
    d424:	e3a0102a 	mov	r1, #42	; 0x2a
    d428:	ebfff687 	bl	ae4c <LogPrintF>
    d42c:	e1a00c46 	asr	r0, r6, #24
    d430:	e8bd43f8 	pop	{r3, r4, r5, r6, r7, r8, r9, lr}
    d434:	e12fff1e 	bx	lr
    d438:	e1a00008 	mov	r0, r8
    d43c:	ebfff94b 	bl	b970 <UsbGetDescription>
    d440:	e1a06c06 	lsl	r6, r6, #24
    d444:	e1a02000 	mov	r2, r0
    d448:	e2873001 	add	r3, r7, #1
    d44c:	e59f0048 	ldr	r0, [pc, #72]	; d49c <HubPortReset+0x184>
    d450:	e3a01032 	mov	r1, #50	; 0x32
    d454:	ebfff67c 	bl	ae4c <LogPrintF>
    d458:	e1a00c46 	asr	r0, r6, #24
    d45c:	e8bd43f8 	pop	{r3, r4, r5, r6, r7, r8, r9, lr}
    d460:	e12fff1e 	bx	lr
    d464:	e3a060fc 	mov	r6, #252	; 0xfc
    d468:	eaffffd2 	b	d3b8 <HubPortReset+0xa0>
    d46c:	e1a00008 	mov	r0, r8
    d470:	ebfff93e 	bl	b970 <UsbGetDescription>
    d474:	e2873001 	add	r3, r7, #1
    d478:	e1a02000 	mov	r2, r0
    d47c:	e3a01021 	mov	r1, #33	; 0x21
    d480:	e59f0018 	ldr	r0, [pc, #24]	; d4a0 <HubPortReset+0x188>
    d484:	ebfff670 	bl	ae4c <LogPrintF>
    d488:	e1a06004 	mov	r6, r4
    d48c:	eaffffc9 	b	d3b8 <HubPortReset+0xa0>
    d490:	00004e20 	.word	0x00004e20
    d494:	000133b4 	.word	0x000133b4
    d498:	00013388 	.word	0x00013388
    d49c:	00013354 	.word	0x00013354
    d4a0:	00013330 	.word	0x00013330

0000d4a4 <HubChildReset>:
    d4a4:	e591240c 	ldr	r2, [r1, #1036]	; 0x40c
    d4a8:	e1520000 	cmp	r2, r0
    d4ac:	e92d0030 	push	{r4, r5}
    d4b0:	e5903414 	ldr	r3, [r0, #1044]	; 0x414
    d4b4:	1a000016 	bne	d514 <HubChildReset+0x70>
    d4b8:	e5d34011 	ldrb	r4, [r3, #17]
    d4bc:	e5d3c010 	ldrb	ip, [r3, #16]
    d4c0:	e5d32012 	ldrb	r2, [r3, #18]
    d4c4:	e18cc404 	orr	ip, ip, r4, lsl #8
    d4c8:	e5d34013 	ldrb	r4, [r3, #19]
    d4cc:	e18cc802 	orr	ip, ip, r2, lsl #16
    d4d0:	e5d12007 	ldrb	r2, [r1, #7]
    d4d4:	e18ccc04 	orr	ip, ip, r4, lsl #24
    d4d8:	e152000c 	cmp	r2, ip
    d4dc:	2a00000c 	bcs	d514 <HubChildReset+0x70>
    d4e0:	e282c00e 	add	ip, r2, #14
    d4e4:	e083310c 	add	r3, r3, ip, lsl #2
    d4e8:	e5d3c004 	ldrb	ip, [r3, #4]
    d4ec:	e5d34005 	ldrb	r4, [r3, #5]
    d4f0:	e5d35006 	ldrb	r5, [r3, #6]
    d4f4:	e18c4404 	orr	r4, ip, r4, lsl #8
    d4f8:	e5d3c007 	ldrb	ip, [r3, #7]
    d4fc:	e1843805 	orr	r3, r4, r5, lsl #16
    d500:	e1833c0c 	orr	r3, r3, ip, lsl #24
    d504:	e1510003 	cmp	r1, r3
    d508:	01a01002 	moveq	r1, r2
    d50c:	08bd0030 	popeq	{r4, r5}
    d510:	0affff80 	beq	d318 <HubPortReset>
    d514:	e3e00003 	mvn	r0, #3
    d518:	e8bd0030 	pop	{r4, r5}
    d51c:	e12fff1e 	bx	lr

0000d520 <HubPortConnectionChanged>:
    d520:	e92d47f0 	push	{r4, r5, r6, r7, r8, r9, sl, lr}
    d524:	e24dd008 	sub	sp, sp, #8
    d528:	e1a06000 	mov	r6, r0
    d52c:	e5907414 	ldr	r7, [r0, #1044]	; 0x414
    d530:	e1a05001 	mov	r5, r1
    d534:	ebfffea0 	bl	cfbc <HubPortGetStatus>
    d538:	e2504000 	subs	r4, r0, #0
    d53c:	1a000066 	bne	d6dc <HubPortConnectionChanged+0x1bc>
    d540:	e1a03004 	mov	r3, r4
    d544:	e1a00006 	mov	r0, r6
    d548:	e3a01010 	mov	r1, #16
    d54c:	e1a02005 	mov	r2, r5
    d550:	ebffff08 	bl	d178 <HubChangePortFeature>
    d554:	e3500000 	cmp	r0, #0
    d558:	1a000067 	bne	d6fc <HubPortConnectionChanged+0x1dc>
    d55c:	e2858004 	add	r8, r5, #4
    d560:	e0878108 	add	r8, r7, r8, lsl #2
    d564:	e5d83004 	ldrb	r3, [r8, #4]
    d568:	e3130003 	tst	r3, #3
    d56c:	e2889004 	add	r9, r8, #4
    d570:	0a000009 	beq	d59c <HubPortConnectionChanged+0x7c>
    d574:	e285300e 	add	r3, r5, #14
    d578:	e0873103 	add	r3, r7, r3, lsl #2
    d57c:	e5d32004 	ldrb	r2, [r3, #4]
    d580:	e5d31005 	ldrb	r1, [r3, #5]
    d584:	e5d30006 	ldrb	r0, [r3, #6]
    d588:	e1821401 	orr	r1, r2, r1, lsl #8
    d58c:	e5d32007 	ldrb	r2, [r3, #7]
    d590:	e1813800 	orr	r3, r1, r0, lsl #16
    d594:	e1932c02 	orrs	r2, r3, r2, lsl #24
    d598:	0a000021 	beq	d624 <HubPortConnectionChanged+0x104>
    d59c:	e1a00006 	mov	r0, r6
    d5a0:	ebfff8f2 	bl	b970 <UsbGetDescription>
    d5a4:	e0874105 	add	r4, r7, r5, lsl #2
    d5a8:	e5d4103d 	ldrb	r1, [r4, #61]	; 0x3d
    d5ac:	e5d4303c 	ldrb	r3, [r4, #60]	; 0x3c
    d5b0:	e5d4203e 	ldrb	r2, [r4, #62]	; 0x3e
    d5b4:	e1833401 	orr	r3, r3, r1, lsl #8
    d5b8:	e1a0a000 	mov	sl, r0
    d5bc:	e5d4003f 	ldrb	r0, [r4, #63]	; 0x3f
    d5c0:	e1833802 	orr	r3, r3, r2, lsl #16
    d5c4:	e1830c00 	orr	r0, r3, r0, lsl #24
    d5c8:	ebfff8e8 	bl	b970 <UsbGetDescription>
    d5cc:	e1a0200a 	mov	r2, sl
    d5d0:	e58d0000 	str	r0, [sp]
    d5d4:	e3a01023 	mov	r1, #35	; 0x23
    d5d8:	e59f0254 	ldr	r0, [pc, #596]	; d834 <HubPortConnectionChanged+0x314>
    d5dc:	e2853001 	add	r3, r5, #1
    d5e0:	ebfff619 	bl	ae4c <LogPrintF>
    d5e4:	e5d4303c 	ldrb	r3, [r4, #60]	; 0x3c
    d5e8:	e5d4103d 	ldrb	r1, [r4, #61]	; 0x3d
    d5ec:	e5d4203e 	ldrb	r2, [r4, #62]	; 0x3e
    d5f0:	e1833401 	orr	r3, r3, r1, lsl #8
    d5f4:	e5d4003f 	ldrb	r0, [r4, #63]	; 0x3f
    d5f8:	e1833802 	orr	r3, r3, r2, lsl #16
    d5fc:	e1830c00 	orr	r0, r3, r0, lsl #24
    d600:	ebfffce4 	bl	c998 <UsbDeallocateDevice>
    d604:	e3a03000 	mov	r3, #0
    d608:	e5c4303c 	strb	r3, [r4, #60]	; 0x3c
    d60c:	e5c4303d 	strb	r3, [r4, #61]	; 0x3d
    d610:	e5c4303e 	strb	r3, [r4, #62]	; 0x3e
    d614:	e5c4303f 	strb	r3, [r4, #63]	; 0x3f
    d618:	e5d83004 	ldrb	r3, [r8, #4]
    d61c:	e3130001 	tst	r3, #1
    d620:	0a000027 	beq	d6c4 <HubPortConnectionChanged+0x1a4>
    d624:	e1a00006 	mov	r0, r6
    d628:	e1a01005 	mov	r1, r5
    d62c:	ebffff39 	bl	d318 <HubPortReset>
    d630:	e2504000 	subs	r4, r0, #0
    d634:	1a00003f 	bne	d738 <HubPortConnectionChanged+0x218>
    d638:	e285800e 	add	r8, r5, #14
    d63c:	e0878108 	add	r8, r7, r8, lsl #2
    d640:	e2880004 	add	r0, r8, #4
    d644:	ebfffc9b 	bl	c8b8 <UsbAllocateDevice>
    d648:	e2504000 	subs	r4, r0, #0
    d64c:	e1a00006 	mov	r0, r6
    d650:	1a000031 	bne	d71c <HubPortConnectionChanged+0x1fc>
    d654:	e1a01005 	mov	r1, r5
    d658:	ebfffe57 	bl	cfbc <HubPortGetStatus>
    d65c:	e2504000 	subs	r4, r0, #0
    d660:	1a00006b 	bne	d814 <HubPortConnectionChanged+0x2f4>
    d664:	e5d93001 	ldrb	r3, [r9, #1]
    d668:	e3130004 	tst	r3, #4
    d66c:	0a000039 	beq	d758 <HubPortConnectionChanged+0x238>
    d670:	e5d82005 	ldrb	r2, [r8, #5]
    d674:	e5d83004 	ldrb	r3, [r8, #4]
    d678:	e5d81006 	ldrb	r1, [r8, #6]
    d67c:	e1833402 	orr	r3, r3, r2, lsl #8
    d680:	e5d82007 	ldrb	r2, [r8, #7]
    d684:	e1833801 	orr	r3, r3, r1, lsl #16
    d688:	e1833c02 	orr	r3, r3, r2, lsl #24
    d68c:	e5c34004 	strb	r4, [r3, #4]
    d690:	e583640c 	str	r6, [r3, #1036]	; 0x40c
    d694:	e5c35007 	strb	r5, [r3, #7]
    d698:	e0877105 	add	r7, r7, r5, lsl #2
    d69c:	e5d7303c 	ldrb	r3, [r7, #60]	; 0x3c
    d6a0:	e5d7103d 	ldrb	r1, [r7, #61]	; 0x3d
    d6a4:	e5d7203e 	ldrb	r2, [r7, #62]	; 0x3e
    d6a8:	e1833401 	orr	r3, r3, r1, lsl #8
    d6ac:	e5d7003f 	ldrb	r0, [r7, #63]	; 0x3f
    d6b0:	e1833802 	orr	r3, r3, r2, lsl #16
    d6b4:	e1830c00 	orr	r0, r3, r0, lsl #24
    d6b8:	ebfffba4 	bl	c550 <UsbAttachDevice>
    d6bc:	e2504000 	subs	r4, r0, #0
    d6c0:	1a000030 	bne	d788 <HubPortConnectionChanged+0x268>
    d6c4:	e3a04000 	mov	r4, #0
    d6c8:	e1a00c04 	lsl	r0, r4, #24
    d6cc:	e1a00c40 	asr	r0, r0, #24
    d6d0:	e28dd008 	add	sp, sp, #8
    d6d4:	e8bd47f0 	pop	{r4, r5, r6, r7, r8, r9, sl, lr}
    d6d8:	e12fff1e 	bx	lr
    d6dc:	e1a00006 	mov	r0, r6
    d6e0:	ebfff8a2 	bl	b970 <UsbGetDescription>
    d6e4:	e2853001 	add	r3, r5, #1
    d6e8:	e1a02000 	mov	r2, r0
    d6ec:	e3a01032 	mov	r1, #50	; 0x32
    d6f0:	e59f0140 	ldr	r0, [pc, #320]	; d838 <HubPortConnectionChanged+0x318>
    d6f4:	ebfff5d4 	bl	ae4c <LogPrintF>
    d6f8:	eafffff2 	b	d6c8 <HubPortConnectionChanged+0x1a8>
    d6fc:	e1a00006 	mov	r0, r6
    d700:	ebfff89a 	bl	b970 <UsbGetDescription>
    d704:	e3a0102b 	mov	r1, #43	; 0x2b
    d708:	e1a02000 	mov	r2, r0
    d70c:	e2853001 	add	r3, r5, #1
    d710:	e59f0124 	ldr	r0, [pc, #292]	; d83c <HubPortConnectionChanged+0x31c>
    d714:	ebfff5cc 	bl	ae4c <LogPrintF>
    d718:	eaffff8f 	b	d55c <HubPortConnectionChanged+0x3c>
    d71c:	ebfff893 	bl	b970 <UsbGetDescription>
    d720:	e2853001 	add	r3, r5, #1
    d724:	e1a02000 	mov	r2, r0
    d728:	e3a0103b 	mov	r1, #59	; 0x3b
    d72c:	e59f010c 	ldr	r0, [pc, #268]	; d840 <HubPortConnectionChanged+0x320>
    d730:	ebfff5c5 	bl	ae4c <LogPrintF>
    d734:	eaffffe3 	b	d6c8 <HubPortConnectionChanged+0x1a8>
    d738:	e1a00006 	mov	r0, r6
    d73c:	ebfff88b 	bl	b970 <UsbGetDescription>
    d740:	e2853001 	add	r3, r5, #1
    d744:	e1a02000 	mov	r2, r0
    d748:	e3a01030 	mov	r1, #48	; 0x30
    d74c:	e59f00f0 	ldr	r0, [pc, #240]	; d844 <HubPortConnectionChanged+0x324>
    d750:	ebfff5bd 	bl	ae4c <LogPrintF>
    d754:	eaffffdb 	b	d6c8 <HubPortConnectionChanged+0x1a8>
    d758:	e3130002 	tst	r3, #2
    d75c:	e5d82005 	ldrb	r2, [r8, #5]
    d760:	e5d83004 	ldrb	r3, [r8, #4]
    d764:	e5d81006 	ldrb	r1, [r8, #6]
    d768:	e1833402 	orr	r3, r3, r2, lsl #8
    d76c:	e5d82007 	ldrb	r2, [r8, #7]
    d770:	e1833801 	orr	r3, r3, r1, lsl #16
    d774:	e1833c02 	orr	r3, r3, r2, lsl #24
    d778:	13a02002 	movne	r2, #2
    d77c:	03a02001 	moveq	r2, #1
    d780:	e5c32004 	strb	r2, [r3, #4]
    d784:	eaffffc1 	b	d690 <HubPortConnectionChanged+0x170>
    d788:	e1a00006 	mov	r0, r6
    d78c:	ebfff877 	bl	b970 <UsbGetDescription>
    d790:	e2858001 	add	r8, r5, #1
    d794:	e1a02000 	mov	r2, r0
    d798:	e1a03008 	mov	r3, r8
    d79c:	e59f00a4 	ldr	r0, [pc, #164]	; d848 <HubPortConnectionChanged+0x328>
    d7a0:	e3a0103f 	mov	r1, #63	; 0x3f
    d7a4:	ebfff5a8 	bl	ae4c <LogPrintF>
    d7a8:	e5d7103d 	ldrb	r1, [r7, #61]	; 0x3d
    d7ac:	e5d7303c 	ldrb	r3, [r7, #60]	; 0x3c
    d7b0:	e5d7203e 	ldrb	r2, [r7, #62]	; 0x3e
    d7b4:	e1833401 	orr	r3, r3, r1, lsl #8
    d7b8:	e5d7003f 	ldrb	r0, [r7, #63]	; 0x3f
    d7bc:	e1833802 	orr	r3, r3, r2, lsl #16
    d7c0:	e1830c00 	orr	r0, r3, r0, lsl #24
    d7c4:	ebfffc73 	bl	c998 <UsbDeallocateDevice>
    d7c8:	e3a03000 	mov	r3, #0
    d7cc:	e1a02005 	mov	r2, r5
    d7d0:	e5c7303c 	strb	r3, [r7, #60]	; 0x3c
    d7d4:	e5c7303d 	strb	r3, [r7, #61]	; 0x3d
    d7d8:	e5c7303e 	strb	r3, [r7, #62]	; 0x3e
    d7dc:	e5c7303f 	strb	r3, [r7, #63]	; 0x3f
    d7e0:	e1a00006 	mov	r0, r6
    d7e4:	e3a01001 	mov	r1, #1
    d7e8:	ebfffe62 	bl	d178 <HubChangePortFeature>
    d7ec:	e3500000 	cmp	r0, #0
    d7f0:	0affffb4 	beq	d6c8 <HubPortConnectionChanged+0x1a8>
    d7f4:	e1a00006 	mov	r0, r6
    d7f8:	ebfff85c 	bl	b970 <UsbGetDescription>
    d7fc:	e1a03008 	mov	r3, r8
    d800:	e1a02000 	mov	r2, r0
    d804:	e3a01023 	mov	r1, #35	; 0x23
    d808:	e59f003c 	ldr	r0, [pc, #60]	; d84c <HubPortConnectionChanged+0x32c>
    d80c:	ebfff58e 	bl	ae4c <LogPrintF>
    d810:	eaffffac 	b	d6c8 <HubPortConnectionChanged+0x1a8>
    d814:	e1a00006 	mov	r0, r6
    d818:	ebfff854 	bl	b970 <UsbGetDescription>
    d81c:	e2853001 	add	r3, r5, #1
    d820:	e1a02000 	mov	r2, r0
    d824:	e3a01032 	mov	r1, #50	; 0x32
    d828:	e59f0020 	ldr	r0, [pc, #32]	; d850 <HubPortConnectionChanged+0x330>
    d82c:	ebfff586 	bl	ae4c <LogPrintF>
    d830:	eaffffa4 	b	d6c8 <HubPortConnectionChanged+0x1a8>
    d834:	0001345c 	.word	0x0001345c
    d838:	000133fc 	.word	0x000133fc
    d83c:	00013430 	.word	0x00013430
    d840:	000134b0 	.word	0x000134b0
    d844:	00013480 	.word	0x00013480
    d848:	00013520 	.word	0x00013520
    d84c:	00013560 	.word	0x00013560
    d850:	000134ec 	.word	0x000134ec

0000d854 <HubCheckConnection>:
    d854:	e92d41f0 	push	{r4, r5, r6, r7, r8, lr}
    d858:	e1a04000 	mov	r4, r0
    d85c:	e5907414 	ldr	r7, [r0, #1044]	; 0x414
    d860:	e1a05001 	mov	r5, r1
    d864:	ebfffdd4 	bl	cfbc <HubPortGetStatus>
    d868:	e2506000 	subs	r6, r0, #0
    d86c:	0a00000c 	beq	d8a4 <HubCheckConnection+0x50>
    d870:	e3760009 	cmn	r6, #9
    d874:	0a000006 	beq	d894 <HubCheckConnection+0x40>
    d878:	e1a00004 	mov	r0, r4
    d87c:	ebfff83b 	bl	b970 <UsbGetDescription>
    d880:	e2853001 	add	r3, r5, #1
    d884:	e1a02000 	mov	r2, r0
    d888:	e3a01037 	mov	r1, #55	; 0x37
    d88c:	e59f01e4 	ldr	r0, [pc, #484]	; da78 <HubCheckConnection+0x224>
    d890:	ebfff56d 	bl	ae4c <LogPrintF>
    d894:	e1a00c06 	lsl	r0, r6, #24
    d898:	e1a00c40 	asr	r0, r0, #24
    d89c:	e8bd41f0 	pop	{r4, r5, r6, r7, r8, lr}
    d8a0:	e12fff1e 	bx	lr
    d8a4:	e2858004 	add	r8, r5, #4
    d8a8:	e0878108 	add	r8, r7, r8, lsl #2
    d8ac:	e2886004 	add	r6, r8, #4
    d8b0:	e5d60002 	ldrb	r0, [r6, #2]
    d8b4:	e3100001 	tst	r0, #1
    d8b8:	1a00002e 	bne	d978 <HubCheckConnection+0x124>
    d8bc:	e3100002 	tst	r0, #2
    d8c0:	1a00000c 	bne	d8f8 <HubCheckConnection+0xa4>
    d8c4:	e5d83004 	ldrb	r3, [r8, #4]
    d8c8:	e3130004 	tst	r3, #4
    d8cc:	1a00003f 	bne	d9d0 <HubCheckConnection+0x17c>
    d8d0:	e5d60002 	ldrb	r0, [r6, #2]
    d8d4:	e3100008 	tst	r0, #8
    d8d8:	1a00004b 	bne	da0c <HubCheckConnection+0x1b8>
    d8dc:	e3100010 	tst	r0, #16
    d8e0:	1a00002b 	bne	d994 <HubCheckConnection+0x140>
    d8e4:	e3a06000 	mov	r6, #0
    d8e8:	e1a00c06 	lsl	r0, r6, #24
    d8ec:	e1a00c40 	asr	r0, r0, #24
    d8f0:	e8bd41f0 	pop	{r4, r5, r6, r7, r8, lr}
    d8f4:	e12fff1e 	bx	lr
    d8f8:	e1a00004 	mov	r0, r4
    d8fc:	e3a01011 	mov	r1, #17
    d900:	e1a02005 	mov	r2, r5
    d904:	e3a03000 	mov	r3, #0
    d908:	ebfffe1a 	bl	d178 <HubChangePortFeature>
    d90c:	e3500000 	cmp	r0, #0
    d910:	1a000048 	bne	da38 <HubCheckConnection+0x1e4>
    d914:	e5d83004 	ldrb	r3, [r8, #4]
    d918:	e2032003 	and	r2, r3, #3
    d91c:	e3520001 	cmp	r2, #1
    d920:	1affffe8 	bne	d8c8 <HubCheckConnection+0x74>
    d924:	e285200e 	add	r2, r5, #14
    d928:	e0877102 	add	r7, r7, r2, lsl #2
    d92c:	e5d71005 	ldrb	r1, [r7, #5]
    d930:	e5d72004 	ldrb	r2, [r7, #4]
    d934:	e5d70006 	ldrb	r0, [r7, #6]
    d938:	e1822401 	orr	r2, r2, r1, lsl #8
    d93c:	e5d71007 	ldrb	r1, [r7, #7]
    d940:	e1822800 	orr	r2, r2, r0, lsl #16
    d944:	e1921c01 	orrs	r1, r2, r1, lsl #24
    d948:	0affffde 	beq	d8c8 <HubCheckConnection+0x74>
    d94c:	e1a00004 	mov	r0, r4
    d950:	ebfff806 	bl	b970 <UsbGetDescription>
    d954:	e3a01064 	mov	r1, #100	; 0x64
    d958:	e1a02000 	mov	r2, r0
    d95c:	e2853001 	add	r3, r5, #1
    d960:	e59f0114 	ldr	r0, [pc, #276]	; da7c <HubCheckConnection+0x228>
    d964:	ebfff538 	bl	ae4c <LogPrintF>
    d968:	e1a00004 	mov	r0, r4
    d96c:	e1a01005 	mov	r1, r5
    d970:	ebfffeea 	bl	d520 <HubPortConnectionChanged>
    d974:	eaffffd2 	b	d8c4 <HubCheckConnection+0x70>
    d978:	e1a00004 	mov	r0, r4
    d97c:	e1a01005 	mov	r1, r5
    d980:	ebfffee6 	bl	d520 <HubPortConnectionChanged>
    d984:	e5d60002 	ldrb	r0, [r6, #2]
    d988:	e3100002 	tst	r0, #2
    d98c:	0affffcc 	beq	d8c4 <HubCheckConnection+0x70>
    d990:	eaffffd8 	b	d8f8 <HubCheckConnection+0xa4>
    d994:	e1a00004 	mov	r0, r4
    d998:	e3a01014 	mov	r1, #20
    d99c:	e1a02005 	mov	r2, r5
    d9a0:	e3a03000 	mov	r3, #0
    d9a4:	ebfffdf3 	bl	d178 <HubChangePortFeature>
    d9a8:	e3500000 	cmp	r0, #0
    d9ac:	0affffcc 	beq	d8e4 <HubCheckConnection+0x90>
    d9b0:	e1a00004 	mov	r0, r4
    d9b4:	ebfff7ed 	bl	b970 <UsbGetDescription>
    d9b8:	e2853001 	add	r3, r5, #1
    d9bc:	e1a02000 	mov	r2, r0
    d9c0:	e3a0102e 	mov	r1, #46	; 0x2e
    d9c4:	e59f00b4 	ldr	r0, [pc, #180]	; da80 <HubCheckConnection+0x22c>
    d9c8:	ebfff51f 	bl	ae4c <LogPrintF>
    d9cc:	eaffffc4 	b	d8e4 <HubCheckConnection+0x90>
    d9d0:	e1a00004 	mov	r0, r4
    d9d4:	e3a01002 	mov	r1, #2
    d9d8:	e1a02005 	mov	r2, r5
    d9dc:	e3a03000 	mov	r3, #0
    d9e0:	ebfffde4 	bl	d178 <HubChangePortFeature>
    d9e4:	e3500000 	cmp	r0, #0
    d9e8:	0affffb8 	beq	d8d0 <HubCheckConnection+0x7c>
    d9ec:	e1a00004 	mov	r0, r4
    d9f0:	ebfff7de 	bl	b970 <UsbGetDescription>
    d9f4:	e3a01032 	mov	r1, #50	; 0x32
    d9f8:	e1a02000 	mov	r2, r0
    d9fc:	e2853001 	add	r3, r5, #1
    da00:	e59f007c 	ldr	r0, [pc, #124]	; da84 <HubCheckConnection+0x230>
    da04:	ebfff510 	bl	ae4c <LogPrintF>
    da08:	eaffffb0 	b	d8d0 <HubCheckConnection+0x7c>
    da0c:	e1a00004 	mov	r0, r4
    da10:	e3a01013 	mov	r1, #19
    da14:	e1a02005 	mov	r2, r5
    da18:	e3a03000 	mov	r3, #0
    da1c:	ebfffdd5 	bl	d178 <HubChangePortFeature>
    da20:	e3500000 	cmp	r0, #0
    da24:	1a00000b 	bne	da58 <HubCheckConnection+0x204>
    da28:	e1a00004 	mov	r0, r4
    da2c:	ebfffe00 	bl	d234 <HubPowerOn>
    da30:	e5d60002 	ldrb	r0, [r6, #2]
    da34:	eaffffa8 	b	d8dc <HubCheckConnection+0x88>
    da38:	e1a00004 	mov	r0, r4
    da3c:	ebfff7cb 	bl	b970 <UsbGetDescription>
    da40:	e3a0102f 	mov	r1, #47	; 0x2f
    da44:	e1a02000 	mov	r2, r0
    da48:	e2853001 	add	r3, r5, #1
    da4c:	e59f0034 	ldr	r0, [pc, #52]	; da88 <HubCheckConnection+0x234>
    da50:	ebfff4fd 	bl	ae4c <LogPrintF>
    da54:	eaffffae 	b	d914 <HubCheckConnection+0xc0>
    da58:	e1a00004 	mov	r0, r4
    da5c:	ebfff7c3 	bl	b970 <UsbGetDescription>
    da60:	e3a01035 	mov	r1, #53	; 0x35
    da64:	e1a02000 	mov	r2, r0
    da68:	e2853001 	add	r3, r5, #1
    da6c:	e59f0018 	ldr	r0, [pc, #24]	; da8c <HubCheckConnection+0x238>
    da70:	ebfff4f5 	bl	ae4c <LogPrintF>
    da74:	eaffffeb 	b	da28 <HubCheckConnection+0x1d4>
    da78:	00013584 	.word	0x00013584
    da7c:	000135ec 	.word	0x000135ec
    da80:	000136bc 	.word	0x000136bc
    da84:	00013650 	.word	0x00013650
    da88:	000135bc 	.word	0x000135bc
    da8c:	00013684 	.word	0x00013684

0000da90 <HubCheckForChange>:
    da90:	e92d4070 	push	{r4, r5, r6, lr}
    da94:	e5904414 	ldr	r4, [r0, #1044]	; 0x414
    da98:	e5d42011 	ldrb	r2, [r4, #17]
    da9c:	e5d43010 	ldrb	r3, [r4, #16]
    daa0:	e5d41012 	ldrb	r1, [r4, #18]
    daa4:	e1833402 	orr	r3, r3, r2, lsl #8
    daa8:	e5d42013 	ldrb	r2, [r4, #19]
    daac:	e1833801 	orr	r3, r3, r1, lsl #16
    dab0:	e1932c02 	orrs	r2, r3, r2, lsl #24
    dab4:	e1a06000 	mov	r6, r0
    dab8:	0a00001e 	beq	db38 <HubCheckForChange+0xa8>
    dabc:	e3a05000 	mov	r5, #0
    dac0:	e20510ff 	and	r1, r5, #255	; 0xff
    dac4:	e1a00006 	mov	r0, r6
    dac8:	ebffff61 	bl	d854 <HubCheckConnection>
    dacc:	e285300e 	add	r3, r5, #14
    dad0:	e3500000 	cmp	r0, #0
    dad4:	e0843103 	add	r3, r4, r3, lsl #2
    dad8:	e2855001 	add	r5, r5, #1
    dadc:	1a00000c 	bne	db14 <HubCheckForChange+0x84>
    dae0:	e5d30005 	ldrb	r0, [r3, #5]
    dae4:	e5d32004 	ldrb	r2, [r3, #4]
    dae8:	e5d31006 	ldrb	r1, [r3, #6]
    daec:	e1822400 	orr	r2, r2, r0, lsl #8
    daf0:	e5d30007 	ldrb	r0, [r3, #7]
    daf4:	e1823801 	orr	r3, r2, r1, lsl #16
    daf8:	e1933c00 	orrs	r3, r3, r0, lsl #24
    dafc:	e1a00003 	mov	r0, r3
    db00:	0a000003 	beq	db14 <HubCheckForChange+0x84>
    db04:	e5933014 	ldr	r3, [r3, #20]
    db08:	e3530000 	cmp	r3, #0
    db0c:	11a0e00f 	movne	lr, pc
    db10:	112fff13 	bxne	r3
    db14:	e5d42011 	ldrb	r2, [r4, #17]
    db18:	e5d43010 	ldrb	r3, [r4, #16]
    db1c:	e5d41012 	ldrb	r1, [r4, #18]
    db20:	e1833402 	orr	r3, r3, r2, lsl #8
    db24:	e5d42013 	ldrb	r2, [r4, #19]
    db28:	e1833801 	orr	r3, r3, r1, lsl #16
    db2c:	e1833c02 	orr	r3, r3, r2, lsl #24
    db30:	e1530005 	cmp	r3, r5
    db34:	8affffe1 	bhi	dac0 <HubCheckForChange+0x30>
    db38:	e8bd4070 	pop	{r4, r5, r6, lr}
    db3c:	e12fff1e 	bx	lr

0000db40 <HubCheckConnectionDevice>:
    db40:	e591240c 	ldr	r2, [r1, #1036]	; 0x40c
    db44:	e1520000 	cmp	r2, r0
    db48:	e92d4070 	push	{r4, r5, r6, lr}
    db4c:	e5904414 	ldr	r4, [r0, #1044]	; 0x414
    db50:	1a000029 	bne	dbfc <HubCheckConnectionDevice+0xbc>
    db54:	e5d4c011 	ldrb	ip, [r4, #17]
    db58:	e5d43010 	ldrb	r3, [r4, #16]
    db5c:	e5d42012 	ldrb	r2, [r4, #18]
    db60:	e183340c 	orr	r3, r3, ip, lsl #8
    db64:	e5d4c013 	ldrb	ip, [r4, #19]
    db68:	e1833802 	orr	r3, r3, r2, lsl #16
    db6c:	e5d12007 	ldrb	r2, [r1, #7]
    db70:	e1833c0c 	orr	r3, r3, ip, lsl #24
    db74:	e1520003 	cmp	r2, r3
    db78:	2a00001f 	bcs	dbfc <HubCheckConnectionDevice+0xbc>
    db7c:	e282300e 	add	r3, r2, #14
    db80:	e0843103 	add	r3, r4, r3, lsl #2
    db84:	e5d35004 	ldrb	r5, [r3, #4]
    db88:	e5d36005 	ldrb	r6, [r3, #5]
    db8c:	e5d3c006 	ldrb	ip, [r3, #6]
    db90:	e1855406 	orr	r5, r5, r6, lsl #8
    db94:	e5d33007 	ldrb	r3, [r3, #7]
    db98:	e185580c 	orr	r5, r5, ip, lsl #16
    db9c:	e1855c03 	orr	r5, r5, r3, lsl #24
    dba0:	e1550001 	cmp	r5, r1
    dba4:	1a000014 	bne	dbfc <HubCheckConnectionDevice+0xbc>
    dba8:	e1a01002 	mov	r1, r2
    dbac:	ebffff28 	bl	d854 <HubCheckConnection>
    dbb0:	e3500000 	cmp	r0, #0
    dbb4:	1a000011 	bne	dc00 <HubCheckConnectionDevice+0xc0>
    dbb8:	e5d53007 	ldrb	r3, [r5, #7]
    dbbc:	e283300e 	add	r3, r3, #14
    dbc0:	e0844103 	add	r4, r4, r3, lsl #2
    dbc4:	e5d43004 	ldrb	r3, [r4, #4]
    dbc8:	e5d40005 	ldrb	r0, [r4, #5]
    dbcc:	e5d42006 	ldrb	r2, [r4, #6]
    dbd0:	e1830400 	orr	r0, r3, r0, lsl #8
    dbd4:	e5d43007 	ldrb	r3, [r4, #7]
    dbd8:	e1800802 	orr	r0, r0, r2, lsl #16
    dbdc:	e1800c03 	orr	r0, r0, r3, lsl #24
    dbe0:	e1550000 	cmp	r5, r0
    dbe4:	13a000f7 	movne	r0, #247	; 0xf7
    dbe8:	03a00000 	moveq	r0, #0
    dbec:	e1a00c00 	lsl	r0, r0, #24
    dbf0:	e1a00c40 	asr	r0, r0, #24
    dbf4:	e8bd4070 	pop	{r4, r5, r6, lr}
    dbf8:	e12fff1e 	bx	lr
    dbfc:	e3a000fe 	mov	r0, #254	; 0xfe
    dc00:	e1a00c00 	lsl	r0, r0, #24
    dc04:	e1a00c40 	asr	r0, r0, #24
    dc08:	e8bd4070 	pop	{r4, r5, r6, lr}
    dc0c:	e12fff1e 	bx	lr

0000dc10 <HubAttach>:
    dc10:	e92d41f0 	push	{r4, r5, r6, r7, r8, lr}
    dc14:	e1a03181 	lsl	r3, r1, #3
    dc18:	e0832001 	add	r2, r3, r1
    dc1c:	e0802002 	add	r2, r0, r2
    dc20:	e1a06000 	mov	r6, r0
    dc24:	e5d20048 	ldrb	r0, [r2, #72]	; 0x48
    dc28:	e3500001 	cmp	r0, #1
    dc2c:	e2822040 	add	r2, r2, #64	; 0x40
    dc30:	1a000098 	bne	de98 <HubAttach+0x288>
    dc34:	e0613003 	rsb	r3, r1, r3
    dc38:	e0863203 	add	r3, r6, r3, lsl #4
    dc3c:	e2833088 	add	r3, r3, #136	; 0x88
    dc40:	e5d32006 	ldrb	r2, [r3, #6]
    dc44:	e1b023a2 	lsrs	r2, r2, #7
    dc48:	0a0000a2 	beq	ded8 <HubAttach+0x2c8>
    dc4c:	e5d33007 	ldrb	r3, [r3, #7]
    dc50:	e2033003 	and	r3, r3, #3
    dc54:	e3530003 	cmp	r3, #3
    dc58:	1a000089 	bne	de84 <HubAttach+0x274>
    dc5c:	e59fe2c8 	ldr	lr, [pc, #712]	; df2c <HubAttach+0x31c>
    dc60:	e59fc2c8 	ldr	ip, [pc, #712]	; df30 <HubAttach+0x320>
    dc64:	e59f02c8 	ldr	r0, [pc, #712]	; df34 <HubAttach+0x324>
    dc68:	e59f12c8 	ldr	r1, [pc, #712]	; df38 <HubAttach+0x328>
    dc6c:	e59f22c8 	ldr	r2, [pc, #712]	; df3c <HubAttach+0x32c>
    dc70:	e59f32c8 	ldr	r3, [pc, #712]	; df40 <HubAttach+0x330>
    dc74:	e5860014 	str	r0, [r6, #20]
    dc78:	e586e010 	str	lr, [r6, #16]
    dc7c:	e586c00c 	str	ip, [r6, #12]
    dc80:	e5861018 	str	r1, [r6, #24]
    dc84:	e586201c 	str	r2, [r6, #28]
    dc88:	e5863020 	str	r3, [r6, #32]
    dc8c:	e3a00064 	mov	r0, #100	; 0x64
    dc90:	ebfff315 	bl	a8ec <MemoryAllocate>
    dc94:	e3500000 	cmp	r0, #0
    dc98:	e1a05000 	mov	r5, r0
    dc9c:	e5860414 	str	r0, [r6, #1044]	; 0x414
    dca0:	0a00009c 	beq	df18 <HubAttach+0x308>
    dca4:	e3a02064 	mov	r2, #100	; 0x64
    dca8:	e5903004 	ldr	r3, [r0, #4]
    dcac:	e59f3290 	ldr	r3, [pc, #656]	; df44 <HubAttach+0x334>
    dcb0:	e5802004 	str	r2, [r0, #4]
    dcb4:	e3a04000 	mov	r4, #0
    dcb8:	e5902000 	ldr	r2, [r0]
    dcbc:	e5803000 	str	r3, [r0]
    dcc0:	e1a03004 	mov	r3, r4
    dcc4:	e284200e 	add	r2, r4, #14
    dcc8:	e2844001 	add	r4, r4, #1
    dccc:	e0852102 	add	r2, r5, r2, lsl #2
    dcd0:	e354000a 	cmp	r4, #10
    dcd4:	e5c23004 	strb	r3, [r2, #4]
    dcd8:	e5c23005 	strb	r3, [r2, #5]
    dcdc:	e5c23006 	strb	r3, [r2, #6]
    dce0:	e5c23007 	strb	r3, [r2, #7]
    dce4:	1afffff6 	bne	dcc4 <HubAttach+0xb4>
    dce8:	e1a00006 	mov	r0, r6
    dcec:	ebfffc22 	bl	cd7c <HubReadDescriptor>
    dcf0:	e2507000 	subs	r7, r0, #0
    dcf4:	11a00007 	movne	r0, r7
    dcf8:	1a00003a 	bne	dde8 <HubAttach+0x1d8>
    dcfc:	e5d5300c 	ldrb	r3, [r5, #12]
    dd00:	e5d5100d 	ldrb	r1, [r5, #13]
    dd04:	e5d5200e 	ldrb	r2, [r5, #14]
    dd08:	e1833401 	orr	r3, r3, r1, lsl #8
    dd0c:	e5d5800f 	ldrb	r8, [r5, #15]
    dd10:	e1833802 	orr	r3, r3, r2, lsl #16
    dd14:	e1838c08 	orr	r8, r3, r8, lsl #24
    dd18:	e5d83002 	ldrb	r3, [r8, #2]
    dd1c:	e353000a 	cmp	r3, #10
    dd20:	8a000034 	bhi	ddf8 <HubAttach+0x1e8>
    dd24:	e3a01000 	mov	r1, #0
    dd28:	e1a00c23 	lsr	r0, r3, #24
    dd2c:	e5c53010 	strb	r3, [r5, #16]
    dd30:	e5c50013 	strb	r0, [r5, #19]
    dd34:	e5c51011 	strb	r1, [r5, #17]
    dd38:	e5c51012 	strb	r1, [r5, #18]
    dd3c:	e5d83003 	ldrb	r3, [r8, #3]
    dd40:	e2034003 	and	r4, r3, #3
    dd44:	e3540001 	cmp	r4, #1
    dd48:	8a000067 	bhi	deec <HubAttach+0x2dc>
    dd4c:	e1a031a3 	lsr	r3, r3, #3
    dd50:	e2034003 	and	r4, r3, #3
    dd54:	e3540001 	cmp	r4, #1
    dd58:	e1a00006 	mov	r0, r6
    dd5c:	8a000053 	bhi	deb0 <HubAttach+0x2a0>
    dd60:	ebfffc56 	bl	cec0 <HubGetStatus>
    dd64:	e2504000 	subs	r4, r0, #0
    dd68:	e1a00006 	mov	r0, r6
    dd6c:	1a00003a 	bne	de5c <HubAttach+0x24c>
    dd70:	ebfffd2f 	bl	d234 <HubPowerOn>
    dd74:	e2504000 	subs	r4, r0, #0
    dd78:	e1a00006 	mov	r0, r6
    dd7c:	1a000030 	bne	de44 <HubAttach+0x234>
    dd80:	ebfffc4e 	bl	cec0 <HubGetStatus>
    dd84:	e2504000 	subs	r4, r0, #0
    dd88:	1a000026 	bne	de28 <HubAttach+0x218>
    dd8c:	e5d52011 	ldrb	r2, [r5, #17]
    dd90:	e5d53010 	ldrb	r3, [r5, #16]
    dd94:	e5d51012 	ldrb	r1, [r5, #18]
    dd98:	e1833402 	orr	r3, r3, r2, lsl #8
    dd9c:	e5d52013 	ldrb	r2, [r5, #19]
    dda0:	e1833801 	orr	r3, r3, r1, lsl #16
    dda4:	e1932c02 	orrs	r2, r3, r2, lsl #24
    dda8:	0a00000d 	beq	dde4 <HubAttach+0x1d4>
    ddac:	e1a01004 	mov	r1, r4
    ddb0:	e1a00006 	mov	r0, r6
    ddb4:	ebfffea6 	bl	d854 <HubCheckConnection>
    ddb8:	e5d52011 	ldrb	r2, [r5, #17]
    ddbc:	e5d53010 	ldrb	r3, [r5, #16]
    ddc0:	e5d51012 	ldrb	r1, [r5, #18]
    ddc4:	e1833402 	orr	r3, r3, r2, lsl #8
    ddc8:	e5d52013 	ldrb	r2, [r5, #19]
    ddcc:	e2844001 	add	r4, r4, #1
    ddd0:	e1833801 	orr	r3, r3, r1, lsl #16
    ddd4:	e20440ff 	and	r4, r4, #255	; 0xff
    ddd8:	e1833c02 	orr	r3, r3, r2, lsl #24
    dddc:	e1540003 	cmp	r4, r3
    dde0:	3afffff1 	bcc	ddac <HubAttach+0x19c>
    dde4:	e3a00000 	mov	r0, #0
    dde8:	e1a00c00 	lsl	r0, r0, #24
    ddec:	e1a00c40 	asr	r0, r0, #24
    ddf0:	e8bd41f0 	pop	{r4, r5, r6, r7, r8, lr}
    ddf4:	e12fff1e 	bx	lr
    ddf8:	e1a00006 	mov	r0, r6
    ddfc:	ebfff6db 	bl	b970 <UsbGetDescription>
    de00:	e3a01087 	mov	r1, #135	; 0x87
    de04:	e1a02000 	mov	r2, r0
    de08:	e1a03004 	mov	r3, r4
    de0c:	e59f0134 	ldr	r0, [pc, #308]	; df48 <HubAttach+0x338>
    de10:	ebfff40d 	bl	ae4c <LogPrintF>
    de14:	e5c54010 	strb	r4, [r5, #16]
    de18:	e5c57011 	strb	r7, [r5, #17]
    de1c:	e5c57012 	strb	r7, [r5, #18]
    de20:	e5c57013 	strb	r7, [r5, #19]
    de24:	eaffffc4 	b	dd3c <HubAttach+0x12c>
    de28:	e1a00006 	mov	r0, r6
    de2c:	ebfff6cf 	bl	b970 <UsbGetDescription>
    de30:	e3a01027 	mov	r1, #39	; 0x27
    de34:	e1a02000 	mov	r2, r0
    de38:	e59f010c 	ldr	r0, [pc, #268]	; df4c <HubAttach+0x33c>
    de3c:	ebfff402 	bl	ae4c <LogPrintF>
    de40:	e1a00006 	mov	r0, r6
    de44:	ebfffb8c 	bl	cc7c <HubDeallocate>
    de48:	e1a00004 	mov	r0, r4
    de4c:	e1a00c00 	lsl	r0, r0, #24
    de50:	e1a00c40 	asr	r0, r0, #24
    de54:	e8bd41f0 	pop	{r4, r5, r6, r7, r8, lr}
    de58:	e12fff1e 	bx	lr
    de5c:	ebfff6c3 	bl	b970 <UsbGetDescription>
    de60:	e3a01027 	mov	r1, #39	; 0x27
    de64:	e1a02000 	mov	r2, r0
    de68:	e59f00dc 	ldr	r0, [pc, #220]	; df4c <HubAttach+0x33c>
    de6c:	ebfff3f6 	bl	ae4c <LogPrintF>
    de70:	e1a00004 	mov	r0, r4
    de74:	e1a00c00 	lsl	r0, r0, #24
    de78:	e1a00c40 	asr	r0, r0, #24
    de7c:	e8bd41f0 	pop	{r4, r5, r6, r7, r8, lr}
    de80:	e12fff1e 	bx	lr
    de84:	e59f00c4 	ldr	r0, [pc, #196]	; df50 <HubAttach+0x340>
    de88:	e3a01037 	mov	r1, #55	; 0x37
    de8c:	ebfff63c 	bl	b784 <LogPrint>
    de90:	e3a000fb 	mov	r0, #251	; 0xfb
    de94:	eaffffd3 	b	dde8 <HubAttach+0x1d8>
    de98:	e59f00b4 	ldr	r0, [pc, #180]	; df54 <HubAttach+0x344>
    de9c:	e5d22008 	ldrb	r2, [r2, #8]
    dea0:	e3a01038 	mov	r1, #56	; 0x38
    dea4:	ebfff3e8 	bl	ae4c <LogPrintF>
    dea8:	e3a000fb 	mov	r0, #251	; 0xfb
    deac:	eaffffcd 	b	dde8 <HubAttach+0x1d8>
    deb0:	ebfff6ae 	bl	b970 <UsbGetDescription>
    deb4:	e1a02004 	mov	r2, r4
    deb8:	e1a03000 	mov	r3, r0
    debc:	e3a01043 	mov	r1, #67	; 0x43
    dec0:	e59f0090 	ldr	r0, [pc, #144]	; df58 <HubAttach+0x348>
    dec4:	ebfff3e0 	bl	ae4c <LogPrintF>
    dec8:	e1a00006 	mov	r0, r6
    decc:	ebfffb6a 	bl	cc7c <HubDeallocate>
    ded0:	e3a000fb 	mov	r0, #251	; 0xfb
    ded4:	eaffffc3 	b	dde8 <HubAttach+0x1d8>
    ded8:	e59f007c 	ldr	r0, [pc, #124]	; df5c <HubAttach+0x34c>
    dedc:	e3a0103a 	mov	r1, #58	; 0x3a
    dee0:	ebfff627 	bl	b784 <LogPrint>
    dee4:	e3a000fb 	mov	r0, #251	; 0xfb
    dee8:	eaffffbe 	b	dde8 <HubAttach+0x1d8>
    deec:	e1a00006 	mov	r0, r6
    def0:	ebfff69e 	bl	b970 <UsbGetDescription>
    def4:	e1a02004 	mov	r2, r4
    def8:	e1a03000 	mov	r3, r0
    defc:	e3a0103c 	mov	r1, #60	; 0x3c
    df00:	e59f0058 	ldr	r0, [pc, #88]	; df60 <HubAttach+0x350>
    df04:	ebfff3d0 	bl	ae4c <LogPrintF>
    df08:	e1a00006 	mov	r0, r6
    df0c:	ebfffb5a 	bl	cc7c <HubDeallocate>
    df10:	e3a000fb 	mov	r0, #251	; 0xfb
    df14:	eaffffb3 	b	dde8 <HubAttach+0x1d8>
    df18:	e59f0044 	ldr	r0, [pc, #68]	; df64 <HubAttach+0x354>
    df1c:	e3a0102f 	mov	r1, #47	; 0x2f
    df20:	ebfff617 	bl	b784 <LogPrint>
    df24:	e3a000f9 	mov	r0, #249	; 0xf9
    df28:	eaffffae 	b	dde8 <HubAttach+0x1d8>
    df2c:	0000cc7c 	.word	0x0000cc7c
    df30:	0000cb68 	.word	0x0000cb68
    df34:	0000da90 	.word	0x0000da90
    df38:	0000cc08 	.word	0x0000cc08
    df3c:	0000d4a4 	.word	0x0000d4a4
    df40:	0000db40 	.word	0x0000db40
    df44:	48554230 	.word	0x48554230
    df48:	000137c8 	.word	0x000137c8
    df4c:	000138d0 	.word	0x000138d0
    df50:	00013760 	.word	0x00013760
    df54:	000136ec 	.word	0x000136ec
    df58:	0001388c 	.word	0x0001388c
    df5c:	00013724 	.word	0x00013724
    df60:	00013850 	.word	0x00013850
    df64:	00013798 	.word	0x00013798

0000df68 <HidEnumerateActionCountField>:
    df68:	e2411020 	sub	r1, r1, #32
    df6c:	e92d00f0 	push	{r4, r5, r6, r7}
    df70:	e351000c 	cmp	r1, #12
    df74:	979ff101 	ldrls	pc, [pc, r1, lsl #2]
    df78:	ea00002e 	b	e038 <HidEnumerateActionCountField+0xd0>
    df7c:	0000e040 	.word	0x0000e040
    df80:	0000e074 	.word	0x0000e074
    df84:	0000e038 	.word	0x0000e038
    df88:	0000e038 	.word	0x0000e038
    df8c:	0000e048 	.word	0x0000e048
    df90:	0000e050 	.word	0x0000e050
    df94:	0000e038 	.word	0x0000e038
    df98:	0000e038 	.word	0x0000e038
    df9c:	0000e038 	.word	0x0000e038
    dfa0:	0000e038 	.word	0x0000e038
    dfa4:	0000e038 	.word	0x0000e038
    dfa8:	0000e038 	.word	0x0000e038
    dfac:	0000dfb0 	.word	0x0000dfb0
    dfb0:	e3a07003 	mov	r7, #3
    dfb4:	e5d05004 	ldrb	r5, [r0, #4]
    dfb8:	e3550000 	cmp	r5, #0
    dfbc:	0a00002f 	beq	e080 <HidEnumerateActionCountField+0x118>
    dfc0:	e3a03000 	mov	r3, #0
    dfc4:	e5d06005 	ldrb	r6, [r0, #5]
    dfc8:	e1a01003 	mov	r1, r3
    dfcc:	ea000003 	b	dfe0 <HidEnumerateActionCountField+0x78>
    dfd0:	e2811001 	add	r1, r1, #1
    dfd4:	e1510005 	cmp	r1, r5
    dfd8:	e2833003 	add	r3, r3, #3
    dfdc:	2a000028 	bcs	e084 <HidEnumerateActionCountField+0x11c>
    dfe0:	e080c003 	add	ip, r0, r3
    dfe4:	e5dc4006 	ldrb	r4, [ip, #6]
    dfe8:	e1540006 	cmp	r4, r6
    dfec:	1afffff7 	bne	dfd0 <HidEnumerateActionCountField+0x68>
    dff0:	e5dcc008 	ldrb	ip, [ip, #8]
    dff4:	e15c0007 	cmp	ip, r7
    dff8:	1afffff4 	bne	dfd0 <HidEnumerateActionCountField+0x68>
    dffc:	e0811081 	add	r1, r1, r1, lsl #1
    e000:	e0803001 	add	r3, r0, r1
    e004:	e2833006 	add	r3, r3, #6
    e008:	e5d34001 	ldrb	r4, [r3, #1]
    e00c:	e3120002 	tst	r2, #2
    e010:	15d02000 	ldrbne	r2, [r0]
    e014:	15d01001 	ldrbne	r1, [r0, #1]
    e018:	15d0c002 	ldrbne	ip, [r0, #2]
    e01c:	11822401 	orrne	r2, r2, r1, lsl #8
    e020:	15d01003 	ldrbne	r1, [r0, #3]
    e024:	1182280c 	orrne	r2, r2, ip, lsl #16
    e028:	11822c01 	orrne	r2, r2, r1, lsl #24
    e02c:	10844002 	addne	r4, r4, r2
    e030:	02844001 	addeq	r4, r4, #1
    e034:	e5c34001 	strb	r4, [r3, #1]
    e038:	e8bd00f0 	pop	{r4, r5, r6, r7}
    e03c:	e12fff1e 	bx	lr
    e040:	e3a07001 	mov	r7, #1
    e044:	eaffffda 	b	dfb4 <HidEnumerateActionCountField+0x4c>
    e048:	e3a07002 	mov	r7, #2
    e04c:	eaffffd8 	b	dfb4 <HidEnumerateActionCountField+0x4c>
    e050:	e1a0c422 	lsr	ip, r2, #8
    e054:	e1a01822 	lsr	r1, r2, #16
    e058:	e1a03c22 	lsr	r3, r2, #24
    e05c:	e5c02000 	strb	r2, [r0]
    e060:	e5c0c001 	strb	ip, [r0, #1]
    e064:	e5c01002 	strb	r1, [r0, #2]
    e068:	e5c03003 	strb	r3, [r0, #3]
    e06c:	e8bd00f0 	pop	{r4, r5, r6, r7}
    e070:	e12fff1e 	bx	lr
    e074:	e5c02005 	strb	r2, [r0, #5]
    e078:	e8bd00f0 	pop	{r4, r5, r6, r7}
    e07c:	e12fff1e 	bx	lr
    e080:	e5d06005 	ldrb	r6, [r0, #5]
    e084:	e085c085 	add	ip, r5, r5, lsl #1
    e088:	e080c00c 	add	ip, r0, ip
    e08c:	e28c3006 	add	r3, ip, #6
    e090:	e3a01000 	mov	r1, #0
    e094:	e2855001 	add	r5, r5, #1
    e098:	e5c05004 	strb	r5, [r0, #4]
    e09c:	e1a04001 	mov	r4, r1
    e0a0:	e5cc6006 	strb	r6, [ip, #6]
    e0a4:	e5c37002 	strb	r7, [r3, #2]
    e0a8:	e5c31001 	strb	r1, [r3, #1]
    e0ac:	eaffffd6 	b	e00c <HidEnumerateActionCountField+0xa4>

0000e0b0 <HidDetached>:
    e0b0:	e92d4008 	push	{r3, lr}
    e0b4:	e5903414 	ldr	r3, [r0, #1044]	; 0x414
    e0b8:	e3530000 	cmp	r3, #0
    e0bc:	0a000008 	beq	e0e4 <HidDetached+0x34>
    e0c0:	e5d32014 	ldrb	r2, [r3, #20]
    e0c4:	e5d31015 	ldrb	r1, [r3, #21]
    e0c8:	e5d3c016 	ldrb	ip, [r3, #22]
    e0cc:	e1821401 	orr	r1, r2, r1, lsl #8
    e0d0:	e5d32017 	ldrb	r2, [r3, #23]
    e0d4:	e181380c 	orr	r3, r1, ip, lsl #16
    e0d8:	e1933c02 	orrs	r3, r3, r2, lsl #24
    e0dc:	11a0e00f 	movne	lr, pc
    e0e0:	112fff13 	bxne	r3
    e0e4:	e8bd4008 	pop	{r3, lr}
    e0e8:	e12fff1e 	bx	lr

0000e0ec <HidEnumerateActionAddField>:
    e0ec:	e2411001 	sub	r1, r1, #1
    e0f0:	e92d47f0 	push	{r4, r5, r6, r7, r8, r9, sl, lr}
    e0f4:	e1a04000 	mov	r4, r0
    e0f8:	e1a06002 	mov	r6, r2
    e0fc:	e351002f 	cmp	r1, #47	; 0x2f
    e100:	979ff101 	ldrls	pc, [pc, r1, lsl #2]
    e104:	ea000056 	b	e264 <HidEnumerateActionAddField+0x178>
    e108:	0000e79c 	.word	0x0000e79c
    e10c:	0000e26c 	.word	0x0000e26c
    e110:	0000e264 	.word	0x0000e264
    e114:	0000e264 	.word	0x0000e264
    e118:	0000e644 	.word	0x0000e644
    e11c:	0000e26c 	.word	0x0000e26c
    e120:	0000e264 	.word	0x0000e264
    e124:	0000e264 	.word	0x0000e264
    e128:	0000e670 	.word	0x0000e670
    e12c:	0000e690 	.word	0x0000e690
    e130:	0000e264 	.word	0x0000e264
    e134:	0000e264 	.word	0x0000e264
    e138:	0000e704 	.word	0x0000e704
    e13c:	0000e264 	.word	0x0000e264
    e140:	0000e264 	.word	0x0000e264
    e144:	0000e264 	.word	0x0000e264
    e148:	0000e724 	.word	0x0000e724
    e14c:	0000e264 	.word	0x0000e264
    e150:	0000e264 	.word	0x0000e264
    e154:	0000e264 	.word	0x0000e264
    e158:	0000e744 	.word	0x0000e744
    e15c:	0000e264 	.word	0x0000e264
    e160:	0000e264 	.word	0x0000e264
    e164:	0000e264 	.word	0x0000e264
    e168:	0000e764 	.word	0x0000e764
    e16c:	0000e264 	.word	0x0000e264
    e170:	0000e264 	.word	0x0000e264
    e174:	0000e264 	.word	0x0000e264
    e178:	0000e77c 	.word	0x0000e77c
    e17c:	0000e264 	.word	0x0000e264
    e180:	0000e264 	.word	0x0000e264
    e184:	0000e2f8 	.word	0x0000e2f8
    e188:	0000e76c 	.word	0x0000e76c
    e18c:	0000e264 	.word	0x0000e264
    e190:	0000e264 	.word	0x0000e264
    e194:	0000e774 	.word	0x0000e774
    e198:	0000e7ac 	.word	0x0000e7ac
    e19c:	0000e264 	.word	0x0000e264
    e1a0:	0000e264 	.word	0x0000e264
    e1a4:	0000e1c8 	.word	0x0000e1c8
    e1a8:	0000e264 	.word	0x0000e264
    e1ac:	0000e264 	.word	0x0000e264
    e1b0:	0000e264 	.word	0x0000e264
    e1b4:	0000e63c 	.word	0x0000e63c
    e1b8:	0000e264 	.word	0x0000e264
    e1bc:	0000e264 	.word	0x0000e264
    e1c0:	0000e264 	.word	0x0000e264
    e1c4:	0000e664 	.word	0x0000e664
    e1c8:	e5d0200d 	ldrb	r2, [r0, #13]
    e1cc:	e5d0300c 	ldrb	r3, [r0, #12]
    e1d0:	e5d0100e 	ldrb	r1, [r0, #14]
    e1d4:	e1833402 	orr	r3, r3, r2, lsl #8
    e1d8:	e5d0200f 	ldrb	r2, [r0, #15]
    e1dc:	e1833801 	orr	r3, r3, r1, lsl #16
    e1e0:	e1833c02 	orr	r3, r3, r2, lsl #24
    e1e4:	e5932000 	ldr	r2, [r3]
    e1e8:	e3720001 	cmn	r2, #1
    e1ec:	1a000007 	bne	e210 <HidEnumerateActionAddField+0x124>
    e1f0:	e2833004 	add	r3, r3, #4
    e1f4:	e1a00423 	lsr	r0, r3, #8
    e1f8:	e1a01823 	lsr	r1, r3, #16
    e1fc:	e1a02c23 	lsr	r2, r3, #24
    e200:	e5c4300c 	strb	r3, [r4, #12]
    e204:	e5c4000d 	strb	r0, [r4, #13]
    e208:	e5c4100e 	strb	r1, [r4, #14]
    e20c:	e5c4200f 	strb	r2, [r4, #15]
    e210:	e21660ff 	ands	r6, r6, #255	; 0xff
    e214:	0a0001a2 	beq	e8a4 <HidEnumerateActionAddField+0x7b8>
    e218:	e3560001 	cmp	r6, #1
    e21c:	1a000008 	bne	e244 <HidEnumerateActionAddField+0x158>
    e220:	e5d40001 	ldrb	r0, [r4, #1]
    e224:	e5d42000 	ldrb	r2, [r4]
    e228:	e5d41002 	ldrb	r1, [r4, #2]
    e22c:	e1822400 	orr	r2, r2, r0, lsl #8
    e230:	e5d40003 	ldrb	r0, [r4, #3]
    e234:	e1822801 	orr	r2, r2, r1, lsl #16
    e238:	e5931000 	ldr	r1, [r3]
    e23c:	e1822c00 	orr	r2, r2, r0, lsl #24
    e240:	e5821000 	str	r1, [r2]
    e244:	e2433004 	sub	r3, r3, #4
    e248:	e1a00423 	lsr	r0, r3, #8
    e24c:	e1a01823 	lsr	r1, r3, #16
    e250:	e1a02c23 	lsr	r2, r3, #24
    e254:	e5c4300c 	strb	r3, [r4, #12]
    e258:	e5c4000d 	strb	r0, [r4, #13]
    e25c:	e5c4100e 	strb	r1, [r4, #14]
    e260:	e5c4200f 	strb	r2, [r4, #15]
    e264:	e8bd47f0 	pop	{r4, r5, r6, r7, r8, r9, sl, lr}
    e268:	e12fff1e 	bx	lr
    e26c:	e5d0200d 	ldrb	r2, [r0, #13]
    e270:	e5d0300c 	ldrb	r3, [r0, #12]
    e274:	e5d0100e 	ldrb	r1, [r0, #14]
    e278:	e1833402 	orr	r3, r3, r2, lsl #8
    e27c:	e5d0200f 	ldrb	r2, [r0, #15]
    e280:	e1833801 	orr	r3, r3, r1, lsl #16
    e284:	e1832c02 	orr	r2, r3, r2, lsl #24
    e288:	e2823004 	add	r3, r2, #4
    e28c:	e1b01826 	lsrs	r1, r6, #16
    e290:	e1a0c423 	lsr	ip, r3, #8
    e294:	e1a00823 	lsr	r0, r3, #16
    e298:	e1a01c23 	lsr	r1, r3, #24
    e29c:	e5c4300c 	strb	r3, [r4, #12]
    e2a0:	e5c4c00d 	strb	ip, [r4, #13]
    e2a4:	e5c4000e 	strb	r0, [r4, #14]
    e2a8:	e5c4100f 	strb	r1, [r4, #15]
    e2ac:	1584600c 	strne	r6, [r4, #12]
    e2b0:	1affffeb 	bne	e264 <HidEnumerateActionAddField+0x178>
    e2b4:	e1a03426 	lsr	r3, r6, #8
    e2b8:	e5c26004 	strb	r6, [r2, #4]
    e2bc:	e5c23005 	strb	r3, [r2, #5]
    e2c0:	e5d4100d 	ldrb	r1, [r4, #13]
    e2c4:	e5d4300c 	ldrb	r3, [r4, #12]
    e2c8:	e5d4c00e 	ldrb	ip, [r4, #14]
    e2cc:	e5d4202c 	ldrb	r2, [r4, #44]	; 0x2c
    e2d0:	e5d4002d 	ldrb	r0, [r4, #45]	; 0x2d
    e2d4:	e1833401 	orr	r3, r3, r1, lsl #8
    e2d8:	e5d4100f 	ldrb	r1, [r4, #15]
    e2dc:	e1822400 	orr	r2, r2, r0, lsl #8
    e2e0:	e183380c 	orr	r3, r3, ip, lsl #16
    e2e4:	e1833c01 	orr	r3, r3, r1, lsl #24
    e2e8:	e1a01422 	lsr	r1, r2, #8
    e2ec:	e5c32002 	strb	r2, [r3, #2]
    e2f0:	e5c31003 	strb	r1, [r3, #3]
    e2f4:	eaffffda 	b	e264 <HidEnumerateActionAddField+0x178>
    e2f8:	e3a07001 	mov	r7, #1
    e2fc:	e5d41001 	ldrb	r1, [r4, #1]
    e300:	e5d43000 	ldrb	r3, [r4]
    e304:	e5d42002 	ldrb	r2, [r4, #2]
    e308:	e1833401 	orr	r3, r3, r1, lsl #8
    e30c:	e5d41003 	ldrb	r1, [r4, #3]
    e310:	e1833802 	orr	r3, r3, r2, lsl #16
    e314:	e1831c01 	orr	r1, r3, r1, lsl #24
    e318:	e5d10004 	ldrb	r0, [r1, #4]
    e31c:	e3500000 	cmp	r0, #0
    e320:	0a000162 	beq	e8b0 <HidEnumerateActionAddField+0x7c4>
    e324:	e5d4c02e 	ldrb	ip, [r4, #46]	; 0x2e
    e328:	e3a03000 	mov	r3, #0
    e32c:	ea000002 	b	e33c <HidEnumerateActionAddField+0x250>
    e330:	e1530000 	cmp	r3, r0
    e334:	e2811004 	add	r1, r1, #4
    e338:	2a000157 	bcs	e89c <HidEnumerateActionAddField+0x7b0>
    e33c:	e5915008 	ldr	r5, [r1, #8]
    e340:	e5d52002 	ldrb	r2, [r5, #2]
    e344:	e152000c 	cmp	r2, ip
    e348:	e2833001 	add	r3, r3, #1
    e34c:	1afffff7 	bne	e330 <HidEnumerateActionAddField+0x244>
    e350:	e5d52003 	ldrb	r2, [r5, #3]
    e354:	e1520007 	cmp	r2, r7
    e358:	1afffff4 	bne	e330 <HidEnumerateActionAddField+0x244>
    e35c:	e5d42005 	ldrb	r2, [r4, #5]
    e360:	e5d43004 	ldrb	r3, [r4, #4]
    e364:	e5d41006 	ldrb	r1, [r4, #6]
    e368:	e1833402 	orr	r3, r3, r2, lsl #8
    e36c:	e5d42007 	ldrb	r2, [r4, #7]
    e370:	e1833801 	orr	r3, r3, r1, lsl #16
    e374:	e1932c02 	orrs	r2, r3, r2, lsl #24
    e378:	159f7538 	ldrne	r7, [pc, #1336]	; e8b8 <HidEnumerateActionAddField+0x7cc>
    e37c:	13a08000 	movne	r8, #0
    e380:	1a000022 	bne	e410 <HidEnumerateActionAddField+0x324>
    e384:	ea000139 	b	e870 <HidEnumerateActionAddField+0x784>
    e388:	e5d42005 	ldrb	r2, [r4, #5]
    e38c:	e5d43004 	ldrb	r3, [r4, #4]
    e390:	e5d41006 	ldrb	r1, [r4, #6]
    e394:	e1833402 	orr	r3, r3, r2, lsl #8
    e398:	e5d42007 	ldrb	r2, [r4, #7]
    e39c:	e1833801 	orr	r3, r3, r1, lsl #16
    e3a0:	e1833c02 	orr	r3, r3, r2, lsl #24
    e3a4:	e2433001 	sub	r3, r3, #1
    e3a8:	e1a00423 	lsr	r0, r3, #8
    e3ac:	e1a01823 	lsr	r1, r3, #16
    e3b0:	e1a02c23 	lsr	r2, r3, #24
    e3b4:	e5c42007 	strb	r2, [r4, #7]
    e3b8:	e5c43004 	strb	r3, [r4, #4]
    e3bc:	e5c40005 	strb	r0, [r4, #5]
    e3c0:	e5c41006 	strb	r1, [r4, #6]
    e3c4:	e5d53001 	ldrb	r3, [r5, #1]
    e3c8:	e0832103 	add	r2, r3, r3, lsl #2
    e3cc:	e0832082 	add	r2, r3, r2, lsl #1
    e3d0:	e0852102 	add	r2, r5, r2, lsl #2
    e3d4:	e5d51004 	ldrb	r1, [r5, #4]
    e3d8:	e5d2000c 	ldrb	r0, [r2, #12]
    e3dc:	e0801001 	add	r1, r0, r1
    e3e0:	e5c51004 	strb	r1, [r5, #4]
    e3e4:	e5828034 	str	r8, [r2, #52]	; 0x34
    e3e8:	e2833001 	add	r3, r3, #1
    e3ec:	e5c53001 	strb	r3, [r5, #1]
    e3f0:	e5d42005 	ldrb	r2, [r4, #5]
    e3f4:	e5d43004 	ldrb	r3, [r4, #4]
    e3f8:	e5d41006 	ldrb	r1, [r4, #6]
    e3fc:	e1833402 	orr	r3, r3, r2, lsl #8
    e400:	e5d42007 	ldrb	r2, [r4, #7]
    e404:	e1833801 	orr	r3, r3, r1, lsl #16
    e408:	e1932c02 	orrs	r2, r3, r2, lsl #24
    e40c:	0a000117 	beq	e870 <HidEnumerateActionAddField+0x784>
    e410:	e5d4200d 	ldrb	r2, [r4, #13]
    e414:	e5d4300c 	ldrb	r3, [r4, #12]
    e418:	e5d4100e 	ldrb	r1, [r4, #14]
    e41c:	e1833402 	orr	r3, r3, r2, lsl #8
    e420:	e5d4200f 	ldrb	r2, [r4, #15]
    e424:	e1833801 	orr	r3, r3, r1, lsl #16
    e428:	e1833c02 	orr	r3, r3, r2, lsl #24
    e42c:	e5932000 	ldr	r2, [r3]
    e430:	e3720001 	cmn	r2, #1
    e434:	0a0000fb 	beq	e828 <HidEnumerateActionAddField+0x73c>
    e438:	e5d53001 	ldrb	r3, [r5, #1]
    e43c:	e0832103 	add	r2, r3, r3, lsl #2
    e440:	e0833082 	add	r3, r3, r2, lsl #1
    e444:	e0853103 	add	r3, r5, r3, lsl #2
    e448:	e5836010 	str	r6, [r3, #16]
    e44c:	e5d53001 	ldrb	r3, [r5, #1]
    e450:	e1a02103 	lsl	r2, r3, #2
    e454:	e0821003 	add	r1, r2, r3
    e458:	e0831081 	add	r1, r3, r1, lsl #1
    e45c:	e0851101 	add	r1, r5, r1, lsl #2
    e460:	e5d11010 	ldrb	r1, [r1, #16]
    e464:	e0822003 	add	r2, r2, r3
    e468:	e3110002 	tst	r1, #2
    e46c:	e0832082 	add	r2, r3, r2, lsl #1
    e470:	05d40004 	ldrbeq	r0, [r4, #4]
    e474:	e1a02102 	lsl	r2, r2, #2
    e478:	e0853002 	add	r3, r5, r2
    e47c:	13a00001 	movne	r0, #1
    e480:	e5c3000e 	strb	r0, [r3, #14]
    e484:	e5d4c019 	ldrb	ip, [r4, #25]
    e488:	e5d40018 	ldrb	r0, [r4, #24]
    e48c:	e5d4901a 	ldrb	r9, [r4, #26]
    e490:	e180040c 	orr	r0, r0, ip, lsl #8
    e494:	e5d4c01b 	ldrb	ip, [r4, #27]
    e498:	e1800809 	orr	r0, r0, r9, lsl #16
    e49c:	e1800c0c 	orr	r0, r0, ip, lsl #24
    e4a0:	e5830020 	str	r0, [r3, #32]
    e4a4:	e5d4c015 	ldrb	ip, [r4, #21]
    e4a8:	e5d40014 	ldrb	r0, [r4, #20]
    e4ac:	e5d49016 	ldrb	r9, [r4, #22]
    e4b0:	e180040c 	orr	r0, r0, ip, lsl #8
    e4b4:	e5d4c017 	ldrb	ip, [r4, #23]
    e4b8:	e1800809 	orr	r0, r0, r9, lsl #16
    e4bc:	e1800c0c 	orr	r0, r0, ip, lsl #24
    e4c0:	e583001c 	str	r0, [r3, #28]
    e4c4:	e5d50004 	ldrb	r0, [r5, #4]
    e4c8:	e5c3000d 	strb	r0, [r3, #13]
    e4cc:	e5d40021 	ldrb	r0, [r4, #33]	; 0x21
    e4d0:	e5d41020 	ldrb	r1, [r4, #32]
    e4d4:	e5d4c022 	ldrb	ip, [r4, #34]	; 0x22
    e4d8:	e1811400 	orr	r1, r1, r0, lsl #8
    e4dc:	e5d40023 	ldrb	r0, [r4, #35]	; 0x23
    e4e0:	e181180c 	orr	r1, r1, ip, lsl #16
    e4e4:	e1811c00 	orr	r1, r1, r0, lsl #24
    e4e8:	e5831028 	str	r1, [r3, #40]	; 0x28
    e4ec:	e5d4001d 	ldrb	r0, [r4, #29]
    e4f0:	e5d4101c 	ldrb	r1, [r4, #28]
    e4f4:	e5d4c01e 	ldrb	ip, [r4, #30]
    e4f8:	e1811400 	orr	r1, r1, r0, lsl #8
    e4fc:	e5d4001f 	ldrb	r0, [r4, #31]
    e500:	e181180c 	orr	r1, r1, ip, lsl #16
    e504:	e1811c00 	orr	r1, r1, r0, lsl #24
    e508:	e5831024 	str	r1, [r3, #36]	; 0x24
    e50c:	e5943010 	ldr	r3, [r4, #16]
    e510:	e0852002 	add	r2, r5, r2
    e514:	e5823018 	str	r3, [r2, #24]
    e518:	e5d53001 	ldrb	r3, [r5, #1]
    e51c:	e0832103 	add	r2, r3, r3, lsl #2
    e520:	e0833082 	add	r3, r3, r2, lsl #1
    e524:	e5d41008 	ldrb	r1, [r4, #8]
    e528:	e1a03103 	lsl	r3, r3, #2
    e52c:	e0852003 	add	r2, r5, r3
    e530:	e5c2100c 	strb	r1, [r2, #12]
    e534:	e5942024 	ldr	r2, [r4, #36]	; 0x24
    e538:	e0853003 	add	r3, r5, r3
    e53c:	e583202c 	str	r2, [r3, #44]	; 0x2c
    e540:	e5d53001 	ldrb	r3, [r5, #1]
    e544:	e5d40029 	ldrb	r0, [r4, #41]	; 0x29
    e548:	e5d42028 	ldrb	r2, [r4, #40]	; 0x28
    e54c:	e0831103 	add	r1, r3, r3, lsl #2
    e550:	e5d4c02a 	ldrb	ip, [r4, #42]	; 0x2a
    e554:	e0833081 	add	r3, r3, r1, lsl #1
    e558:	e1822400 	orr	r2, r2, r0, lsl #8
    e55c:	e5d4002b 	ldrb	r0, [r4, #43]	; 0x2b
    e560:	e1a01103 	lsl	r1, r3, #2
    e564:	e182280c 	orr	r2, r2, ip, lsl #16
    e568:	e1822c00 	orr	r2, r2, r0, lsl #24
    e56c:	e0853001 	add	r3, r5, r1
    e570:	e5832030 	str	r2, [r3, #48]	; 0x30
    e574:	e5d4200d 	ldrb	r2, [r4, #13]
    e578:	e5d4300c 	ldrb	r3, [r4, #12]
    e57c:	e5d4000e 	ldrb	r0, [r4, #14]
    e580:	e1833402 	orr	r3, r3, r2, lsl #8
    e584:	e5d4200f 	ldrb	r2, [r4, #15]
    e588:	e1833800 	orr	r3, r3, r0, lsl #16
    e58c:	e1833c02 	orr	r3, r3, r2, lsl #24
    e590:	e5d32002 	ldrb	r2, [r3, #2]
    e594:	e5d30003 	ldrb	r0, [r3, #3]
    e598:	e1822400 	orr	r2, r2, r0, lsl #8
    e59c:	e1520007 	cmp	r2, r7
    e5a0:	0a000089 	beq	e7cc <HidEnumerateActionAddField+0x6e0>
    e5a4:	e2432004 	sub	r2, r3, #4
    e5a8:	e5933000 	ldr	r3, [r3]
    e5ac:	e0851001 	add	r1, r5, r1
    e5b0:	e1a09422 	lsr	r9, r2, #8
    e5b4:	e1a0c822 	lsr	ip, r2, #16
    e5b8:	e1a00c22 	lsr	r0, r2, #24
    e5bc:	e5c4200c 	strb	r2, [r4, #12]
    e5c0:	e5c4900d 	strb	r9, [r4, #13]
    e5c4:	e5c4c00e 	strb	ip, [r4, #14]
    e5c8:	e5c4000f 	strb	r0, [r4, #15]
    e5cc:	e5813014 	str	r3, [r1, #20]
    e5d0:	e5d53001 	ldrb	r3, [r5, #1]
    e5d4:	e0832103 	add	r2, r3, r3, lsl #2
    e5d8:	e0833082 	add	r3, r3, r2, lsl #1
    e5dc:	e0853103 	add	r3, r5, r3, lsl #2
    e5e0:	e5d33010 	ldrb	r3, [r3, #16]
    e5e4:	e1a030a3 	lsr	r3, r3, #1
    e5e8:	e2133001 	ands	r3, r3, #1
    e5ec:	1affff65 	bne	e388 <HidEnumerateActionAddField+0x29c>
    e5f0:	e5c43004 	strb	r3, [r4, #4]
    e5f4:	e5c43005 	strb	r3, [r4, #5]
    e5f8:	e5c43006 	strb	r3, [r4, #6]
    e5fc:	e5c43007 	strb	r3, [r4, #7]
    e600:	e5d53001 	ldrb	r3, [r5, #1]
    e604:	e0839103 	add	r9, r3, r3, lsl #2
    e608:	e0833089 	add	r3, r3, r9, lsl #1
    e60c:	e0859103 	add	r9, r5, r3, lsl #2
    e610:	e5d9300e 	ldrb	r3, [r9, #14]
    e614:	e5d9000c 	ldrb	r0, [r9, #12]
    e618:	e0000093 	mul	r0, r3, r0
    e61c:	e5d53004 	ldrb	r3, [r5, #4]
    e620:	e0803003 	add	r3, r0, r3
    e624:	e5c53004 	strb	r3, [r5, #4]
    e628:	e1a001a0 	lsr	r0, r0, #3
    e62c:	ebfff0ae 	bl	a8ec <MemoryAllocate>
    e630:	e5890034 	str	r0, [r9, #52]	; 0x34
    e634:	e5d53001 	ldrb	r3, [r5, #1]
    e638:	eaffff6a 	b	e3e8 <HidEnumerateActionAddField+0x2fc>
    e63c:	e3a07003 	mov	r7, #3
    e640:	eaffff2d 	b	e2fc <HidEnumerateActionAddField+0x210>
    e644:	e1a01422 	lsr	r1, r2, #8
    e648:	e1a03c26 	lsr	r3, r6, #24
    e64c:	e1a02822 	lsr	r2, r2, #16
    e650:	e5c06014 	strb	r6, [r0, #20]
    e654:	e5c01015 	strb	r1, [r0, #21]
    e658:	e5c02016 	strb	r2, [r0, #22]
    e65c:	e5c03017 	strb	r3, [r0, #23]
    e660:	eafffeff 	b	e264 <HidEnumerateActionAddField+0x178>
    e664:	e21260ff 	ands	r6, r2, #255	; 0xff
    e668:	05806010 	streq	r6, [r0, #16]
    e66c:	eafffefc 	b	e264 <HidEnumerateActionAddField+0x178>
    e670:	e1a01422 	lsr	r1, r2, #8
    e674:	e1a03c26 	lsr	r3, r6, #24
    e678:	e1a02822 	lsr	r2, r2, #16
    e67c:	e5c06018 	strb	r6, [r0, #24]
    e680:	e5c01019 	strb	r1, [r0, #25]
    e684:	e5c0201a 	strb	r2, [r0, #26]
    e688:	e5c0301b 	strb	r3, [r0, #27]
    e68c:	eafffef4 	b	e264 <HidEnumerateActionAddField+0x178>
    e690:	e5d0200d 	ldrb	r2, [r0, #13]
    e694:	e5d0300c 	ldrb	r3, [r0, #12]
    e698:	e5d0100e 	ldrb	r1, [r0, #14]
    e69c:	e1833402 	orr	r3, r3, r2, lsl #8
    e6a0:	e5d0200f 	ldrb	r2, [r0, #15]
    e6a4:	e1833801 	orr	r3, r3, r1, lsl #16
    e6a8:	e1832c02 	orr	r2, r3, r2, lsl #24
    e6ac:	e2823004 	add	r3, r2, #4
    e6b0:	e1a05423 	lsr	r5, r3, #8
    e6b4:	e1a0c823 	lsr	ip, r3, #16
    e6b8:	e1a00c23 	lsr	r0, r3, #24
    e6bc:	e1a01426 	lsr	r1, r6, #8
    e6c0:	e5c4300c 	strb	r3, [r4, #12]
    e6c4:	e5c4500d 	strb	r5, [r4, #13]
    e6c8:	e5c4c00e 	strb	ip, [r4, #14]
    e6cc:	e5c4000f 	strb	r0, [r4, #15]
    e6d0:	e5c26004 	strb	r6, [r2, #4]
    e6d4:	e5c21005 	strb	r1, [r2, #5]
    e6d8:	e5d4200d 	ldrb	r2, [r4, #13]
    e6dc:	e5d4300c 	ldrb	r3, [r4, #12]
    e6e0:	e5d4100e 	ldrb	r1, [r4, #14]
    e6e4:	e1833402 	orr	r3, r3, r2, lsl #8
    e6e8:	e5d4200f 	ldrb	r2, [r4, #15]
    e6ec:	e1833801 	orr	r3, r3, r1, lsl #16
    e6f0:	e1833c02 	orr	r3, r3, r2, lsl #24
    e6f4:	e3e02000 	mvn	r2, #0
    e6f8:	e5c32002 	strb	r2, [r3, #2]
    e6fc:	e5c32003 	strb	r2, [r3, #3]
    e700:	eafffed7 	b	e264 <HidEnumerateActionAddField+0x178>
    e704:	e1a01422 	lsr	r1, r2, #8
    e708:	e1a03c26 	lsr	r3, r6, #24
    e70c:	e1a02822 	lsr	r2, r2, #16
    e710:	e5c0601c 	strb	r6, [r0, #28]
    e714:	e5c0101d 	strb	r1, [r0, #29]
    e718:	e5c0201e 	strb	r2, [r0, #30]
    e71c:	e5c0301f 	strb	r3, [r0, #31]
    e720:	eafffecf 	b	e264 <HidEnumerateActionAddField+0x178>
    e724:	e1a01422 	lsr	r1, r2, #8
    e728:	e1a03c26 	lsr	r3, r6, #24
    e72c:	e1a02822 	lsr	r2, r2, #16
    e730:	e5c06020 	strb	r6, [r0, #32]
    e734:	e5c01021 	strb	r1, [r0, #33]	; 0x21
    e738:	e5c02022 	strb	r2, [r0, #34]	; 0x22
    e73c:	e5c03023 	strb	r3, [r0, #35]	; 0x23
    e740:	eafffec7 	b	e264 <HidEnumerateActionAddField+0x178>
    e744:	e1a01422 	lsr	r1, r2, #8
    e748:	e1a03c26 	lsr	r3, r6, #24
    e74c:	e1a02822 	lsr	r2, r2, #16
    e750:	e5c06028 	strb	r6, [r0, #40]	; 0x28
    e754:	e5c01029 	strb	r1, [r0, #41]	; 0x29
    e758:	e5c0202a 	strb	r2, [r0, #42]	; 0x2a
    e75c:	e5c0302b 	strb	r3, [r0, #43]	; 0x2b
    e760:	eafffebf 	b	e264 <HidEnumerateActionAddField+0x178>
    e764:	e5842024 	str	r2, [r4, #36]	; 0x24
    e768:	eafffebd 	b	e264 <HidEnumerateActionAddField+0x178>
    e76c:	e5c4202e 	strb	r2, [r4, #46]	; 0x2e
    e770:	eafffebb 	b	e264 <HidEnumerateActionAddField+0x178>
    e774:	e3a07002 	mov	r7, #2
    e778:	eafffedf 	b	e2fc <HidEnumerateActionAddField+0x210>
    e77c:	e1a01422 	lsr	r1, r2, #8
    e780:	e1a03c26 	lsr	r3, r6, #24
    e784:	e1a02822 	lsr	r2, r2, #16
    e788:	e5c06008 	strb	r6, [r0, #8]
    e78c:	e5c01009 	strb	r1, [r0, #9]
    e790:	e5c0200a 	strb	r2, [r0, #10]
    e794:	e5c0300b 	strb	r3, [r0, #11]
    e798:	eafffeb1 	b	e264 <HidEnumerateActionAddField+0x178>
    e79c:	e1a03422 	lsr	r3, r2, #8
    e7a0:	e5c4202c 	strb	r2, [r4, #44]	; 0x2c
    e7a4:	e5c0302d 	strb	r3, [r0, #45]	; 0x2d
    e7a8:	eafffead 	b	e264 <HidEnumerateActionAddField+0x178>
    e7ac:	e1a01422 	lsr	r1, r2, #8
    e7b0:	e1a03c26 	lsr	r3, r6, #24
    e7b4:	e1a02822 	lsr	r2, r2, #16
    e7b8:	e5c06004 	strb	r6, [r0, #4]
    e7bc:	e5c01005 	strb	r1, [r0, #5]
    e7c0:	e5c02006 	strb	r2, [r0, #6]
    e7c4:	e5c03007 	strb	r3, [r0, #7]
    e7c8:	eafffea5 	b	e264 <HidEnumerateActionAddField+0x178>
    e7cc:	e5530004 	ldrb	r0, [r3, #-4]
    e7d0:	e553a003 	ldrb	sl, [r3, #-3]
    e7d4:	e5d3c000 	ldrb	ip, [r3]
    e7d8:	e5d39001 	ldrb	r9, [r3, #1]
    e7dc:	e5132004 	ldr	r2, [r3, #-4]
    e7e0:	e180040a 	orr	r0, r0, sl, lsl #8
    e7e4:	e18cc409 	orr	ip, ip, r9, lsl #8
    e7e8:	e0851001 	add	r1, r5, r1
    e7ec:	e15c0000 	cmp	ip, r0
    e7f0:	e5812014 	str	r2, [r1, #20]
    e7f4:	0a000014 	beq	e84c <HidEnumerateActionAddField+0x760>
    e7f8:	e5d52001 	ldrb	r2, [r5, #1]
    e7fc:	e0821102 	add	r1, r2, r2, lsl #2
    e800:	e0822081 	add	r2, r2, r1, lsl #1
    e804:	e0852102 	add	r2, r5, r2, lsl #2
    e808:	e5d22010 	ldrb	r2, [r2, #16]
    e80c:	e3120002 	tst	r2, #2
    e810:	0a00000d 	beq	e84c <HidEnumerateActionAddField+0x760>
    e814:	e2800001 	add	r0, r0, #1
    e818:	e1a02420 	lsr	r2, r0, #8
    e81c:	e5430004 	strb	r0, [r3, #-4]
    e820:	e5432003 	strb	r2, [r3, #-3]
    e824:	eaffff69 	b	e5d0 <HidEnumerateActionAddField+0x4e4>
    e828:	e2833004 	add	r3, r3, #4
    e82c:	e1a00423 	lsr	r0, r3, #8
    e830:	e1a01823 	lsr	r1, r3, #16
    e834:	e1a02c23 	lsr	r2, r3, #24
    e838:	e5c4300c 	strb	r3, [r4, #12]
    e83c:	e5c4000d 	strb	r0, [r4, #13]
    e840:	e5c4100e 	strb	r1, [r4, #14]
    e844:	e5c4200f 	strb	r2, [r4, #15]
    e848:	eafffefa 	b	e438 <HidEnumerateActionAddField+0x34c>
    e84c:	e2433008 	sub	r3, r3, #8
    e850:	e1a00423 	lsr	r0, r3, #8
    e854:	e1a01823 	lsr	r1, r3, #16
    e858:	e1a02c23 	lsr	r2, r3, #24
    e85c:	e5c4300c 	strb	r3, [r4, #12]
    e860:	e5c4000d 	strb	r0, [r4, #13]
    e864:	e5c4100e 	strb	r1, [r4, #14]
    e868:	e5c4200f 	strb	r2, [r4, #15]
    e86c:	eaffff57 	b	e5d0 <HidEnumerateActionAddField+0x4e4>
    e870:	e5d4200d 	ldrb	r2, [r4, #13]
    e874:	e5d4300c 	ldrb	r3, [r4, #12]
    e878:	e5d4100e 	ldrb	r1, [r4, #14]
    e87c:	e1833402 	orr	r3, r3, r2, lsl #8
    e880:	e5d4200f 	ldrb	r2, [r4, #15]
    e884:	e1833801 	orr	r3, r3, r1, lsl #16
    e888:	e1833c02 	orr	r3, r3, r2, lsl #24
    e88c:	e3a02000 	mov	r2, #0
    e890:	e5832004 	str	r2, [r3, #4]
    e894:	e8bd47f0 	pop	{r4, r5, r6, r7, r8, r9, sl, lr}
    e898:	e12fff1e 	bx	lr
    e89c:	e3a05000 	mov	r5, #0
    e8a0:	eafffead 	b	e35c <HidEnumerateActionAddField+0x270>
    e8a4:	e5932000 	ldr	r2, [r3]
    e8a8:	e5842010 	str	r2, [r4, #16]
    e8ac:	eafffe64 	b	e244 <HidEnumerateActionAddField+0x158>
    e8b0:	e1a05000 	mov	r5, r0
    e8b4:	eafffea8 	b	e35c <HidEnumerateActionAddField+0x270>
    e8b8:	0000ffff 	.word	0x0000ffff

0000e8bc <HidDeallocate>:
    e8bc:	e92d47f0 	push	{r4, r5, r6, r7, r8, r9, sl, lr}
    e8c0:	e5906414 	ldr	r6, [r0, #1044]	; 0x414
    e8c4:	e3560000 	cmp	r6, #0
    e8c8:	e1a09000 	mov	r9, r0
    e8cc:	0a00004a 	beq	e9fc <HidDeallocate+0x140>
    e8d0:	e5d62019 	ldrb	r2, [r6, #25]
    e8d4:	e5d63018 	ldrb	r3, [r6, #24]
    e8d8:	e5d6101a 	ldrb	r1, [r6, #26]
    e8dc:	e1833402 	orr	r3, r3, r2, lsl #8
    e8e0:	e5d6201b 	ldrb	r2, [r6, #27]
    e8e4:	e1833801 	orr	r3, r3, r1, lsl #16
    e8e8:	e1933c02 	orrs	r3, r3, r2, lsl #24
    e8ec:	11a0e00f 	movne	lr, pc
    e8f0:	112fff13 	bxne	r3
    e8f4:	e5d6200c 	ldrb	r2, [r6, #12]
    e8f8:	e5d6100d 	ldrb	r1, [r6, #13]
    e8fc:	e5d6c00e 	ldrb	ip, [r6, #14]
    e900:	e1820401 	orr	r0, r2, r1, lsl #8
    e904:	e5d6300f 	ldrb	r3, [r6, #15]
    e908:	e180080c 	orr	r0, r0, ip, lsl #16
    e90c:	e1900c03 	orrs	r0, r0, r3, lsl #24
    e910:	0a000037 	beq	e9f4 <HidDeallocate+0x138>
    e914:	e5d0e004 	ldrb	lr, [r0, #4]
    e918:	e35e0000 	cmp	lr, #0
    e91c:	0a000033 	beq	e9f0 <HidDeallocate+0x134>
    e920:	e3a07000 	mov	r7, #0
    e924:	e2878002 	add	r8, r7, #2
    e928:	e790a108 	ldr	sl, [r0, r8, lsl #2]
    e92c:	e35a0000 	cmp	sl, #0
    e930:	0a000027 	beq	e9d4 <HidDeallocate+0x118>
    e934:	e5da3008 	ldrb	r3, [sl, #8]
    e938:	e59a0004 	ldr	r0, [sl, #4]
    e93c:	e1a03c03 	lsl	r3, r3, #24
    e940:	e1930420 	orrs	r0, r3, r0, lsr #8
    e944:	1bfff0e6 	blne	ace4 <MemoryDeallocate>
    e948:	e5da2001 	ldrb	r2, [sl, #1]
    e94c:	e3520000 	cmp	r2, #0
    e950:	11a0500a 	movne	r5, sl
    e954:	13a04000 	movne	r4, #0
    e958:	1a000003 	bne	e96c <HidDeallocate+0xb0>
    e95c:	ea00000f 	b	e9a0 <HidDeallocate+0xe4>
    e960:	e1520004 	cmp	r2, r4
    e964:	e285502c 	add	r5, r5, #44	; 0x2c
    e968:	9a00000c 	bls	e9a0 <HidDeallocate+0xe4>
    e96c:	e0843104 	add	r3, r4, r4, lsl #2
    e970:	e0843083 	add	r3, r4, r3, lsl #1
    e974:	e08a3103 	add	r3, sl, r3, lsl #2
    e978:	e5d33010 	ldrb	r3, [r3, #16]
    e97c:	e3130002 	tst	r3, #2
    e980:	e2844001 	add	r4, r4, #1
    e984:	1afffff5 	bne	e960 <HidDeallocate+0xa4>
    e988:	e5950034 	ldr	r0, [r5, #52]	; 0x34
    e98c:	ebfff0d4 	bl	ace4 <MemoryDeallocate>
    e990:	e5da2001 	ldrb	r2, [sl, #1]
    e994:	e1520004 	cmp	r2, r4
    e998:	e285502c 	add	r5, r5, #44	; 0x2c
    e99c:	8afffff2 	bhi	e96c <HidDeallocate+0xb0>
    e9a0:	e5d6200d 	ldrb	r2, [r6, #13]
    e9a4:	e5d6300c 	ldrb	r3, [r6, #12]
    e9a8:	e5d6100e 	ldrb	r1, [r6, #14]
    e9ac:	e1833402 	orr	r3, r3, r2, lsl #8
    e9b0:	e5d6200f 	ldrb	r2, [r6, #15]
    e9b4:	e1833801 	orr	r3, r3, r1, lsl #16
    e9b8:	e1833c02 	orr	r3, r3, r2, lsl #24
    e9bc:	e7930108 	ldr	r0, [r3, r8, lsl #2]
    e9c0:	ebfff0c7 	bl	ace4 <MemoryDeallocate>
    e9c4:	e5d6200c 	ldrb	r2, [r6, #12]
    e9c8:	e5d6100d 	ldrb	r1, [r6, #13]
    e9cc:	e5d6c00e 	ldrb	ip, [r6, #14]
    e9d0:	e5d6300f 	ldrb	r3, [r6, #15]
    e9d4:	e1820401 	orr	r0, r2, r1, lsl #8
    e9d8:	e180080c 	orr	r0, r0, ip, lsl #16
    e9dc:	e1800c03 	orr	r0, r0, r3, lsl #24
    e9e0:	e5d0e004 	ldrb	lr, [r0, #4]
    e9e4:	e2877001 	add	r7, r7, #1
    e9e8:	e15e0007 	cmp	lr, r7
    e9ec:	8affffcc 	bhi	e924 <HidDeallocate+0x68>
    e9f0:	ebfff0bb 	bl	ace4 <MemoryDeallocate>
    e9f4:	e1a00006 	mov	r0, r6
    e9f8:	ebfff0b9 	bl	ace4 <MemoryDeallocate>
    e9fc:	e3a03000 	mov	r3, #0
    ea00:	e5893010 	str	r3, [r9, #16]
    ea04:	e589300c 	str	r3, [r9, #12]
    ea08:	e8bd47f0 	pop	{r4, r5, r6, r7, r8, r9, sl, lr}
    ea0c:	e12fff1e 	bx	lr

0000ea10 <HidEnumerateActionCountReport>:
    ea10:	e2411020 	sub	r1, r1, #32
    ea14:	e351000c 	cmp	r1, #12
    ea18:	979ff101 	ldrls	pc, [pc, r1, lsl #2]
    ea1c:	ea000010 	b	ea64 <HidEnumerateActionCountReport+0x54>
    ea20:	0000eaa8 	.word	0x0000eaa8
    ea24:	0000ea54 	.word	0x0000ea54
    ea28:	0000ea64 	.word	0x0000ea64
    ea2c:	0000ea64 	.word	0x0000ea64
    ea30:	0000ea88 	.word	0x0000ea88
    ea34:	0000ea64 	.word	0x0000ea64
    ea38:	0000ea64 	.word	0x0000ea64
    ea3c:	0000ea64 	.word	0x0000ea64
    ea40:	0000ea64 	.word	0x0000ea64
    ea44:	0000ea64 	.word	0x0000ea64
    ea48:	0000ea64 	.word	0x0000ea64
    ea4c:	0000ea64 	.word	0x0000ea64
    ea50:	0000ea68 	.word	0x0000ea68
    ea54:	e3a03000 	mov	r3, #0
    ea58:	e5c03004 	strb	r3, [r0, #4]
    ea5c:	e5c03003 	strb	r3, [r0, #3]
    ea60:	e5c03002 	strb	r3, [r0, #2]
    ea64:	e12fff1e 	bx	lr
    ea68:	e5d03004 	ldrb	r3, [r0, #4]
    ea6c:	e3530000 	cmp	r3, #0
    ea70:	05d02000 	ldrbeq	r2, [r0]
    ea74:	03a03001 	moveq	r3, #1
    ea78:	00822003 	addeq	r2, r2, r3
    ea7c:	05c02000 	strbeq	r2, [r0]
    ea80:	05c03004 	strbeq	r3, [r0, #4]
    ea84:	e12fff1e 	bx	lr
    ea88:	e5d03003 	ldrb	r3, [r0, #3]
    ea8c:	e3530000 	cmp	r3, #0
    ea90:	05d02000 	ldrbeq	r2, [r0]
    ea94:	03a03001 	moveq	r3, #1
    ea98:	00822003 	addeq	r2, r2, r3
    ea9c:	05c02000 	strbeq	r2, [r0]
    eaa0:	05c03003 	strbeq	r3, [r0, #3]
    eaa4:	e12fff1e 	bx	lr
    eaa8:	e5d03002 	ldrb	r3, [r0, #2]
    eaac:	e3530000 	cmp	r3, #0
    eab0:	05d02000 	ldrbeq	r2, [r0]
    eab4:	03a03001 	moveq	r3, #1
    eab8:	00822003 	addeq	r2, r2, r3
    eabc:	05c02000 	strbeq	r2, [r0]
    eac0:	05c03002 	strbeq	r3, [r0, #2]
    eac4:	e12fff1e 	bx	lr

0000eac8 <HidLoad>:
    eac8:	e59f3008 	ldr	r3, [pc, #8]	; ead8 <HidLoad+0x10>
    eacc:	e59f2008 	ldr	r2, [pc, #8]	; eadc <HidLoad+0x14>
    ead0:	e583200c 	str	r2, [r3, #12]
    ead4:	e12fff1e 	bx	lr
    ead8:	0001adc0 	.word	0x0001adc0
    eadc:	0000f7c8 	.word	0x0000f7c8

0000eae0 <HidGetReport>:
    eae0:	e92d40f0 	push	{r4, r5, r6, r7, lr}
    eae4:	e5d0e02b 	ldrb	lr, [r0, #43]	; 0x2b
    eae8:	e20ee0ff 	and	lr, lr, #255	; 0xff
    eaec:	e24dd01c 	sub	sp, sp, #28
    eaf0:	e3a04000 	mov	r4, #0
    eaf4:	e35e0008 	cmp	lr, #8
    eaf8:	e1a06002 	mov	r6, r2
    eafc:	e1a05003 	mov	r5, r3
    eb00:	e58d400c 	str	r4, [sp, #12]
    eb04:	e59dc030 	ldr	ip, [sp, #48]	; 0x30
    eb08:	e59d2034 	ldr	r2, [sp, #52]	; 0x34
    eb0c:	9a000005 	bls	eb28 <HidGetReport+0x48>
    eb10:	e35e0010 	cmp	lr, #16
    eb14:	93a04001 	movls	r4, #1
    eb18:	9a000002 	bls	eb28 <HidGetReport+0x48>
    eb1c:	e35e0020 	cmp	lr, #32
    eb20:	83a04003 	movhi	r4, #3
    eb24:	93a04002 	movls	r4, #2
    eb28:	e5dde00c 	ldrb	lr, [sp, #12]
    eb2c:	e5d03004 	ldrb	r3, [r0, #4]
    eb30:	e5dd700e 	ldrb	r7, [sp, #14]
    eb34:	e20ee0f0 	and	lr, lr, #240	; 0xf0
    eb38:	e18ee004 	orr	lr, lr, r4
    eb3c:	e2034003 	and	r4, r3, #3
    eb40:	e5d03000 	ldrb	r3, [r0]
    eb44:	e18e4104 	orr	r4, lr, r4, lsl #2
    eb48:	e3877004 	orr	r7, r7, #4
    eb4c:	e5cd400c 	strb	r4, [sp, #12]
    eb50:	e5cd300d 	strb	r3, [sp, #13]
    eb54:	e5cd700e 	strb	r7, [sp, #14]
    eb58:	e28d4010 	add	r4, sp, #16
    eb5c:	e3a0e00a 	mov	lr, #10
    eb60:	e88d4010 	stm	sp, {r4, lr}
    eb64:	e1866401 	orr	r6, r6, r1, lsl #8
    eb68:	e3a0e001 	mov	lr, #1
    eb6c:	e1a0300c 	mov	r3, ip
    eb70:	e59d100c 	ldr	r1, [sp, #12]
    eb74:	e3e0405e 	mvn	r4, #94	; 0x5e
    eb78:	e1cd61b2 	strh	r6, [sp, #18]
    eb7c:	e1cd51b4 	strh	r5, [sp, #20]
    eb80:	e1cdc1b6 	strh	ip, [sp, #22]
    eb84:	e5cd4010 	strb	r4, [sp, #16]
    eb88:	e5cde011 	strb	lr, [sp, #17]
    eb8c:	ebfff342 	bl	b89c <UsbControlMessage>
    eb90:	e28dd01c 	add	sp, sp, #28
    eb94:	e8bd40f0 	pop	{r4, r5, r6, r7, lr}
    eb98:	e12fff1e 	bx	lr

0000eb9c <HidSetReport>:
    eb9c:	e92d4070 	push	{r4, r5, r6, lr}
    eba0:	e5d0e02b 	ldrb	lr, [r0, #43]	; 0x2b
    eba4:	e20ee0ff 	and	lr, lr, #255	; 0xff
    eba8:	e24dd018 	sub	sp, sp, #24
    ebac:	e3a04000 	mov	r4, #0
    ebb0:	e35e0008 	cmp	lr, #8
    ebb4:	e1a06002 	mov	r6, r2
    ebb8:	e1a05003 	mov	r5, r3
    ebbc:	e58d400c 	str	r4, [sp, #12]
    ebc0:	e59dc028 	ldr	ip, [sp, #40]	; 0x28
    ebc4:	e59d202c 	ldr	r2, [sp, #44]	; 0x2c
    ebc8:	9a000005 	bls	ebe4 <HidSetReport+0x48>
    ebcc:	e35e0010 	cmp	lr, #16
    ebd0:	93a04001 	movls	r4, #1
    ebd4:	9a000002 	bls	ebe4 <HidSetReport+0x48>
    ebd8:	e35e0020 	cmp	lr, #32
    ebdc:	83a04003 	movhi	r4, #3
    ebe0:	93a04002 	movls	r4, #2
    ebe4:	e5dde00c 	ldrb	lr, [sp, #12]
    ebe8:	e5d03004 	ldrb	r3, [r0, #4]
    ebec:	e20ee0f0 	and	lr, lr, #240	; 0xf0
    ebf0:	e18ee004 	orr	lr, lr, r4
    ebf4:	e2034003 	and	r4, r3, #3
    ebf8:	e5d03000 	ldrb	r3, [r0]
    ebfc:	e18e4104 	orr	r4, lr, r4, lsl #2
    ec00:	e5cd400c 	strb	r4, [sp, #12]
    ec04:	e5cd300d 	strb	r3, [sp, #13]
    ec08:	e28d4010 	add	r4, sp, #16
    ec0c:	e3a0e00a 	mov	lr, #10
    ec10:	e88d4010 	stm	sp, {r4, lr}
    ec14:	e1866401 	orr	r6, r6, r1, lsl #8
    ec18:	e3a0e009 	mov	lr, #9
    ec1c:	e1a0300c 	mov	r3, ip
    ec20:	e59d100c 	ldr	r1, [sp, #12]
    ec24:	e3a04021 	mov	r4, #33	; 0x21
    ec28:	e1cd61b2 	strh	r6, [sp, #18]
    ec2c:	e1cd51b4 	strh	r5, [sp, #20]
    ec30:	e1cdc1b6 	strh	ip, [sp, #22]
    ec34:	e5cd4010 	strb	r4, [sp, #16]
    ec38:	e5cde011 	strb	lr, [sp, #17]
    ec3c:	ebfff316 	bl	b89c <UsbControlMessage>
    ec40:	e28dd018 	add	sp, sp, #24
    ec44:	e8bd4070 	pop	{r4, r5, r6, lr}
    ec48:	e12fff1e 	bx	lr

0000ec4c <BitSet>:
    ec4c:	e92d0ff0 	push	{r4, r5, r6, r7, r8, r9, sl, fp}
    ec50:	e0814002 	add	r4, r1, r2
    ec54:	e2845007 	add	r5, r4, #7
    ec58:	e1a051a5 	lsr	r5, r5, #3
    ec5c:	e1a0c1a1 	lsr	ip, r1, #3
    ec60:	e15c0005 	cmp	ip, r5
    ec64:	e24dd010 	sub	sp, sp, #16
    ec68:	2a000039 	bcs	ed54 <BitSet+0x108>
    ec6c:	e2011007 	and	r1, r1, #7
    ec70:	e0818002 	add	r8, r1, r2
    ec74:	e3a06001 	mov	r6, #1
    ec78:	e1a08816 	lsl	r8, r6, r8
    ec7c:	e1a06116 	lsl	r6, r6, r1
    ec80:	e1a09113 	lsl	r9, r3, r1
    ec84:	e20880ff 	and	r8, r8, #255	; 0xff
    ec88:	e20620ff 	and	r2, r6, #255	; 0xff
    ec8c:	e0626008 	rsb	r6, r2, r8
    ec90:	e2488001 	sub	r8, r8, #1
    ec94:	e2622000 	rsb	r2, r2, #0
    ec98:	e20220ff 	and	r2, r2, #255	; 0xff
    ec9c:	e20880ff 	and	r8, r8, #255	; 0xff
    eca0:	e20660ff 	and	r6, r6, #255	; 0xff
    eca4:	e1e0a002 	mvn	sl, r2
    eca8:	e1e0b008 	mvn	fp, r8
    ecac:	e1e07006 	mvn	r7, r6
    ecb0:	e20990ff 	and	r9, r9, #255	; 0xff
    ecb4:	e2611008 	rsb	r1, r1, #8
    ecb8:	e2444001 	sub	r4, r4, #1
    ecbc:	e20bb0ff 	and	fp, fp, #255	; 0xff
    ecc0:	e20aa0ff 	and	sl, sl, #255	; 0xff
    ecc4:	e0066009 	and	r6, r6, r9
    ecc8:	e58d1008 	str	r1, [sp, #8]
    eccc:	e0099002 	and	r9, r9, r2
    ecd0:	e1a041a4 	lsr	r4, r4, #3
    ecd4:	e20770ff 	and	r7, r7, #255	; 0xff
    ecd8:	e58db00c 	str	fp, [sp, #12]
    ecdc:	e58da004 	str	sl, [sp, #4]
    ece0:	e1a0200c 	mov	r2, ip
    ece4:	e3a01000 	mov	r1, #0
    ece8:	e58d8000 	str	r8, [sp]
    ecec:	ea00000f 	b	ed30 <BitSet+0xe4>
    ecf0:	e152000c 	cmp	r2, ip
    ecf4:	0a000019 	beq	ed60 <BitSet+0x114>
    ecf8:	e1540002 	cmp	r4, r2
    ecfc:	059d8000 	ldreq	r8, [sp]
    ed00:	0008b133 	andeq	fp, r8, r3, lsr r1
    ed04:	11a0a133 	lsrne	sl, r3, r1
    ed08:	07d0a004 	ldrbeq	sl, [r0, r4]
    ed0c:	059d800c 	ldreq	r8, [sp, #12]
    ed10:	000aa008 	andeq	sl, sl, r8
    ed14:	018ba00a 	orreq	sl, fp, sl
    ed18:	07c0a004 	strbeq	sl, [r0, r4]
    ed1c:	17c0a002 	strbne	sl, [r0, r2]
    ed20:	12811008 	addne	r1, r1, #8
    ed24:	e2822001 	add	r2, r2, #1
    ed28:	e1520005 	cmp	r2, r5
    ed2c:	0a000008 	beq	ed54 <BitSet+0x108>
    ed30:	e15c0004 	cmp	ip, r4
    ed34:	1affffed 	bne	ecf0 <BitSet+0xa4>
    ed38:	e7d0a002 	ldrb	sl, [r0, r2]
    ed3c:	e00aa007 	and	sl, sl, r7
    ed40:	e186a00a 	orr	sl, r6, sl
    ed44:	e7c0a002 	strb	sl, [r0, r2]
    ed48:	e2822001 	add	r2, r2, #1
    ed4c:	e1520005 	cmp	r2, r5
    ed50:	1afffff6 	bne	ed30 <BitSet+0xe4>
    ed54:	e28dd010 	add	sp, sp, #16
    ed58:	e8bd0ff0 	pop	{r4, r5, r6, r7, r8, r9, sl, fp}
    ed5c:	e12fff1e 	bx	lr
    ed60:	e7d0a002 	ldrb	sl, [r0, r2]
    ed64:	e59d8004 	ldr	r8, [sp, #4]
    ed68:	e59db008 	ldr	fp, [sp, #8]
    ed6c:	e008a00a 	and	sl, r8, sl
    ed70:	e189a00a 	orr	sl, r9, sl
    ed74:	e081100b 	add	r1, r1, fp
    ed78:	e7c0a002 	strb	sl, [r0, r2]
    ed7c:	eaffffe8 	b	ed24 <BitSet+0xd8>

0000ed80 <BitGetUnsigned>:
    ed80:	e92d0ff0 	push	{r4, r5, r6, r7, r8, r9, sl, fp}
    ed84:	e0815002 	add	r5, r1, r2
    ed88:	e2856007 	add	r6, r5, #7
    ed8c:	e1a061a6 	lsr	r6, r6, #3
    ed90:	e1a0c1a1 	lsr	ip, r1, #3
    ed94:	e15c0006 	cmp	ip, r6
    ed98:	e24dd008 	sub	sp, sp, #8
    ed9c:	e1a07000 	mov	r7, r0
    eda0:	2a000036 	bcs	ee80 <BitGetUnsigned+0x100>
    eda4:	e2011007 	and	r1, r1, #7
    eda8:	e3a0b001 	mov	fp, #1
    edac:	e0813002 	add	r3, r1, r2
    edb0:	e1a0331b 	lsl	r3, fp, r3
    edb4:	e1a0b11b 	lsl	fp, fp, r1
    edb8:	e20330ff 	and	r3, r3, #255	; 0xff
    edbc:	e20bb0ff 	and	fp, fp, #255	; 0xff
    edc0:	e06ba003 	rsb	sl, fp, r3
    edc4:	e2433001 	sub	r3, r3, #1
    edc8:	e20330ff 	and	r3, r3, #255	; 0xff
    edcc:	e2455001 	sub	r5, r5, #1
    edd0:	e26bb000 	rsb	fp, fp, #0
    edd4:	e3a04000 	mov	r4, #0
    edd8:	e58d3004 	str	r3, [sp, #4]
    eddc:	e2613008 	rsb	r3, r1, #8
    ede0:	e58d3000 	str	r3, [sp]
    ede4:	e1a051a5 	lsr	r5, r5, #3
    ede8:	e20aa0ff 	and	sl, sl, #255	; 0xff
    edec:	e20bb0ff 	and	fp, fp, #255	; 0xff
    edf0:	e1a00004 	mov	r0, r4
    edf4:	e1a0300c 	mov	r3, ip
    edf8:	ea00000d 	b	ee34 <BitGetUnsigned+0xb4>
    edfc:	e153000c 	cmp	r3, ip
    ee00:	0a000016 	beq	ee60 <BitGetUnsigned+0xe0>
    ee04:	e1550003 	cmp	r5, r3
    ee08:	12844008 	addne	r4, r4, #8
    ee0c:	17d79003 	ldrbne	r9, [r7, r3]
    ee10:	10648002 	rsbne	r8, r4, r2
    ee14:	11800819 	orrne	r0, r0, r9, lsl r8
    ee18:	07d78005 	ldrbeq	r8, [r7, r5]
    ee1c:	059d9004 	ldreq	r9, [sp, #4]
    ee20:	00098008 	andeq	r8, r9, r8
    ee24:	01800008 	orreq	r0, r0, r8
    ee28:	e2833001 	add	r3, r3, #1
    ee2c:	e1530006 	cmp	r3, r6
    ee30:	0a000007 	beq	ee54 <BitGetUnsigned+0xd4>
    ee34:	e15c0005 	cmp	ip, r5
    ee38:	1affffef 	bne	edfc <BitGetUnsigned+0x7c>
    ee3c:	e7d70003 	ldrb	r0, [r7, r3]
    ee40:	e2833001 	add	r3, r3, #1
    ee44:	e00a0000 	and	r0, sl, r0
    ee48:	e1530006 	cmp	r3, r6
    ee4c:	e1a00150 	asr	r0, r0, r1
    ee50:	1afffff7 	bne	ee34 <BitGetUnsigned+0xb4>
    ee54:	e28dd008 	add	sp, sp, #8
    ee58:	e8bd0ff0 	pop	{r4, r5, r6, r7, r8, r9, sl, fp}
    ee5c:	e12fff1e 	bx	lr
    ee60:	e7d70003 	ldrb	r0, [r7, r3]
    ee64:	e00b0000 	and	r0, fp, r0
    ee68:	e1a00150 	asr	r0, r0, r1
    ee6c:	e59d8000 	ldr	r8, [sp]
    ee70:	e0844008 	add	r4, r4, r8
    ee74:	e0648002 	rsb	r8, r4, r2
    ee78:	e1a00810 	lsl	r0, r0, r8
    ee7c:	eaffffe9 	b	ee28 <BitGetUnsigned+0xa8>
    ee80:	e3a00000 	mov	r0, #0
    ee84:	eafffff2 	b	ee54 <BitGetUnsigned+0xd4>

0000ee88 <BitGetSigned>:
    ee88:	e92d4010 	push	{r4, lr}
    ee8c:	e1a04002 	mov	r4, r2
    ee90:	ebffffba 	bl	ed80 <BitGetUnsigned>
    ee94:	e3a03001 	mov	r3, #1
    ee98:	e2442001 	sub	r2, r4, #1
    ee9c:	e0102213 	ands	r2, r0, r3, lsl r2
    eea0:	11a03413 	lslne	r3, r3, r4
    eea4:	12633000 	rsbne	r3, r3, #0
    eea8:	11800003 	orrne	r0, r0, r3
    eeac:	e8bd4010 	pop	{r4, lr}
    eeb0:	e12fff1e 	bx	lr

0000eeb4 <HidReadDevice>:
    eeb4:	e92d47f0 	push	{r4, r5, r6, r7, r8, r9, sl, lr}
    eeb8:	e5904414 	ldr	r4, [r0, #1044]	; 0x414
    eebc:	e1a05000 	mov	r5, r0
    eec0:	e5d4300c 	ldrb	r3, [r4, #12]
    eec4:	e5d4000d 	ldrb	r0, [r4, #13]
    eec8:	e5d4200e 	ldrb	r2, [r4, #14]
    eecc:	e1833400 	orr	r3, r3, r0, lsl #8
    eed0:	e5d4c00f 	ldrb	ip, [r4, #15]
    eed4:	e1833802 	orr	r3, r3, r2, lsl #16
    eed8:	e183cc0c 	orr	ip, r3, ip, lsl #24
    eedc:	e2811002 	add	r1, r1, #2
    eee0:	e79c8101 	ldr	r8, [ip, r1, lsl #2]
    eee4:	e5d83008 	ldrb	r3, [r8, #8]
    eee8:	e5982004 	ldr	r2, [r8, #4]
    eeec:	e5d86004 	ldrb	r6, [r8, #4]
    eef0:	e1a03c03 	lsl	r3, r3, #24
    eef4:	e2866007 	add	r6, r6, #7
    eef8:	e1930422 	orrs	r0, r3, r2, lsr #8
    eefc:	e24dd008 	sub	sp, sp, #8
    ef00:	e1a061c6 	asr	r6, r6, #3
    ef04:	0a00005c 	beq	f07c <HidReadDevice+0x1c8>
    ef08:	e5dc3005 	ldrb	r3, [ip, #5]
    ef0c:	e5d81003 	ldrb	r1, [r8, #3]
    ef10:	e5d82002 	ldrb	r2, [r8, #2]
    ef14:	e58d0004 	str	r0, [sp, #4]
    ef18:	e58d6000 	str	r6, [sp]
    ef1c:	e1a00005 	mov	r0, r5
    ef20:	ebfffeee 	bl	eae0 <HidGetReport>
    ef24:	e250a000 	subs	sl, r0, #0
    ef28:	1a000049 	bne	f054 <HidReadDevice+0x1a0>
    ef2c:	e5d83001 	ldrb	r3, [r8, #1]
    ef30:	e3530000 	cmp	r3, #0
    ef34:	11a04008 	movne	r4, r8
    ef38:	0a000031 	beq	f004 <HidReadDevice+0x150>
    ef3c:	e5d45010 	ldrb	r5, [r4, #16]
    ef40:	e1a050a5 	lsr	r5, r5, #1
    ef44:	e2155001 	ands	r5, r5, #1
    ef48:	1a00001d 	bne	efc4 <HidReadDevice+0x110>
    ef4c:	e5d4200e 	ldrb	r2, [r4, #14]
    ef50:	e3520000 	cmp	r2, #0
    ef54:	1a00000a 	bne	ef84 <HidReadDevice+0xd0>
    ef58:	ea000025 	b	eff4 <HidReadDevice+0x140>
    ef5c:	ebffff87 	bl	ed80 <BitGetUnsigned>
    ef60:	e1a03000 	mov	r3, r0
    ef64:	e1a00009 	mov	r0, r9
    ef68:	e1a01007 	mov	r1, r7
    ef6c:	e1a02006 	mov	r2, r6
    ef70:	ebffff35 	bl	ec4c <BitSet>
    ef74:	e5d4300e 	ldrb	r3, [r4, #14]
    ef78:	e2855001 	add	r5, r5, #1
    ef7c:	e1530005 	cmp	r3, r5
    ef80:	9a000025 	bls	f01c <HidReadDevice+0x168>
    ef84:	e5d4600c 	ldrb	r6, [r4, #12]
    ef88:	e0070596 	mul	r7, r6, r5
    ef8c:	e594301c 	ldr	r3, [r4, #28]
    ef90:	e3530000 	cmp	r3, #0
    ef94:	e5d83008 	ldrb	r3, [r8, #8]
    ef98:	e5d4100d 	ldrb	r1, [r4, #13]
    ef9c:	e5980004 	ldr	r0, [r8, #4]
    efa0:	e1a03c03 	lsl	r3, r3, #24
    efa4:	e5949034 	ldr	r9, [r4, #52]	; 0x34
    efa8:	e0871001 	add	r1, r7, r1
    efac:	e1830420 	orr	r0, r3, r0, lsr #8
    efb0:	e1a02006 	mov	r2, r6
    efb4:	aaffffe8 	bge	ef5c <HidReadDevice+0xa8>
    efb8:	ebffffb2 	bl	ee88 <BitGetSigned>
    efbc:	e1a03000 	mov	r3, r0
    efc0:	eaffffe7 	b	ef64 <HidReadDevice+0xb0>
    efc4:	e594301c 	ldr	r3, [r4, #28]
    efc8:	e3530000 	cmp	r3, #0
    efcc:	e5d83008 	ldrb	r3, [r8, #8]
    efd0:	e5980004 	ldr	r0, [r8, #4]
    efd4:	e1a03c03 	lsl	r3, r3, #24
    efd8:	e1830420 	orr	r0, r3, r0, lsr #8
    efdc:	e5d4100d 	ldrb	r1, [r4, #13]
    efe0:	e5d4200c 	ldrb	r2, [r4, #12]
    efe4:	ba000012 	blt	f034 <HidReadDevice+0x180>
    efe8:	ebffff64 	bl	ed80 <BitGetUnsigned>
    efec:	e5840034 	str	r0, [r4, #52]	; 0x34
    eff0:	e5d83001 	ldrb	r3, [r8, #1]
    eff4:	e28aa001 	add	sl, sl, #1
    eff8:	e153000a 	cmp	r3, sl
    effc:	e284402c 	add	r4, r4, #44	; 0x2c
    f000:	8affffcd 	bhi	ef3c <HidReadDevice+0x88>
    f004:	e3a0a000 	mov	sl, #0
    f008:	e1a00c0a 	lsl	r0, sl, #24
    f00c:	e1a00c40 	asr	r0, r0, #24
    f010:	e28dd008 	add	sp, sp, #8
    f014:	e8bd47f0 	pop	{r4, r5, r6, r7, r8, r9, sl, lr}
    f018:	e12fff1e 	bx	lr
    f01c:	e5d83001 	ldrb	r3, [r8, #1]
    f020:	e28aa001 	add	sl, sl, #1
    f024:	e153000a 	cmp	r3, sl
    f028:	e284402c 	add	r4, r4, #44	; 0x2c
    f02c:	8affffc2 	bhi	ef3c <HidReadDevice+0x88>
    f030:	eafffff3 	b	f004 <HidReadDevice+0x150>
    f034:	ebffff93 	bl	ee88 <BitGetSigned>
    f038:	e5840034 	str	r0, [r4, #52]	; 0x34
    f03c:	e5d83001 	ldrb	r3, [r8, #1]
    f040:	e28aa001 	add	sl, sl, #1
    f044:	e153000a 	cmp	r3, sl
    f048:	e284402c 	add	r4, r4, #44	; 0x2c
    f04c:	8affffba 	bhi	ef3c <HidReadDevice+0x88>
    f050:	eaffffeb 	b	f004 <HidReadDevice+0x150>
    f054:	e37a0009 	cmn	sl, #9
    f058:	0affffea 	beq	f008 <HidReadDevice+0x154>
    f05c:	e1a00005 	mov	r0, r5
    f060:	ebfff242 	bl	b970 <UsbGetDescription>
    f064:	e1a03008 	mov	r3, r8
    f068:	e1a02000 	mov	r2, r0
    f06c:	e3a01023 	mov	r1, #35	; 0x23
    f070:	e59f0050 	ldr	r0, [pc, #80]	; f0c8 <HidReadDevice+0x214>
    f074:	ebffef74 	bl	ae4c <LogPrintF>
    f078:	eaffffe2 	b	f008 <HidReadDevice+0x154>
    f07c:	e1a00006 	mov	r0, r6
    f080:	ebffee19 	bl	a8ec <MemoryAllocate>
    f084:	e5d82004 	ldrb	r2, [r8, #4]
    f088:	e1a03c20 	lsr	r3, r0, #24
    f08c:	e1822400 	orr	r2, r2, r0, lsl #8
    f090:	e3500000 	cmp	r0, #0
    f094:	e5882004 	str	r2, [r8, #4]
    f098:	e5c83008 	strb	r3, [r8, #8]
    f09c:	0a000007 	beq	f0c0 <HidReadDevice+0x20c>
    f0a0:	e5d4300c 	ldrb	r3, [r4, #12]
    f0a4:	e5d4100d 	ldrb	r1, [r4, #13]
    f0a8:	e5d4200e 	ldrb	r2, [r4, #14]
    f0ac:	e1833401 	orr	r3, r3, r1, lsl #8
    f0b0:	e5d4c00f 	ldrb	ip, [r4, #15]
    f0b4:	e1833802 	orr	r3, r3, r2, lsl #16
    f0b8:	e183cc0c 	orr	ip, r3, ip, lsl #24
    f0bc:	eaffff91 	b	ef08 <HidReadDevice+0x54>
    f0c0:	e3a0a0f9 	mov	sl, #249	; 0xf9
    f0c4:	eaffffcf 	b	f008 <HidReadDevice+0x154>
    f0c8:	000138f8 	.word	0x000138f8

0000f0cc <HidWriteDevice>:
    f0cc:	e92d4ff0 	push	{r4, r5, r6, r7, r8, r9, sl, fp, lr}
    f0d0:	e5909414 	ldr	r9, [r0, #1044]	; 0x414
    f0d4:	e24dd014 	sub	sp, sp, #20
    f0d8:	e5d9200d 	ldrb	r2, [r9, #13]
    f0dc:	e5d9300c 	ldrb	r3, [r9, #12]
    f0e0:	e58d0008 	str	r0, [sp, #8]
    f0e4:	e5d9000e 	ldrb	r0, [r9, #14]
    f0e8:	e1833402 	orr	r3, r3, r2, lsl #8
    f0ec:	e5d9200f 	ldrb	r2, [r9, #15]
    f0f0:	e1833800 	orr	r3, r3, r0, lsl #16
    f0f4:	e1833c02 	orr	r3, r3, r2, lsl #24
    f0f8:	e2811002 	add	r1, r1, #2
    f0fc:	e7937101 	ldr	r7, [r3, r1, lsl #2]
    f100:	e5d73008 	ldrb	r3, [r7, #8]
    f104:	e5d7b004 	ldrb	fp, [r7, #4]
    f108:	e597c004 	ldr	ip, [r7, #4]
    f10c:	e1a03c03 	lsl	r3, r3, #24
    f110:	e28bb007 	add	fp, fp, #7
    f114:	e1a0b1cb 	asr	fp, fp, #3
    f118:	e193a42c 	orrs	sl, r3, ip, lsr #8
    f11c:	e58db00c 	str	fp, [sp, #12]
    f120:	0a000052 	beq	f270 <HidWriteDevice+0x1a4>
    f124:	e5d73001 	ldrb	r3, [r7, #1]
    f128:	e3530000 	cmp	r3, #0
    f12c:	11a04007 	movne	r4, r7
    f130:	13a08000 	movne	r8, #0
    f134:	0a000024 	beq	f1cc <HidWriteDevice+0x100>
    f138:	e5d45010 	ldrb	r5, [r4, #16]
    f13c:	e1a050a5 	lsr	r5, r5, #1
    f140:	e2155001 	ands	r5, r5, #1
    f144:	1a00003e 	bne	f244 <HidWriteDevice+0x178>
    f148:	e5d4200e 	ldrb	r2, [r4, #14]
    f14c:	e3520000 	cmp	r2, #0
    f150:	1a000003 	bne	f164 <HidWriteDevice+0x98>
    f154:	ea000018 	b	f1bc <HidWriteDevice+0xf0>
    f158:	e5973004 	ldr	r3, [r7, #4]
    f15c:	e1a0cc0c 	lsl	ip, ip, #24
    f160:	e18ca423 	orr	sl, ip, r3, lsr #8
    f164:	e5d4600c 	ldrb	r6, [r4, #12]
    f168:	e0030596 	mul	r3, r6, r5
    f16c:	e5d4200d 	ldrb	r2, [r4, #13]
    f170:	e1a01003 	mov	r1, r3
    f174:	e083b002 	add	fp, r3, r2
    f178:	e5940034 	ldr	r0, [r4, #52]	; 0x34
    f17c:	e1a02006 	mov	r2, r6
    f180:	ebffff40 	bl	ee88 <BitGetSigned>
    f184:	e1a0100b 	mov	r1, fp
    f188:	e1a03000 	mov	r3, r0
    f18c:	e1a02006 	mov	r2, r6
    f190:	e1a0000a 	mov	r0, sl
    f194:	ebfffeac 	bl	ec4c <BitSet>
    f198:	e5d4300e 	ldrb	r3, [r4, #14]
    f19c:	e2855001 	add	r5, r5, #1
    f1a0:	e1530005 	cmp	r3, r5
    f1a4:	e5d7c008 	ldrb	ip, [r7, #8]
    f1a8:	8affffea 	bhi	f158 <HidWriteDevice+0x8c>
    f1ac:	e5972004 	ldr	r2, [r7, #4]
    f1b0:	e1a0cc0c 	lsl	ip, ip, #24
    f1b4:	e5d73001 	ldrb	r3, [r7, #1]
    f1b8:	e18ca422 	orr	sl, ip, r2, lsr #8
    f1bc:	e2888001 	add	r8, r8, #1
    f1c0:	e1530008 	cmp	r3, r8
    f1c4:	e284402c 	add	r4, r4, #44	; 0x2c
    f1c8:	8affffda 	bhi	f138 <HidWriteDevice+0x6c>
    f1cc:	e5d9200d 	ldrb	r2, [r9, #13]
    f1d0:	e5d9300c 	ldrb	r3, [r9, #12]
    f1d4:	e5d9100e 	ldrb	r1, [r9, #14]
    f1d8:	e1833402 	orr	r3, r3, r2, lsl #8
    f1dc:	e5d9200f 	ldrb	r2, [r9, #15]
    f1e0:	e59d000c 	ldr	r0, [sp, #12]
    f1e4:	e1833801 	orr	r3, r3, r1, lsl #16
    f1e8:	e1833c02 	orr	r3, r3, r2, lsl #24
    f1ec:	e5d33005 	ldrb	r3, [r3, #5]
    f1f0:	e5d71003 	ldrb	r1, [r7, #3]
    f1f4:	e5d72002 	ldrb	r2, [r7, #2]
    f1f8:	e88d0401 	stm	sp, {r0, sl}
    f1fc:	e59d0008 	ldr	r0, [sp, #8]
    f200:	ebfffe65 	bl	eb9c <HidSetReport>
    f204:	e2504000 	subs	r4, r0, #0
    f208:	0a000008 	beq	f230 <HidWriteDevice+0x164>
    f20c:	e3740009 	cmn	r4, #9
    f210:	0a000006 	beq	f230 <HidWriteDevice+0x164>
    f214:	e59d0008 	ldr	r0, [sp, #8]
    f218:	ebfff1d4 	bl	b970 <UsbGetDescription>
    f21c:	e1a03007 	mov	r3, r7
    f220:	e1a02000 	mov	r2, r0
    f224:	e3a01023 	mov	r1, #35	; 0x23
    f228:	e59f0070 	ldr	r0, [pc, #112]	; f2a0 <HidWriteDevice+0x1d4>
    f22c:	ebffef06 	bl	ae4c <LogPrintF>
    f230:	e1a00c04 	lsl	r0, r4, #24
    f234:	e1a00c40 	asr	r0, r0, #24
    f238:	e28dd014 	add	sp, sp, #20
    f23c:	e8bd4ff0 	pop	{r4, r5, r6, r7, r8, r9, sl, fp, lr}
    f240:	e12fff1e 	bx	lr
    f244:	e1a0000a 	mov	r0, sl
    f248:	e5943034 	ldr	r3, [r4, #52]	; 0x34
    f24c:	e5d4100d 	ldrb	r1, [r4, #13]
    f250:	e5d4200c 	ldrb	r2, [r4, #12]
    f254:	ebfffe7c 	bl	ec4c <BitSet>
    f258:	e5d73008 	ldrb	r3, [r7, #8]
    f25c:	e597c004 	ldr	ip, [r7, #4]
    f260:	e1a03c03 	lsl	r3, r3, #24
    f264:	e183a42c 	orr	sl, r3, ip, lsr #8
    f268:	e5d73001 	ldrb	r3, [r7, #1]
    f26c:	eaffffd2 	b	f1bc <HidWriteDevice+0xf0>
    f270:	e59d000c 	ldr	r0, [sp, #12]
    f274:	ebffed9c 	bl	a8ec <MemoryAllocate>
    f278:	e5d72004 	ldrb	r2, [r7, #4]
    f27c:	e1a03c20 	lsr	r3, r0, #24
    f280:	e1822400 	orr	r2, r2, r0, lsl #8
    f284:	e3500000 	cmp	r0, #0
    f288:	e5872004 	str	r2, [r7, #4]
    f28c:	e5c73008 	strb	r3, [r7, #8]
    f290:	11a0a000 	movne	sl, r0
    f294:	1affffa2 	bne	f124 <HidWriteDevice+0x58>
    f298:	e3a040f9 	mov	r4, #249	; 0xf9
    f29c:	eaffffe3 	b	f230 <HidWriteDevice+0x164>
    f2a0:	0001391c 	.word	0x0001391c

0000f2a4 <HidSetProtocol>:
    f2a4:	e92d4070 	push	{r4, r5, r6, lr}
    f2a8:	e5d0302b 	ldrb	r3, [r0, #43]	; 0x2b
    f2ac:	e20330ff 	and	r3, r3, #255	; 0xff
    f2b0:	e24dd018 	sub	sp, sp, #24
    f2b4:	e3a0c000 	mov	ip, #0
    f2b8:	e3530008 	cmp	r3, #8
    f2bc:	e1a05001 	mov	r5, r1
    f2c0:	e1a06002 	mov	r6, r2
    f2c4:	e58dc00c 	str	ip, [sp, #12]
    f2c8:	9a000005 	bls	f2e4 <HidSetProtocol+0x40>
    f2cc:	e3530010 	cmp	r3, #16
    f2d0:	93a0c001 	movls	ip, #1
    f2d4:	9a000002 	bls	f2e4 <HidSetProtocol+0x40>
    f2d8:	e3530020 	cmp	r3, #32
    f2dc:	83a0c003 	movhi	ip, #3
    f2e0:	93a0c002 	movls	ip, #2
    f2e4:	e5dd300c 	ldrb	r3, [sp, #12]
    f2e8:	e5d02004 	ldrb	r2, [r0, #4]
    f2ec:	e20330f0 	and	r3, r3, #240	; 0xf0
    f2f0:	e183c00c 	orr	ip, r3, ip
    f2f4:	e2023003 	and	r3, r2, #3
    f2f8:	e5d02000 	ldrb	r2, [r0]
    f2fc:	e18c3103 	orr	r3, ip, r3, lsl #2
    f300:	e5cd300c 	strb	r3, [sp, #12]
    f304:	e3a0c000 	mov	ip, #0
    f308:	e5cd200d 	strb	r2, [sp, #13]
    f30c:	e28d4010 	add	r4, sp, #16
    f310:	e3a0e00a 	mov	lr, #10
    f314:	e88d4010 	stm	sp, {r4, lr}
    f318:	e1a0200c 	mov	r2, ip
    f31c:	e3a0e00b 	mov	lr, #11
    f320:	e59d100c 	ldr	r1, [sp, #12]
    f324:	e1a0300c 	mov	r3, ip
    f328:	e3a04021 	mov	r4, #33	; 0x21
    f32c:	e1cd61b2 	strh	r6, [sp, #18]
    f330:	e1cd51b4 	strh	r5, [sp, #20]
    f334:	e1cdc1b6 	strh	ip, [sp, #22]
    f338:	e5cd4010 	strb	r4, [sp, #16]
    f33c:	e5cde011 	strb	lr, [sp, #17]
    f340:	ebfff155 	bl	b89c <UsbControlMessage>
    f344:	e28dd018 	add	sp, sp, #24
    f348:	e8bd4070 	pop	{r4, r5, r6, lr}
    f34c:	e12fff1e 	bx	lr

0000f350 <HidEnumerateReport>:
    f350:	e3510000 	cmp	r1, #0
    f354:	e92d4ff8 	push	{r3, r4, r5, r6, r7, r8, r9, sl, fp, lr}
    f358:	e1a08002 	mov	r8, r2
    f35c:	e1a09003 	mov	r9, r3
    f360:	0a000030 	beq	f428 <HidEnumerateReport+0xd8>
    f364:	e2413001 	sub	r3, r1, #1
    f368:	e1a03803 	lsl	r3, r3, #16
    f36c:	e0803823 	add	r3, r0, r3, lsr #16
    f370:	e283a002 	add	sl, r3, #2
    f374:	e2804001 	add	r4, r0, #1
    f378:	e3a0c000 	mov	ip, #0
    f37c:	ea00000a 	b	f3ac <HidEnumerateReport+0x5c>
    f380:	e5541001 	ldrb	r1, [r4, #-1]
    f384:	e1a02185 	lsl	r2, r5, #3
    f388:	e1866211 	orr	r6, r6, r1, lsl r2
    f38c:	e2855001 	add	r5, r5, #1
    f390:	e1a05805 	lsl	r5, r5, #16
    f394:	e1a05825 	lsr	r5, r5, #16
    f398:	e1550007 	cmp	r5, r7
    f39c:	0a000014 	beq	f3f4 <HidEnumerateReport+0xa4>
    f3a0:	e2844001 	add	r4, r4, #1
    f3a4:	e154000a 	cmp	r4, sl
    f3a8:	0a00001e 	beq	f428 <HidEnumerateReport+0xd8>
    f3ac:	e35c0000 	cmp	ip, #0
    f3b0:	e2442001 	sub	r2, r4, #1
    f3b4:	0a00001d 	beq	f430 <HidEnumerateReport+0xe0>
    f3b8:	e5dc2000 	ldrb	r2, [ip]
    f3bc:	e1a02122 	lsr	r2, r2, #2
    f3c0:	e352003f 	cmp	r2, #63	; 0x3f
    f3c4:	1affffed 	bne	f380 <HidEnumerateReport+0x30>
    f3c8:	e3550001 	cmp	r5, #1
    f3cc:	8affffeb 	bhi	f380 <HidEnumerateReport+0x30>
    f3d0:	e5542001 	ldrb	r2, [r4, #-1]
    f3d4:	e3550000 	cmp	r5, #0
    f3d8:	00877002 	addeq	r7, r7, r2
    f3dc:	118bb402 	orrne	fp, fp, r2, lsl #8
    f3e0:	01a07807 	lsleq	r7, r7, #16
    f3e4:	11a0b80b 	lslne	fp, fp, #16
    f3e8:	01a07827 	lsreq	r7, r7, #16
    f3ec:	11a0b82b 	lsrne	fp, fp, #16
    f3f0:	eaffffe5 	b	f38c <HidEnumerateReport+0x3c>
    f3f4:	e20b2003 	and	r2, fp, #3
    f3f8:	e3520001 	cmp	r2, #1
    f3fc:	0a00001b 	beq	f470 <HidEnumerateReport+0x120>
    f400:	e1a02006 	mov	r2, r6
    f404:	e1a00009 	mov	r0, r9
    f408:	e1a0100b 	mov	r1, fp
    f40c:	e2844001 	add	r4, r4, #1
    f410:	e1a0e00f 	mov	lr, pc
    f414:	e12fff18 	bx	r8
    f418:	e154000a 	cmp	r4, sl
    f41c:	e1a07005 	mov	r7, r5
    f420:	e3a0c000 	mov	ip, #0
    f424:	1affffe0 	bne	f3ac <HidEnumerateReport+0x5c>
    f428:	e8bd4ff8 	pop	{r3, r4, r5, r6, r7, r8, r9, sl, fp, lr}
    f42c:	e12fff1e 	bx	lr
    f430:	e554b001 	ldrb	fp, [r4, #-1]
    f434:	e20b7003 	and	r7, fp, #3
    f438:	e2477001 	sub	r7, r7, #1
    f43c:	e3a03001 	mov	r3, #1
    f440:	e1a07713 	lsl	r7, r3, r7
    f444:	e1a07807 	lsl	r7, r7, #16
    f448:	e1b07827 	lsrs	r7, r7, #16
    f44c:	e1a0b12b 	lsr	fp, fp, #2
    f450:	13a06000 	movne	r6, #0
    f454:	11a0c002 	movne	ip, r2
    f458:	11a05006 	movne	r5, r6
    f45c:	1affffcf 	bne	f3a0 <HidEnumerateReport+0x50>
    f460:	e1a05007 	mov	r5, r7
    f464:	e1a02007 	mov	r2, r7
    f468:	e1a06007 	mov	r6, r7
    f46c:	eaffffe4 	b	f404 <HidEnumerateReport+0xb4>
    f470:	e3550001 	cmp	r5, #1
    f474:	0a000005 	beq	f490 <HidEnumerateReport+0x140>
    f478:	e3550002 	cmp	r5, #2
    f47c:	1affffdf 	bne	f400 <HidEnumerateReport+0xb0>
    f480:	e3160902 	tst	r6, #32768	; 0x8000
    f484:	11e06806 	mvnne	r6, r6, lsl #16
    f488:	11e06826 	mvnne	r6, r6, lsr #16
    f48c:	eaffffdb 	b	f400 <HidEnumerateReport+0xb0>
    f490:	e3160080 	tst	r6, #128	; 0x80
    f494:	0affffd9 	beq	f400 <HidEnumerateReport+0xb0>
    f498:	e1e06c06 	mvn	r6, r6, lsl #24
    f49c:	e1e06c26 	mvn	r6, r6, lsr #24
    f4a0:	e1a02006 	mov	r2, r6
    f4a4:	eaffffd6 	b	f404 <HidEnumerateReport+0xb4>

0000f4a8 <HidParseReportDescriptor>:
    f4a8:	e92d4ff0 	push	{r4, r5, r6, r7, r8, r9, sl, fp, lr}
    f4ac:	e5900414 	ldr	r0, [r0, #1044]	; 0x414
    f4b0:	e24dd01c 	sub	sp, sp, #28
    f4b4:	e1a08001 	mov	r8, r1
    f4b8:	e3a04000 	mov	r4, #0
    f4bc:	e1a01002 	mov	r1, r2
    f4c0:	e58d2004 	str	r2, [sp, #4]
    f4c4:	e58d0008 	str	r0, [sp, #8]
    f4c8:	e59f22ec 	ldr	r2, [pc, #748]	; f7bc <HidParseReportDescriptor+0x314>
    f4cc:	e1a00008 	mov	r0, r8
    f4d0:	e28d3010 	add	r3, sp, #16
    f4d4:	e5cd4010 	strb	r4, [sp, #16]
    f4d8:	e5cd4011 	strb	r4, [sp, #17]
    f4dc:	e5cd4012 	strb	r4, [sp, #18]
    f4e0:	e5cd4013 	strb	r4, [sp, #19]
    f4e4:	e5cd4014 	strb	r4, [sp, #20]
    f4e8:	ebffff98 	bl	f350 <HidEnumerateReport>
    f4ec:	e5dd0010 	ldrb	r0, [sp, #16]
    f4f0:	e1a00100 	lsl	r0, r0, #2
    f4f4:	e2800008 	add	r0, r0, #8
    f4f8:	ebffecfb 	bl	a8ec <MemoryAllocate>
    f4fc:	e2505000 	subs	r5, r0, #0
    f500:	0a000046 	beq	f620 <HidParseReportDescriptor+0x178>
    f504:	e5dd1010 	ldrb	r1, [sp, #16]
    f508:	e1510004 	cmp	r1, r4
    f50c:	11a03004 	movne	r3, r4
    f510:	11a00003 	movne	r0, r3
    f514:	11a02005 	movne	r2, r5
    f518:	0a000004 	beq	f530 <HidParseReportDescriptor+0x88>
    f51c:	e2833001 	add	r3, r3, #1
    f520:	e1510003 	cmp	r1, r3
    f524:	e5820008 	str	r0, [r2, #8]
    f528:	e2822004 	add	r2, r2, #4
    f52c:	8afffffa 	bhi	f51c <HidParseReportDescriptor+0x74>
    f530:	e0810081 	add	r0, r1, r1, lsl #1
    f534:	e2800006 	add	r0, r0, #6
    f538:	ebffeceb 	bl	a8ec <MemoryAllocate>
    f53c:	e2506000 	subs	r6, r0, #0
    f540:	0a000036 	beq	f620 <HidParseReportDescriptor+0x178>
    f544:	e5dd3010 	ldrb	r3, [sp, #16]
    f548:	e3a04000 	mov	r4, #0
    f54c:	e5c53004 	strb	r3, [r5, #4]
    f550:	e1a00008 	mov	r0, r8
    f554:	e5c64000 	strb	r4, [r6]
    f558:	e5c64001 	strb	r4, [r6, #1]
    f55c:	e5c64002 	strb	r4, [r6, #2]
    f560:	e5c64003 	strb	r4, [r6, #3]
    f564:	e5c64004 	strb	r4, [r6, #4]
    f568:	e5c64005 	strb	r4, [r6, #5]
    f56c:	e1a03006 	mov	r3, r6
    f570:	e59d1004 	ldr	r1, [sp, #4]
    f574:	e59f2244 	ldr	r2, [pc, #580]	; f7c0 <HidParseReportDescriptor+0x318>
    f578:	ebffff74 	bl	f350 <HidEnumerateReport>
    f57c:	e5dd3010 	ldrb	r3, [sp, #16]
    f580:	e1530004 	cmp	r3, r4
    f584:	11a07004 	movne	r7, r4
    f588:	11a0b007 	movne	fp, r7
    f58c:	11a09007 	movne	r9, r7
    f590:	11a04005 	movne	r4, r5
    f594:	1a000014 	bne	f5ec <HidParseReportDescriptor+0x144>
    f598:	ea000038 	b	f680 <HidParseReportDescriptor+0x1d8>
    f59c:	e5c0b000 	strb	fp, [r0]
    f5a0:	e5942008 	ldr	r2, [r4, #8]
    f5a4:	e5c29001 	strb	r9, [r2, #1]
    f5a8:	e5942008 	ldr	r2, [r4, #8]
    f5ac:	e5da0006 	ldrb	r0, [sl, #6]
    f5b0:	e5c20002 	strb	r0, [r2, #2]
    f5b4:	e5942008 	ldr	r2, [r4, #8]
    f5b8:	e5da0008 	ldrb	r0, [sl, #8]
    f5bc:	e5c29004 	strb	r9, [r2, #4]
    f5c0:	e5c20003 	strb	r0, [r2, #3]
    f5c4:	e5942008 	ldr	r2, [r4, #8]
    f5c8:	e5d20004 	ldrb	r0, [r2, #4]
    f5cc:	e5820004 	str	r0, [r2, #4]
    f5d0:	e5dd0010 	ldrb	r0, [sp, #16]
    f5d4:	e28bb001 	add	fp, fp, #1
    f5d8:	e150000b 	cmp	r0, fp
    f5dc:	e2877003 	add	r7, r7, #3
    f5e0:	e5c29008 	strb	r9, [r2, #8]
    f5e4:	e2844004 	add	r4, r4, #4
    f5e8:	9a000024 	bls	f680 <HidParseReportDescriptor+0x1d8>
    f5ec:	e086a007 	add	sl, r6, r7
    f5f0:	e5da2007 	ldrb	r2, [sl, #7]
    f5f4:	e0820102 	add	r0, r2, r2, lsl #2
    f5f8:	e0822080 	add	r2, r2, r0, lsl #1
    f5fc:	e1a00102 	lsl	r0, r2, #2
    f600:	e280000c 	add	r0, r0, #12
    f604:	ebffecb8 	bl	a8ec <MemoryAllocate>
    f608:	e3500000 	cmp	r0, #0
    f60c:	e5840008 	str	r0, [r4, #8]
    f610:	1affffe1 	bne	f59c <HidParseReportDescriptor+0xf4>
    f614:	e3560000 	cmp	r6, #0
    f618:	11a00006 	movne	r0, r6
    f61c:	1bffedb0 	blne	ace4 <MemoryDeallocate>
    f620:	e3a070f9 	mov	r7, #249	; 0xf9
    f624:	e3550000 	cmp	r5, #0
    f628:	0a00000f 	beq	f66c <HidParseReportDescriptor+0x1c4>
    f62c:	e5dd3010 	ldrb	r3, [sp, #16]
    f630:	e3530000 	cmp	r3, #0
    f634:	11a06005 	movne	r6, r5
    f638:	13a04000 	movne	r4, #0
    f63c:	0a000008 	beq	f664 <HidParseReportDescriptor+0x1bc>
    f640:	e5960008 	ldr	r0, [r6, #8]
    f644:	e3500000 	cmp	r0, #0
    f648:	e2844001 	add	r4, r4, #1
    f64c:	0a000001 	beq	f658 <HidParseReportDescriptor+0x1b0>
    f650:	ebffeda3 	bl	ace4 <MemoryDeallocate>
    f654:	e5dd3010 	ldrb	r3, [sp, #16]
    f658:	e1530004 	cmp	r3, r4
    f65c:	e2866004 	add	r6, r6, #4
    f660:	8afffff6 	bhi	f640 <HidParseReportDescriptor+0x198>
    f664:	e1a00005 	mov	r0, r5
    f668:	ebffed9d 	bl	ace4 <MemoryDeallocate>
    f66c:	e1a00c07 	lsl	r0, r7, #24
    f670:	e1a00c40 	asr	r0, r0, #24
    f674:	e28dd01c 	add	sp, sp, #28
    f678:	e8bd4ff0 	pop	{r4, r5, r6, r7, r8, r9, sl, fp, lr}
    f67c:	e12fff1e 	bx	lr
    f680:	e1a00006 	mov	r0, r6
    f684:	ebffed96 	bl	ace4 <MemoryDeallocate>
    f688:	e3a0002f 	mov	r0, #47	; 0x2f
    f68c:	ebffec96 	bl	a8ec <MemoryAllocate>
    f690:	e2504000 	subs	r4, r0, #0
    f694:	0affffe1 	beq	f620 <HidParseReportDescriptor+0x178>
    f698:	e3a00040 	mov	r0, #64	; 0x40
    f69c:	ebffec92 	bl	a8ec <MemoryAllocate>
    f6a0:	e1a01420 	lsr	r1, r0, #8
    f6a4:	e1a02820 	lsr	r2, r0, #16
    f6a8:	e1a03c20 	lsr	r3, r0, #24
    f6ac:	e3500000 	cmp	r0, #0
    f6b0:	e1a06000 	mov	r6, r0
    f6b4:	e5c4000c 	strb	r0, [r4, #12]
    f6b8:	e5c4100d 	strb	r1, [r4, #13]
    f6bc:	e5c4200e 	strb	r2, [r4, #14]
    f6c0:	e5c4300f 	strb	r3, [r4, #15]
    f6c4:	e3a0e000 	mov	lr, #0
    f6c8:	0a000039 	beq	f7b4 <HidParseReportDescriptor+0x30c>
    f6cc:	e1a0c425 	lsr	ip, r5, #8
    f6d0:	e1a0b825 	lsr	fp, r5, #16
    f6d4:	e20cc0ff 	and	ip, ip, #255	; 0xff
    f6d8:	e205a0ff 	and	sl, r5, #255	; 0xff
    f6dc:	e3e03000 	mvn	r3, #0
    f6e0:	e1a05c25 	lsr	r5, r5, #24
    f6e4:	e20bb0ff 	and	fp, fp, #255	; 0xff
    f6e8:	e5c4e004 	strb	lr, [r4, #4]
    f6ec:	e5c4e005 	strb	lr, [r4, #5]
    f6f0:	e5c4e006 	strb	lr, [r4, #6]
    f6f4:	e5c4e007 	strb	lr, [r4, #7]
    f6f8:	e5c4e018 	strb	lr, [r4, #24]
    f6fc:	e5c4e019 	strb	lr, [r4, #25]
    f700:	e5c4e01a 	strb	lr, [r4, #26]
    f704:	e5c4e01b 	strb	lr, [r4, #27]
    f708:	e5c4e014 	strb	lr, [r4, #20]
    f70c:	e5c4e015 	strb	lr, [r4, #21]
    f710:	e5c4e016 	strb	lr, [r4, #22]
    f714:	e5c4e017 	strb	lr, [r4, #23]
    f718:	e5c4e020 	strb	lr, [r4, #32]
    f71c:	e5c4e021 	strb	lr, [r4, #33]	; 0x21
    f720:	e5c4e022 	strb	lr, [r4, #34]	; 0x22
    f724:	e5c4e023 	strb	lr, [r4, #35]	; 0x23
    f728:	e5c4e01c 	strb	lr, [r4, #28]
    f72c:	e5c4e01d 	strb	lr, [r4, #29]
    f730:	e5c4e01e 	strb	lr, [r4, #30]
    f734:	e5c4e01f 	strb	lr, [r4, #31]
    f738:	e5c4e02e 	strb	lr, [r4, #46]	; 0x2e
    f73c:	e5c4e008 	strb	lr, [r4, #8]
    f740:	e5c4e009 	strb	lr, [r4, #9]
    f744:	e5c4e00a 	strb	lr, [r4, #10]
    f748:	e5c4e00b 	strb	lr, [r4, #11]
    f74c:	e1a00008 	mov	r0, r8
    f750:	e5863000 	str	r3, [r6]
    f754:	e59d1004 	ldr	r1, [sp, #4]
    f758:	e5c4c001 	strb	ip, [r4, #1]
    f75c:	e5c45003 	strb	r5, [r4, #3]
    f760:	e59f205c 	ldr	r2, [pc, #92]	; f7c4 <HidParseReportDescriptor+0x31c>
    f764:	e5c4b002 	strb	fp, [r4, #2]
    f768:	e5c4a000 	strb	sl, [r4]
    f76c:	e1a03004 	mov	r3, r4
    f770:	e58d500c 	str	r5, [sp, #12]
    f774:	e58dc000 	str	ip, [sp]
    f778:	e1a0500e 	mov	r5, lr
    f77c:	ebfffef3 	bl	f350 <HidEnumerateReport>
    f780:	e59dc000 	ldr	ip, [sp]
    f784:	e59d2008 	ldr	r2, [sp, #8]
    f788:	e59d300c 	ldr	r3, [sp, #12]
    f78c:	e5c2c00d 	strb	ip, [r2, #13]
    f790:	e5c2b00e 	strb	fp, [r2, #14]
    f794:	e5c2a00c 	strb	sl, [r2, #12]
    f798:	e5c2300f 	strb	r3, [r2, #15]
    f79c:	e1a00006 	mov	r0, r6
    f7a0:	ebffed4f 	bl	ace4 <MemoryDeallocate>
    f7a4:	e1a07005 	mov	r7, r5
    f7a8:	e1a00004 	mov	r0, r4
    f7ac:	ebffed4c 	bl	ace4 <MemoryDeallocate>
    f7b0:	eaffff9b 	b	f624 <HidParseReportDescriptor+0x17c>
    f7b4:	e3a070f9 	mov	r7, #249	; 0xf9
    f7b8:	eafffffa 	b	f7a8 <HidParseReportDescriptor+0x300>
    f7bc:	0000ea10 	.word	0x0000ea10
    f7c0:	0000df68 	.word	0x0000df68
    f7c4:	0000e0ec 	.word	0x0000e0ec

0000f7c8 <HidAttach>:
    f7c8:	e92d4ff0 	push	{r4, r5, r6, r7, r8, r9, sl, fp, lr}
    f7cc:	e1a02181 	lsl	r2, r1, #3
    f7d0:	e0823001 	add	r3, r2, r1
    f7d4:	e0803003 	add	r3, r0, r3
    f7d8:	e2833040 	add	r3, r3, #64	; 0x40
    f7dc:	e1a06001 	mov	r6, r1
    f7e0:	e5d31009 	ldrb	r1, [r3, #9]
    f7e4:	e3510003 	cmp	r1, #3
    f7e8:	e24dd014 	sub	sp, sp, #20
    f7ec:	e1a05000 	mov	r5, r0
    f7f0:	1a0000b1 	bne	fabc <HidAttach+0x2f4>
    f7f4:	e5d31008 	ldrb	r1, [r3, #8]
    f7f8:	e3510000 	cmp	r1, #0
    f7fc:	0a0000e4 	beq	fb94 <HidAttach+0x3cc>
    f800:	e0660002 	rsb	r0, r6, r2
    f804:	e0850200 	add	r0, r5, r0, lsl #4
    f808:	e5d0c08e 	ldrb	ip, [r0, #142]	; 0x8e
    f80c:	e1b0c3ac 	lsrs	ip, ip, #7
    f810:	0a0000a4 	beq	faa8 <HidAttach+0x2e0>
    f814:	e5d0108f 	ldrb	r1, [r0, #143]	; 0x8f
    f818:	e2011003 	and	r1, r1, #3
    f81c:	e3510003 	cmp	r1, #3
    f820:	1a0000a0 	bne	faa8 <HidAttach+0x2e0>
    f824:	e5d33008 	ldrb	r3, [r3, #8]
    f828:	e3530001 	cmp	r3, #1
    f82c:	9a000007 	bls	f850 <HidAttach+0x88>
    f830:	e5d03095 	ldrb	r3, [r0, #149]	; 0x95
    f834:	e1b033a3 	lsrs	r3, r3, #7
    f838:	e280008f 	add	r0, r0, #143	; 0x8f
    f83c:	1a0000c3 	bne	fb50 <HidAttach+0x388>
    f840:	e5d03007 	ldrb	r3, [r0, #7]
    f844:	e2033003 	and	r3, r3, #3
    f848:	e3530003 	cmp	r3, #3
    f84c:	1a0000bf 	bne	fb50 <HidAttach+0x388>
    f850:	e5d53005 	ldrb	r3, [r5, #5]
    f854:	e3530004 	cmp	r3, #4
    f858:	1a0000c1 	bne	fb64 <HidAttach+0x39c>
    f85c:	e0822006 	add	r2, r2, r6
    f860:	e0852002 	add	r2, r5, r2
    f864:	e5d2304a 	ldrb	r3, [r2, #74]	; 0x4a
    f868:	e3530001 	cmp	r3, #1
    f86c:	e2822040 	add	r2, r2, #64	; 0x40
    f870:	0a00007e 	beq	fa70 <HidAttach+0x2a8>
    f874:	e5954410 	ldr	r4, [r5, #1040]	; 0x410
    f878:	e5d4c000 	ldrb	ip, [r4]
    f87c:	e35c0000 	cmp	ip, #0
    f880:	e2869001 	add	r9, r6, #1
    f884:	0a00000f 	beq	f8c8 <HidAttach+0x100>
    f888:	e1a08009 	mov	r8, r9
    f88c:	ea000006 	b	f8ac <HidAttach+0xe4>
    f890:	e3520021 	cmp	r2, #33	; 0x21
    f894:	1a000001 	bne	f8a0 <HidAttach+0xd8>
    f898:	e1580006 	cmp	r8, r6
    f89c:	0a000016 	beq	f8fc <HidAttach+0x134>
    f8a0:	e7f4c00c 	ldrb	ip, [r4, ip]!
    f8a4:	e35c0000 	cmp	ip, #0
    f8a8:	0a000006 	beq	f8c8 <HidAttach+0x100>
    f8ac:	e5d42001 	ldrb	r2, [r4, #1]
    f8b0:	e3520004 	cmp	r2, #4
    f8b4:	1afffff5 	bne	f890 <HidAttach+0xc8>
    f8b8:	e5d48002 	ldrb	r8, [r4, #2]
    f8bc:	e7f4c00c 	ldrb	ip, [r4, ip]!
    f8c0:	e35c0000 	cmp	ip, #0
    f8c4:	1afffff8 	bne	f8ac <HidAttach+0xe4>
    f8c8:	e1a00005 	mov	r0, r5
    f8cc:	ebfff027 	bl	b970 <UsbGetDescription>
    f8d0:	e1a03009 	mov	r3, r9
    f8d4:	e1a02000 	mov	r2, r0
    f8d8:	e3a01043 	mov	r1, #67	; 0x43
    f8dc:	e59f02c8 	ldr	r0, [pc, #712]	; fbac <HidAttach+0x3e4>
    f8e0:	ebffed59 	bl	ae4c <LogPrintF>
    f8e4:	e3a000fb 	mov	r0, #251	; 0xfb
    f8e8:	e1a00c00 	lsl	r0, r0, #24
    f8ec:	e1a00c40 	asr	r0, r0, #24
    f8f0:	e28dd014 	add	sp, sp, #20
    f8f4:	e8bd4ff0 	pop	{r4, r5, r6, r7, r8, r9, sl, fp, lr}
    f8f8:	e12fff1e 	bx	lr
    f8fc:	e5d43002 	ldrb	r3, [r4, #2]
    f900:	e5d42003 	ldrb	r2, [r4, #3]
    f904:	e1832402 	orr	r2, r3, r2, lsl #8
    f908:	e1a02802 	lsl	r2, r2, #16
    f90c:	e59f129c 	ldr	r1, [pc, #668]	; fbb0 <HidAttach+0x3e8>
    f910:	e1a03822 	lsr	r3, r2, #16
    f914:	e1530001 	cmp	r3, r1
    f918:	8a000096 	bhi	fb78 <HidAttach+0x3b0>
    f91c:	e59f2290 	ldr	r2, [pc, #656]	; fbb4 <HidAttach+0x3ec>
    f920:	e59f3290 	ldr	r3, [pc, #656]	; fbb8 <HidAttach+0x3f0>
    f924:	e5852010 	str	r2, [r5, #16]
    f928:	e585300c 	str	r3, [r5, #12]
    f92c:	e3a0001c 	mov	r0, #28
    f930:	ebffebed 	bl	a8ec <MemoryAllocate>
    f934:	e3500000 	cmp	r0, #0
    f938:	e1a07000 	mov	r7, r0
    f93c:	e5850414 	str	r0, [r5, #1044]	; 0x414
    f940:	0a00003b 	beq	fa34 <HidAttach+0x26c>
    f944:	e3a0301c 	mov	r3, #28
    f948:	e5902004 	ldr	r2, [r0, #4]
    f94c:	e5873004 	str	r3, [r7, #4]
    f950:	e59f0264 	ldr	r0, [pc, #612]	; fbbc <HidAttach+0x3f4>
    f954:	e3a0a000 	mov	sl, #0
    f958:	e1a01424 	lsr	r1, r4, #8
    f95c:	e1a02824 	lsr	r2, r4, #16
    f960:	e1a03c24 	lsr	r3, r4, #24
    f964:	e5c74008 	strb	r4, [r7, #8]
    f968:	e5c7a010 	strb	sl, [r7, #16]
    f96c:	e5c7a011 	strb	sl, [r7, #17]
    f970:	e5c7a012 	strb	sl, [r7, #18]
    f974:	e5c7a013 	strb	sl, [r7, #19]
    f978:	e5c71009 	strb	r1, [r7, #9]
    f97c:	e5c7200a 	strb	r2, [r7, #10]
    f980:	e5c7300b 	strb	r3, [r7, #11]
    f984:	e597c000 	ldr	ip, [r7]
    f988:	e5870000 	str	r0, [r7]
    f98c:	e5d43007 	ldrb	r3, [r4, #7]
    f990:	e5d40008 	ldrb	r0, [r4, #8]
    f994:	e1830400 	orr	r0, r3, r0, lsl #8
    f998:	ebffebd3 	bl	a8ec <MemoryAllocate>
    f99c:	e250b000 	subs	fp, r0, #0
    f9a0:	0a000023 	beq	fa34 <HidAttach+0x26c>
    f9a4:	e5d42007 	ldrb	r2, [r4, #7]
    f9a8:	e5d41008 	ldrb	r1, [r4, #8]
    f9ac:	e1a03808 	lsl	r3, r8, #16
    f9b0:	e1821401 	orr	r1, r2, r1, lsl #8
    f9b4:	e3a00001 	mov	r0, #1
    f9b8:	e58d1004 	str	r1, [sp, #4]
    f9bc:	e58d1008 	str	r1, [sp, #8]
    f9c0:	e58d000c 	str	r0, [sp, #12]
    f9c4:	e1a03823 	lsr	r3, r3, #16
    f9c8:	e1a0200a 	mov	r2, sl
    f9cc:	e58db000 	str	fp, [sp]
    f9d0:	e1a00005 	mov	r0, r5
    f9d4:	e3a01022 	mov	r1, #34	; 0x22
    f9d8:	ebfff099 	bl	bc44 <UsbGetDescriptor>
    f9dc:	e2508000 	subs	r8, r0, #0
    f9e0:	1a000018 	bne	fa48 <HidAttach+0x280>
    f9e4:	e5d43007 	ldrb	r3, [r4, #7]
    f9e8:	e5d42008 	ldrb	r2, [r4, #8]
    f9ec:	e1a00005 	mov	r0, r5
    f9f0:	e1832402 	orr	r2, r3, r2, lsl #8
    f9f4:	e1a0100b 	mov	r1, fp
    f9f8:	ebfffeaa 	bl	f4a8 <HidParseReportDescriptor>
    f9fc:	e2508000 	subs	r8, r0, #0
    fa00:	e1a0000b 	mov	r0, fp
    fa04:	0a00002e 	beq	fac4 <HidAttach+0x2fc>
    fa08:	ebffecb5 	bl	ace4 <MemoryDeallocate>
    fa0c:	e1a00005 	mov	r0, r5
    fa10:	ebffefd6 	bl	b970 <UsbGetDescription>
    fa14:	e1a03009 	mov	r3, r9
    fa18:	e1a02000 	mov	r2, r0
    fa1c:	e3a01034 	mov	r1, #52	; 0x34
    fa20:	e59f0198 	ldr	r0, [pc, #408]	; fbc0 <HidAttach+0x3f8>
    fa24:	ebffed08 	bl	ae4c <LogPrintF>
    fa28:	e1a0000b 	mov	r0, fp
    fa2c:	ebffecac 	bl	ace4 <MemoryDeallocate>
    fa30:	ea000000 	b	fa38 <HidAttach+0x270>
    fa34:	e3a080f9 	mov	r8, #249	; 0xf9
    fa38:	e1a00005 	mov	r0, r5
    fa3c:	ebfffb9e 	bl	e8bc <HidDeallocate>
    fa40:	e1a00008 	mov	r0, r8
    fa44:	eaffffa7 	b	f8e8 <HidAttach+0x120>
    fa48:	e1a0000b 	mov	r0, fp
    fa4c:	ebffeca4 	bl	ace4 <MemoryDeallocate>
    fa50:	e1a00005 	mov	r0, r5
    fa54:	ebffefc5 	bl	b970 <UsbGetDescription>
    fa58:	e1a03009 	mov	r3, r9
    fa5c:	e1a02000 	mov	r2, r0
    fa60:	e3a0103b 	mov	r1, #59	; 0x3b
    fa64:	e59f0158 	ldr	r0, [pc, #344]	; fbc4 <HidAttach+0x3fc>
    fa68:	ebffecf7 	bl	ae4c <LogPrintF>
    fa6c:	eaffffed 	b	fa28 <HidAttach+0x260>
    fa70:	e5d2300b 	ldrb	r3, [r2, #11]
    fa74:	e3530001 	cmp	r3, #1
    fa78:	15d2300b 	ldrbne	r3, [r2, #11]
    fa7c:	e20610ff 	and	r1, r6, #255	; 0xff
    fa80:	e1a00005 	mov	r0, r5
    fa84:	e3a02001 	mov	r2, #1
    fa88:	ebfffe05 	bl	f2a4 <HidSetProtocol>
    fa8c:	e2504000 	subs	r4, r0, #0
    fa90:	0affff77 	beq	f874 <HidAttach+0xac>
    fa94:	e59f012c 	ldr	r0, [pc, #300]	; fbc8 <HidAttach+0x400>
    fa98:	e3a01035 	mov	r1, #53	; 0x35
    fa9c:	ebffef38 	bl	b784 <LogPrint>
    faa0:	e1a00004 	mov	r0, r4
    faa4:	eaffff8f 	b	f8e8 <HidAttach+0x120>
    faa8:	e59f011c 	ldr	r0, [pc, #284]	; fbcc <HidAttach+0x404>
    faac:	e3a01035 	mov	r1, #53	; 0x35
    fab0:	ebffef33 	bl	b784 <LogPrint>
    fab4:	e3a000fb 	mov	r0, #251	; 0xfb
    fab8:	eaffff8a 	b	f8e8 <HidAttach+0x120>
    fabc:	e3a000fe 	mov	r0, #254	; 0xfe
    fac0:	eaffff88 	b	f8e8 <HidAttach+0x120>
    fac4:	ebffec86 	bl	ace4 <MemoryDeallocate>
    fac8:	e5d7200d 	ldrb	r2, [r7, #13]
    facc:	e5d7300c 	ldrb	r3, [r7, #12]
    fad0:	e5d7100e 	ldrb	r1, [r7, #14]
    fad4:	e1833402 	orr	r3, r3, r2, lsl #8
    fad8:	e5d7200f 	ldrb	r2, [r7, #15]
    fadc:	e1833801 	orr	r3, r3, r1, lsl #16
    fae0:	e1833c02 	orr	r3, r3, r2, lsl #24
    fae4:	e5c36005 	strb	r6, [r3, #5]
    fae8:	e5d7200d 	ldrb	r2, [r7, #13]
    faec:	e5d7300c 	ldrb	r3, [r7, #12]
    faf0:	e5d7100e 	ldrb	r1, [r7, #14]
    faf4:	e1833402 	orr	r3, r3, r2, lsl #8
    faf8:	e5d7200f 	ldrb	r2, [r7, #15]
    fafc:	e1833801 	orr	r3, r3, r1, lsl #16
    fb00:	e1833c02 	orr	r3, r3, r2, lsl #24
    fb04:	e1d320b2 	ldrh	r2, [r3, #2]
    fb08:	e3520001 	cmp	r2, #1
    fb0c:	11a00008 	movne	r0, r8
    fb10:	1affff74 	bne	f8e8 <HidAttach+0x120>
    fb14:	e1d330b0 	ldrh	r3, [r3]
    fb18:	e3530009 	cmp	r3, #9
    fb1c:	83a00000 	movhi	r0, #0
    fb20:	8affff70 	bhi	f8e8 <HidAttach+0x120>
    fb24:	e59f20a4 	ldr	r2, [pc, #164]	; fbd0 <HidAttach+0x408>
    fb28:	e7923103 	ldr	r3, [r2, r3, lsl #2]
    fb2c:	e3530000 	cmp	r3, #0
    fb30:	01a00003 	moveq	r0, r3
    fb34:	0affff6b 	beq	f8e8 <HidAttach+0x120>
    fb38:	e1a00005 	mov	r0, r5
    fb3c:	e1a01006 	mov	r1, r6
    fb40:	e1a0e00f 	mov	lr, pc
    fb44:	e12fff13 	bx	r3
    fb48:	e3a00000 	mov	r0, #0
    fb4c:	eaffff65 	b	f8e8 <HidAttach+0x120>
    fb50:	e59f007c 	ldr	r0, [pc, #124]	; fbd4 <HidAttach+0x40c>
    fb54:	e3a01035 	mov	r1, #53	; 0x35
    fb58:	ebffef09 	bl	b784 <LogPrint>
    fb5c:	e3a000fb 	mov	r0, #251	; 0xfb
    fb60:	eaffff60 	b	f8e8 <HidAttach+0x120>
    fb64:	e59f006c 	ldr	r0, [pc, #108]	; fbd8 <HidAttach+0x410>
    fb68:	e3a01032 	mov	r1, #50	; 0x32
    fb6c:	ebffef04 	bl	b784 <LogPrint>
    fb70:	e3a000fc 	mov	r0, #252	; 0xfc
    fb74:	eaffff5b 	b	f8e8 <HidAttach+0x120>
    fb78:	e59f005c 	ldr	r0, [pc, #92]	; fbdc <HidAttach+0x414>
    fb7c:	e20330ff 	and	r3, r3, #255	; 0xff
    fb80:	e1a02c22 	lsr	r2, r2, #24
    fb84:	e3a01031 	mov	r1, #49	; 0x31
    fb88:	ebffecaf 	bl	ae4c <LogPrintF>
    fb8c:	e3a000fb 	mov	r0, #251	; 0xfb
    fb90:	eaffff54 	b	f8e8 <HidAttach+0x120>
    fb94:	e59f0044 	ldr	r0, [pc, #68]	; fbe0 <HidAttach+0x418>
    fb98:	e5d32008 	ldrb	r2, [r3, #8]
    fb9c:	e3a0103d 	mov	r1, #61	; 0x3d
    fba0:	ebffeca9 	bl	ae4c <LogPrintF>
    fba4:	e3a000fb 	mov	r0, #251	; 0xfb
    fba8:	eaffff4e 	b	f8e8 <HidAttach+0x120>
    fbac:	00013b00 	.word	0x00013b00
    fbb0:	00000111 	.word	0x00000111
    fbb4:	0000e8bc 	.word	0x0000e8bc
    fbb8:	0000e0b0 	.word	0x0000e0b0
    fbbc:	48494430 	.word	0x48494430
    fbc0:	00013acc 	.word	0x00013acc
    fbc4:	00013a90 	.word	0x00013a90
    fbc8:	00013a24 	.word	0x00013a24
    fbcc:	00013980 	.word	0x00013980
    fbd0:	0001ae80 	.word	0x0001ae80
    fbd4:	000139b8 	.word	0x000139b8
    fbd8:	000139f0 	.word	0x000139f0
    fbdc:	00013a5c 	.word	0x00013a5c
    fbe0:	00013940 	.word	0x00013940

0000fbe4 <HidGetFieldValue>:
    fbe4:	e5d02000 	ldrb	r2, [r0]
    fbe8:	e5900028 	ldr	r0, [r0, #40]	; 0x28
    fbec:	e0010192 	mul	r1, r2, r1
    fbf0:	eafffca4 	b	ee88 <BitGetSigned>

0000fbf4 <MouseDetached>:
    fbf4:	e5903414 	ldr	r3, [r0, #1044]	; 0x414
    fbf8:	e5d32010 	ldrb	r2, [r3, #16]
    fbfc:	e5d31011 	ldrb	r1, [r3, #17]
    fc00:	e5d3c012 	ldrb	ip, [r3, #18]
    fc04:	e1821401 	orr	r1, r2, r1, lsl #8
    fc08:	e5d32013 	ldrb	r2, [r3, #19]
    fc0c:	e181380c 	orr	r3, r1, ip, lsl #16
    fc10:	e1933c02 	orrs	r3, r3, r2, lsl #24
    fc14:	012fff1e 	bxeq	lr
    fc18:	e5d31009 	ldrb	r1, [r3, #9]
    fc1c:	e5d32008 	ldrb	r2, [r3, #8]
    fc20:	e5d3c00a 	ldrb	ip, [r3, #10]
    fc24:	e1822401 	orr	r2, r2, r1, lsl #8
    fc28:	e5d3100b 	ldrb	r1, [r3, #11]
    fc2c:	e182280c 	orr	r2, r2, ip, lsl #16
    fc30:	e59f3030 	ldr	r3, [pc, #48]	; fc68 <MouseDetached+0x74>
    fc34:	e1822c01 	orr	r2, r2, r1, lsl #24
    fc38:	e5901000 	ldr	r1, [r0]
    fc3c:	e7930102 	ldr	r0, [r3, r2, lsl #2]
    fc40:	e1500001 	cmp	r0, r1
    fc44:	112fff1e 	bxne	lr
    fc48:	e593c010 	ldr	ip, [r3, #16]
    fc4c:	e59f0018 	ldr	r0, [pc, #24]	; fc6c <MouseDetached+0x78>
    fc50:	e3a01000 	mov	r1, #0
    fc54:	e24cc001 	sub	ip, ip, #1
    fc58:	e583c010 	str	ip, [r3, #16]
    fc5c:	e7801102 	str	r1, [r0, r2, lsl #2]
    fc60:	e7831102 	str	r1, [r3, r2, lsl #2]
    fc64:	e12fff1e 	bx	lr
    fc68:	0001616c 	.word	0x0001616c
    fc6c:	0001aea8 	.word	0x0001aea8

0000fc70 <MouseDeallocate>:
    fc70:	e5903414 	ldr	r3, [r0, #1044]	; 0x414
    fc74:	e5d31011 	ldrb	r1, [r3, #17]
    fc78:	e5d32010 	ldrb	r2, [r3, #16]
    fc7c:	e92d4010 	push	{r4, lr}
    fc80:	e1a04000 	mov	r4, r0
    fc84:	e5d30012 	ldrb	r0, [r3, #18]
    fc88:	e1822401 	orr	r2, r2, r1, lsl #8
    fc8c:	e5d31013 	ldrb	r1, [r3, #19]
    fc90:	e1822800 	orr	r2, r2, r0, lsl #16
    fc94:	e1920c01 	orrs	r0, r2, r1, lsl #24
    fc98:	0a000006 	beq	fcb8 <MouseDeallocate+0x48>
    fc9c:	ebffec10 	bl	ace4 <MemoryDeallocate>
    fca0:	e5943414 	ldr	r3, [r4, #1044]	; 0x414
    fca4:	e3a02000 	mov	r2, #0
    fca8:	e5c32010 	strb	r2, [r3, #16]
    fcac:	e5c32011 	strb	r2, [r3, #17]
    fcb0:	e5c32012 	strb	r2, [r3, #18]
    fcb4:	e5c32013 	strb	r2, [r3, #19]
    fcb8:	e3a02000 	mov	r2, #0
    fcbc:	e5c32018 	strb	r2, [r3, #24]
    fcc0:	e5c32019 	strb	r2, [r3, #25]
    fcc4:	e5c3201a 	strb	r2, [r3, #26]
    fcc8:	e5c3201b 	strb	r2, [r3, #27]
    fccc:	e5c32014 	strb	r2, [r3, #20]
    fcd0:	e5c32015 	strb	r2, [r3, #21]
    fcd4:	e5c32016 	strb	r2, [r3, #22]
    fcd8:	e5c32017 	strb	r2, [r3, #23]
    fcdc:	e8bd4010 	pop	{r4, lr}
    fce0:	e12fff1e 	bx	lr

0000fce4 <MouseAttach>:
    fce4:	e92d43f0 	push	{r4, r5, r6, r7, r8, r9, lr}
    fce8:	e59f72d0 	ldr	r7, [pc, #720]	; ffc0 <MouseAttach+0x2dc>
    fcec:	e5974010 	ldr	r4, [r7, #16]
    fcf0:	e3540004 	cmp	r4, #4
    fcf4:	e24dd00c 	sub	sp, sp, #12
    fcf8:	e1a06000 	mov	r6, r0
    fcfc:	0a00009e 	beq	ff7c <MouseAttach+0x298>
    fd00:	e5904414 	ldr	r4, [r0, #1044]	; 0x414
    fd04:	e5d41001 	ldrb	r1, [r4, #1]
    fd08:	e5d42000 	ldrb	r2, [r4]
    fd0c:	e5d43002 	ldrb	r3, [r4, #2]
    fd10:	e1822401 	orr	r2, r2, r1, lsl #8
    fd14:	e5d41003 	ldrb	r1, [r4, #3]
    fd18:	e1822803 	orr	r2, r2, r3, lsl #16
    fd1c:	e59f32a0 	ldr	r3, [pc, #672]	; ffc4 <MouseAttach+0x2e0>
    fd20:	e1822c01 	orr	r2, r2, r1, lsl #24
    fd24:	e1520003 	cmp	r2, r3
    fd28:	1a00007e 	bne	ff28 <MouseAttach+0x244>
    fd2c:	e5d4300c 	ldrb	r3, [r4, #12]
    fd30:	e5d4500d 	ldrb	r5, [r4, #13]
    fd34:	e5d4200e 	ldrb	r2, [r4, #14]
    fd38:	e1835405 	orr	r5, r3, r5, lsl #8
    fd3c:	e5d4300f 	ldrb	r3, [r4, #15]
    fd40:	e1855802 	orr	r5, r5, r2, lsl #16
    fd44:	e1855c03 	orr	r5, r5, r3, lsl #24
    fd48:	e5952000 	ldr	r2, [r5]
    fd4c:	e59f3274 	ldr	r3, [pc, #628]	; ffc8 <MouseAttach+0x2e4>
    fd50:	e1520003 	cmp	r2, r3
    fd54:	1a00007a 	bne	ff44 <MouseAttach+0x260>
    fd58:	e5d53004 	ldrb	r3, [r5, #4]
    fd5c:	e3530000 	cmp	r3, #0
    fd60:	0a00007e 	beq	ff60 <MouseAttach+0x27c>
    fd64:	e59f2260 	ldr	r2, [pc, #608]	; ffcc <MouseAttach+0x2e8>
    fd68:	e59f3260 	ldr	r3, [pc, #608]	; ffd0 <MouseAttach+0x2ec>
    fd6c:	e1a09422 	lsr	r9, r2, #8
    fd70:	e1a00823 	lsr	r0, r3, #16
    fd74:	e1a01c23 	lsr	r1, r3, #24
    fd78:	e1a08822 	lsr	r8, r2, #16
    fd7c:	e1a0ec22 	lsr	lr, r2, #24
    fd80:	e1a0c423 	lsr	ip, r3, #8
    fd84:	e5c42014 	strb	r2, [r4, #20]
    fd88:	e5c43018 	strb	r3, [r4, #24]
    fd8c:	e5c4001a 	strb	r0, [r4, #26]
    fd90:	e5c4101b 	strb	r1, [r4, #27]
    fd94:	e5c49015 	strb	r9, [r4, #21]
    fd98:	e5c48016 	strb	r8, [r4, #22]
    fd9c:	e5c4e017 	strb	lr, [r4, #23]
    fda0:	e5c4c019 	strb	ip, [r4, #25]
    fda4:	e3a00017 	mov	r0, #23
    fda8:	ebffeacf 	bl	a8ec <MemoryAllocate>
    fdac:	e1a03000 	mov	r3, r0
    fdb0:	e1a02c23 	lsr	r2, r3, #24
    fdb4:	e3500000 	cmp	r0, #0
    fdb8:	e1a01823 	lsr	r1, r3, #16
    fdbc:	e1a00420 	lsr	r0, r0, #8
    fdc0:	e5c42013 	strb	r2, [r4, #19]
    fdc4:	e5c43010 	strb	r3, [r4, #16]
    fdc8:	e5c40011 	strb	r0, [r4, #17]
    fdcc:	e5c41012 	strb	r1, [r4, #18]
    fdd0:	e3a02000 	mov	r2, #0
    fdd4:	0a000071 	beq	ffa0 <MouseAttach+0x2bc>
    fdd8:	e3a09031 	mov	r9, #49	; 0x31
    fddc:	e3a08044 	mov	r8, #68	; 0x44
    fde0:	e3a04042 	mov	r4, #66	; 0x42
    fde4:	e3a0c04b 	mov	ip, #75	; 0x4b
    fde8:	e3a00017 	mov	r0, #23
    fdec:	e3e01000 	mvn	r1, #0
    fdf0:	e5c32005 	strb	r2, [r3, #5]
    fdf4:	e5c32006 	strb	r2, [r3, #6]
    fdf8:	e5c32007 	strb	r2, [r3, #7]
    fdfc:	e5c39000 	strb	r9, [r3]
    fe00:	e5c38001 	strb	r8, [r3, #1]
    fe04:	e5c34002 	strb	r4, [r3, #2]
    fe08:	e5c3c003 	strb	ip, [r3, #3]
    fe0c:	e5c30004 	strb	r0, [r3, #4]
    fe10:	e5c31008 	strb	r1, [r3, #8]
    fe14:	e5c31009 	strb	r1, [r3, #9]
    fe18:	e5c3100a 	strb	r1, [r3, #10]
    fe1c:	e5c3100b 	strb	r1, [r3, #11]
    fe20:	e2471004 	sub	r1, r7, #4
    fe24:	e5b1c004 	ldr	ip, [r1, #4]!
    fe28:	e35c0000 	cmp	ip, #0
    fe2c:	0a00000d 	beq	fe68 <MouseAttach+0x184>
    fe30:	e2822001 	add	r2, r2, #1
    fe34:	e3520004 	cmp	r2, #4
    fe38:	1afffff9 	bne	fe24 <MouseAttach+0x140>
    fe3c:	e59f0190 	ldr	r0, [pc, #400]	; ffd4 <MouseAttach+0x2f0>
    fe40:	e3a01047 	mov	r1, #71	; 0x47
    fe44:	ebffee4e 	bl	b784 <LogPrint>
    fe48:	e1a00006 	mov	r0, r6
    fe4c:	ebffff87 	bl	fc70 <MouseDeallocate>
    fe50:	e3a020ff 	mov	r2, #255	; 0xff
    fe54:	e1a02c02 	lsl	r2, r2, #24
    fe58:	e1a00c42 	asr	r0, r2, #24
    fe5c:	e28dd00c 	add	sp, sp, #12
    fe60:	e8bd43f0 	pop	{r4, r5, r6, r7, r8, r9, lr}
    fe64:	e12fff1e 	bx	lr
    fe68:	e5960000 	ldr	r0, [r6]
    fe6c:	e59f1164 	ldr	r1, [pc, #356]	; ffd8 <MouseAttach+0x2f4>
    fe70:	e1a04c22 	lsr	r4, r2, #24
    fe74:	e1a09422 	lsr	r9, r2, #8
    fe78:	e1a08822 	lsr	r8, r2, #16
    fe7c:	e5c32008 	strb	r2, [r3, #8]
    fe80:	e5c39009 	strb	r9, [r3, #9]
    fe84:	e5c3800a 	strb	r8, [r3, #10]
    fe88:	e5c3400b 	strb	r4, [r3, #11]
    fe8c:	e7870102 	str	r0, [r7, r2, lsl #2]
    fe90:	e7816102 	str	r6, [r1, r2, lsl #2]
    fe94:	e5972010 	ldr	r2, [r7, #16]
    fe98:	e5d54004 	ldrb	r4, [r5, #4]
    fe9c:	e2822001 	add	r2, r2, #1
    fea0:	e3540000 	cmp	r4, #0
    fea4:	e5872010 	str	r2, [r7, #16]
    fea8:	11a0000c 	movne	r0, ip
    feac:	11a01005 	movne	r1, r5
    feb0:	1a000003 	bne	fec4 <MouseAttach+0x1e0>
    feb4:	ea000012 	b	ff04 <MouseAttach+0x220>
    feb8:	e1540000 	cmp	r4, r0
    febc:	e2811004 	add	r1, r1, #4
    fec0:	9a00000f 	bls	ff04 <MouseAttach+0x220>
    fec4:	e5912008 	ldr	r2, [r1, #8]
    fec8:	e5d2c003 	ldrb	ip, [r2, #3]
    fecc:	e35c0001 	cmp	ip, #1
    fed0:	e2800001 	add	r0, r0, #1
    fed4:	1afffff7 	bne	feb8 <MouseAttach+0x1d4>
    fed8:	e1a04822 	lsr	r4, r2, #16
    fedc:	e1a06422 	lsr	r6, r2, #8
    fee0:	e1a0cc22 	lsr	ip, r2, #24
    fee4:	e5c32013 	strb	r2, [r3, #19]
    fee8:	e5c36014 	strb	r6, [r3, #20]
    feec:	e5c34015 	strb	r4, [r3, #21]
    fef0:	e5c3c016 	strb	ip, [r3, #22]
    fef4:	e5d54004 	ldrb	r4, [r5, #4]
    fef8:	e1540000 	cmp	r4, r0
    fefc:	e2811004 	add	r1, r1, #4
    ff00:	8affffef 	bhi	fec4 <MouseAttach+0x1e0>
    ff04:	e3a02000 	mov	r2, #0
    ff08:	e5c3200d 	strb	r2, [r3, #13]
    ff0c:	e5c3200e 	strb	r2, [r3, #14]
    ff10:	e5c3200f 	strb	r2, [r3, #15]
    ff14:	e5c32010 	strb	r2, [r3, #16]
    ff18:	e5c32011 	strb	r2, [r3, #17]
    ff1c:	e5c32012 	strb	r2, [r3, #18]
    ff20:	e5c3200c 	strb	r2, [r3, #12]
    ff24:	eaffffca 	b	fe54 <MouseAttach+0x170>
    ff28:	ebffee90 	bl	b970 <UsbGetDescription>
    ff2c:	e3a0104e 	mov	r1, #78	; 0x4e
    ff30:	e1a02000 	mov	r2, r0
    ff34:	e59f00a0 	ldr	r0, [pc, #160]	; ffdc <MouseAttach+0x2f8>
    ff38:	ebffebc3 	bl	ae4c <LogPrintF>
    ff3c:	e3a020fb 	mov	r2, #251	; 0xfb
    ff40:	eaffffc3 	b	fe54 <MouseAttach+0x170>
    ff44:	ebffee89 	bl	b970 <UsbGetDescription>
    ff48:	e3a01029 	mov	r1, #41	; 0x29
    ff4c:	e1a02000 	mov	r2, r0
    ff50:	e59f0088 	ldr	r0, [pc, #136]	; ffe0 <MouseAttach+0x2fc>
    ff54:	ebffebbc 	bl	ae4c <LogPrintF>
    ff58:	e3a020fb 	mov	r2, #251	; 0xfb
    ff5c:	eaffffbc 	b	fe54 <MouseAttach+0x170>
    ff60:	ebffee82 	bl	b970 <UsbGetDescription>
    ff64:	e3a01036 	mov	r1, #54	; 0x36
    ff68:	e1a02000 	mov	r2, r0
    ff6c:	e59f0070 	ldr	r0, [pc, #112]	; ffe4 <MouseAttach+0x300>
    ff70:	ebffebb5 	bl	ae4c <LogPrintF>
    ff74:	e3a020fb 	mov	r2, #251	; 0xfb
    ff78:	eaffffb5 	b	fe54 <MouseAttach+0x170>
    ff7c:	ebffee7b 	bl	b970 <UsbGetDescription>
    ff80:	e5973010 	ldr	r3, [r7, #16]
    ff84:	e1a02000 	mov	r2, r0
    ff88:	e58d4000 	str	r4, [sp]
    ff8c:	e59f0054 	ldr	r0, [pc, #84]	; ffe8 <MouseAttach+0x304>
    ff90:	e3a01070 	mov	r1, #112	; 0x70
    ff94:	ebffebac 	bl	ae4c <LogPrintF>
    ff98:	e3a020fb 	mov	r2, #251	; 0xfb
    ff9c:	eaffffac 	b	fe54 <MouseAttach+0x170>
    ffa0:	e1a00006 	mov	r0, r6
    ffa4:	ebffee71 	bl	b970 <UsbGetDescription>
    ffa8:	e3a01030 	mov	r1, #48	; 0x30
    ffac:	e1a02000 	mov	r2, r0
    ffb0:	e59f0034 	ldr	r0, [pc, #52]	; ffec <MouseAttach+0x308>
    ffb4:	ebffeba4 	bl	ae4c <LogPrintF>
    ffb8:	e3a020f9 	mov	r2, #249	; 0xf9
    ffbc:	eaffffa4 	b	fe54 <MouseAttach+0x170>
    ffc0:	0001616c 	.word	0x0001616c
    ffc4:	48494430 	.word	0x48494430
    ffc8:	00010002 	.word	0x00010002
    ffcc:	0000fbf4 	.word	0x0000fbf4
    ffd0:	0000fc70 	.word	0x0000fc70
    ffd4:	00013c98 	.word	0x00013c98
    ffd8:	0001aea8 	.word	0x0001aea8
    ffdc:	00013bb4 	.word	0x00013bb4
    ffe0:	00013c04 	.word	0x00013c04
    ffe4:	00013c30 	.word	0x00013c30
    ffe8:	00013b44 	.word	0x00013b44
    ffec:	00013c68 	.word	0x00013c68

0000fff0 <MouseIndex.part.0>:
    fff0:	e59f204c 	ldr	r2, [pc, #76]	; 10044 <MouseIndex.part.0+0x54>
    fff4:	e592c010 	ldr	ip, [r2, #16]
    fff8:	e35c0000 	cmp	ip, #0
    fffc:	0a00000a 	beq	1002c <MouseIndex.part.0+0x3c>
   10000:	e5923000 	ldr	r3, [r2]
   10004:	e1530000 	cmp	r3, r0
   10008:	0a00000b 	beq	1003c <MouseIndex.part.0+0x4c>
   1000c:	e3a03000 	mov	r3, #0
   10010:	ea000002 	b	10020 <MouseIndex.part.0+0x30>
   10014:	e5b21004 	ldr	r1, [r2, #4]!
   10018:	e1510000 	cmp	r1, r0
   1001c:	0a000004 	beq	10034 <MouseIndex.part.0+0x44>
   10020:	e2833001 	add	r3, r3, #1
   10024:	e153000c 	cmp	r3, ip
   10028:	1afffff9 	bne	10014 <MouseIndex.part.0+0x24>
   1002c:	e3e00000 	mvn	r0, #0
   10030:	e12fff1e 	bx	lr
   10034:	e1a00003 	mov	r0, r3
   10038:	e12fff1e 	bx	lr
   1003c:	e3a00000 	mov	r0, #0
   10040:	e12fff1e 	bx	lr
   10044:	0001616c 	.word	0x0001616c

00010048 <MouseLoad>:
   10048:	e59f2038 	ldr	r2, [pc, #56]	; 10088 <MouseLoad+0x40>
   1004c:	e59f1038 	ldr	r1, [pc, #56]	; 1008c <MouseLoad+0x44>
   10050:	e59f0038 	ldr	r0, [pc, #56]	; 10090 <MouseLoad+0x48>
   10054:	e59fc038 	ldr	ip, [pc, #56]	; 10094 <MouseLoad+0x4c>
   10058:	e3a03000 	mov	r3, #0
   1005c:	e5823010 	str	r3, [r2, #16]
   10060:	e5823000 	str	r3, [r2]
   10064:	e5823004 	str	r3, [r2, #4]
   10068:	e5823008 	str	r3, [r2, #8]
   1006c:	e582300c 	str	r3, [r2, #12]
   10070:	e5813000 	str	r3, [r1]
   10074:	e5813004 	str	r3, [r1, #4]
   10078:	e5813008 	str	r3, [r1, #8]
   1007c:	e581300c 	str	r3, [r1, #12]
   10080:	e580c008 	str	ip, [r0, #8]
   10084:	e12fff1e 	bx	lr
   10088:	0001616c 	.word	0x0001616c
   1008c:	0001aea8 	.word	0x0001aea8
   10090:	0001ae80 	.word	0x0001ae80
   10094:	0000fce4 	.word	0x0000fce4

00010098 <MouseIndex>:
   10098:	e3500000 	cmp	r0, #0
   1009c:	1a000001 	bne	100a8 <MouseIndex+0x10>
   100a0:	e3e00000 	mvn	r0, #0
   100a4:	e12fff1e 	bx	lr
   100a8:	eaffffd0 	b	fff0 <MouseIndex.part.0>

000100ac <MouseGetAddress>:
   100ac:	e59f2040 	ldr	r2, [pc, #64]	; 100f4 <MouseGetAddress+0x48>
   100b0:	e5923010 	ldr	r3, [r2, #16]
   100b4:	e1530000 	cmp	r3, r0
   100b8:	3a000009 	bcc	100e4 <MouseGetAddress+0x38>
   100bc:	e2423004 	sub	r3, r2, #4
   100c0:	e282100c 	add	r1, r2, #12
   100c4:	e5b32004 	ldr	r2, [r3, #4]!
   100c8:	e3520000 	cmp	r2, #0
   100cc:	0a000002 	beq	100dc <MouseGetAddress+0x30>
   100d0:	e3500000 	cmp	r0, #0
   100d4:	e2400001 	sub	r0, r0, #1
   100d8:	0a000003 	beq	100ec <MouseGetAddress+0x40>
   100dc:	e1530001 	cmp	r3, r1
   100e0:	1afffff7 	bne	100c4 <MouseGetAddress+0x18>
   100e4:	e3a00000 	mov	r0, #0
   100e8:	e12fff1e 	bx	lr
   100ec:	e1a00002 	mov	r0, r2
   100f0:	e12fff1e 	bx	lr
   100f4:	0001616c 	.word	0x0001616c

000100f8 <MouseCount>:
   100f8:	e59f3004 	ldr	r3, [pc, #4]	; 10104 <MouseCount+0xc>
   100fc:	e5930010 	ldr	r0, [r3, #16]
   10100:	e12fff1e 	bx	lr
   10104:	0001616c 	.word	0x0001616c

00010108 <MousePoll>:
   10108:	e3500000 	cmp	r0, #0
   1010c:	e92d40f8 	push	{r3, r4, r5, r6, r7, lr}
   10110:	0a000026 	beq	101b0 <MousePoll+0xa8>
   10114:	ebffffb5 	bl	fff0 <MouseIndex.part.0>
   10118:	e3700001 	cmn	r0, #1
   1011c:	e1a05000 	mov	r5, r0
   10120:	0a000022 	beq	101b0 <MousePoll+0xa8>
   10124:	e59f6180 	ldr	r6, [pc, #384]	; 102ac <MousePoll+0x1a4>
   10128:	e7960100 	ldr	r0, [r6, r0, lsl #2]
   1012c:	e5903414 	ldr	r3, [r0, #1044]	; 0x414
   10130:	e5d31010 	ldrb	r1, [r3, #16]
   10134:	e5d34011 	ldrb	r4, [r3, #17]
   10138:	e5d32012 	ldrb	r2, [r3, #18]
   1013c:	e1814404 	orr	r4, r1, r4, lsl #8
   10140:	e5d33013 	ldrb	r3, [r3, #19]
   10144:	e1844802 	orr	r4, r4, r2, lsl #16
   10148:	e1844c03 	orr	r4, r4, r3, lsl #24
   1014c:	e5d42014 	ldrb	r2, [r4, #20]
   10150:	e5d43013 	ldrb	r3, [r4, #19]
   10154:	e5d41015 	ldrb	r1, [r4, #21]
   10158:	e1833402 	orr	r3, r3, r2, lsl #8
   1015c:	e5d42016 	ldrb	r2, [r4, #22]
   10160:	e1833801 	orr	r3, r3, r1, lsl #16
   10164:	e1833c02 	orr	r3, r3, r2, lsl #24
   10168:	e5d31000 	ldrb	r1, [r3]
   1016c:	ebfffb50 	bl	eeb4 <HidReadDevice>
   10170:	e2507000 	subs	r7, r0, #0
   10174:	0a000012 	beq	101c4 <MousePoll+0xbc>
   10178:	e3770009 	cmn	r7, #9
   1017c:	01a00007 	moveq	r0, r7
   10180:	0a00000b 	beq	101b4 <MousePoll+0xac>
   10184:	e7960105 	ldr	r0, [r6, r5, lsl #2]
   10188:	ebffedf8 	bl	b970 <UsbGetDescription>
   1018c:	e3a0102c 	mov	r1, #44	; 0x2c
   10190:	e1a02000 	mov	r2, r0
   10194:	e59f0114 	ldr	r0, [pc, #276]	; 102b0 <MousePoll+0x1a8>
   10198:	ebffeb2b 	bl	ae4c <LogPrintF>
   1019c:	e1a00007 	mov	r0, r7
   101a0:	e1a00c00 	lsl	r0, r0, #24
   101a4:	e1a00c40 	asr	r0, r0, #24
   101a8:	e8bd40f8 	pop	{r3, r4, r5, r6, r7, lr}
   101ac:	e12fff1e 	bx	lr
   101b0:	e3a000f7 	mov	r0, #247	; 0xf7
   101b4:	e1a00c00 	lsl	r0, r0, #24
   101b8:	e1a00c40 	asr	r0, r0, #24
   101bc:	e8bd40f8 	pop	{r3, r4, r5, r6, r7, lr}
   101c0:	e12fff1e 	bx	lr
   101c4:	e5d42014 	ldrb	r2, [r4, #20]
   101c8:	e5d43013 	ldrb	r3, [r4, #19]
   101cc:	e5d41015 	ldrb	r1, [r4, #21]
   101d0:	e1833402 	orr	r3, r3, r2, lsl #8
   101d4:	e5d42016 	ldrb	r2, [r4, #22]
   101d8:	e1833801 	orr	r3, r3, r1, lsl #16
   101dc:	e1833c02 	orr	r3, r3, r2, lsl #24
   101e0:	e5d32003 	ldrb	r2, [r3, #3]
   101e4:	e3520001 	cmp	r2, #1
   101e8:	0a000004 	beq	10200 <MousePoll+0xf8>
   101ec:	e3a00000 	mov	r0, #0
   101f0:	e1a00c00 	lsl	r0, r0, #24
   101f4:	e1a00c40 	asr	r0, r0, #24
   101f8:	e8bd40f8 	pop	{r3, r4, r5, r6, r7, lr}
   101fc:	e12fff1e 	bx	lr
   10200:	e5d31008 	ldrb	r1, [r3, #8]
   10204:	e5932004 	ldr	r2, [r3, #4]
   10208:	e1a03c01 	lsl	r3, r1, #24
   1020c:	e1833422 	orr	r3, r3, r2, lsr #8
   10210:	e5d32000 	ldrb	r2, [r3]
   10214:	e5c4200c 	strb	r2, [r4, #12]
   10218:	e5d4000e 	ldrb	r0, [r4, #14]
   1021c:	e5d4200d 	ldrb	r2, [r4, #13]
   10220:	e1d310d1 	ldrsb	r1, [r3, #1]
   10224:	e1822400 	orr	r2, r2, r0, lsl #8
   10228:	e0822001 	add	r2, r2, r1
   1022c:	e1a02802 	lsl	r2, r2, #16
   10230:	e1a01822 	lsr	r1, r2, #16
   10234:	e1a02c22 	lsr	r2, r2, #24
   10238:	e5c4100d 	strb	r1, [r4, #13]
   1023c:	e5c4200e 	strb	r2, [r4, #14]
   10240:	e5d4c010 	ldrb	ip, [r4, #16]
   10244:	e5d4000f 	ldrb	r0, [r4, #15]
   10248:	e1d320d2 	ldrsb	r2, [r3, #2]
   1024c:	e180040c 	orr	r0, r0, ip, lsl #8
   10250:	e0800002 	add	r0, r0, r2
   10254:	e1a00800 	lsl	r0, r0, #16
   10258:	e1a02820 	lsr	r2, r0, #16
   1025c:	e1a00c20 	lsr	r0, r0, #24
   10260:	e5c4200f 	strb	r2, [r4, #15]
   10264:	e5c40010 	strb	r0, [r4, #16]
   10268:	e5d4c011 	ldrb	ip, [r4, #17]
   1026c:	e5d45012 	ldrb	r5, [r4, #18]
   10270:	e1d300d3 	ldrsb	r0, [r3, #3]
   10274:	e3110902 	tst	r1, #32768	; 0x8000
   10278:	e18c3405 	orr	r3, ip, r5, lsl #8
   1027c:	e0833000 	add	r3, r3, r0
   10280:	15c4700d 	strbne	r7, [r4, #13]
   10284:	15c4700e 	strbne	r7, [r4, #14]
   10288:	e3120902 	tst	r2, #32768	; 0x8000
   1028c:	13a00000 	movne	r0, #0
   10290:	e1a01423 	lsr	r1, r3, #8
   10294:	e5c43011 	strb	r3, [r4, #17]
   10298:	e5c41012 	strb	r1, [r4, #18]
   1029c:	15c4000f 	strbne	r0, [r4, #15]
   102a0:	15c40010 	strbne	r0, [r4, #16]
   102a4:	0affffd0 	beq	101ec <MousePoll+0xe4>
   102a8:	eaffffc1 	b	101b4 <MousePoll+0xac>
   102ac:	0001aea8 	.word	0x0001aea8
   102b0:	00013ce0 	.word	0x00013ce0

000102b4 <MouseGetPositionX>:
   102b4:	e92d4008 	push	{r3, lr}
   102b8:	e2503000 	subs	r3, r0, #0
   102bc:	01a00003 	moveq	r0, r3
   102c0:	0a000010 	beq	10308 <MouseGetPositionX+0x54>
   102c4:	ebffff49 	bl	fff0 <MouseIndex.part.0>
   102c8:	e3700001 	cmn	r0, #1
   102cc:	03a00000 	moveq	r0, #0
   102d0:	0a00000c 	beq	10308 <MouseGetPositionX+0x54>
   102d4:	e59f303c 	ldr	r3, [pc, #60]	; 10318 <MouseGetPositionX+0x64>
   102d8:	e7933100 	ldr	r3, [r3, r0, lsl #2]
   102dc:	e5933414 	ldr	r3, [r3, #1044]	; 0x414
   102e0:	e5d32010 	ldrb	r2, [r3, #16]
   102e4:	e5d31011 	ldrb	r1, [r3, #17]
   102e8:	e5d30012 	ldrb	r0, [r3, #18]
   102ec:	e1821401 	orr	r1, r2, r1, lsl #8
   102f0:	e5d32013 	ldrb	r2, [r3, #19]
   102f4:	e1813800 	orr	r3, r1, r0, lsl #16
   102f8:	e1833c02 	orr	r3, r3, r2, lsl #24
   102fc:	e5d3200d 	ldrb	r2, [r3, #13]
   10300:	e5d3000e 	ldrb	r0, [r3, #14]
   10304:	e1820400 	orr	r0, r2, r0, lsl #8
   10308:	e1a00800 	lsl	r0, r0, #16
   1030c:	e1a00840 	asr	r0, r0, #16
   10310:	e8bd4008 	pop	{r3, lr}
   10314:	e12fff1e 	bx	lr
   10318:	0001aea8 	.word	0x0001aea8

0001031c <MouseGetPositionY>:
   1031c:	e92d4008 	push	{r3, lr}
   10320:	e2503000 	subs	r3, r0, #0
   10324:	01a00003 	moveq	r0, r3
   10328:	0a000010 	beq	10370 <MouseGetPositionY+0x54>
   1032c:	ebffff2f 	bl	fff0 <MouseIndex.part.0>
   10330:	e3700001 	cmn	r0, #1
   10334:	03a00000 	moveq	r0, #0
   10338:	0a00000c 	beq	10370 <MouseGetPositionY+0x54>
   1033c:	e59f303c 	ldr	r3, [pc, #60]	; 10380 <MouseGetPositionY+0x64>
   10340:	e7933100 	ldr	r3, [r3, r0, lsl #2]
   10344:	e5933414 	ldr	r3, [r3, #1044]	; 0x414
   10348:	e5d32010 	ldrb	r2, [r3, #16]
   1034c:	e5d31011 	ldrb	r1, [r3, #17]
   10350:	e5d30012 	ldrb	r0, [r3, #18]
   10354:	e1821401 	orr	r1, r2, r1, lsl #8
   10358:	e5d32013 	ldrb	r2, [r3, #19]
   1035c:	e1813800 	orr	r3, r1, r0, lsl #16
   10360:	e1833c02 	orr	r3, r3, r2, lsl #24
   10364:	e5d3200f 	ldrb	r2, [r3, #15]
   10368:	e5d30010 	ldrb	r0, [r3, #16]
   1036c:	e1820400 	orr	r0, r2, r0, lsl #8
   10370:	e1a00800 	lsl	r0, r0, #16
   10374:	e1a00840 	asr	r0, r0, #16
   10378:	e8bd4008 	pop	{r3, lr}
   1037c:	e12fff1e 	bx	lr
   10380:	0001aea8 	.word	0x0001aea8

00010384 <MouseGetWheel>:
   10384:	e92d4008 	push	{r3, lr}
   10388:	e2503000 	subs	r3, r0, #0
   1038c:	01a00003 	moveq	r0, r3
   10390:	0a000010 	beq	103d8 <MouseGetWheel+0x54>
   10394:	ebffff15 	bl	fff0 <MouseIndex.part.0>
   10398:	e3700001 	cmn	r0, #1
   1039c:	03a00000 	moveq	r0, #0
   103a0:	0a00000c 	beq	103d8 <MouseGetWheel+0x54>
   103a4:	e59f303c 	ldr	r3, [pc, #60]	; 103e8 <MouseGetWheel+0x64>
   103a8:	e7933100 	ldr	r3, [r3, r0, lsl #2]
   103ac:	e5933414 	ldr	r3, [r3, #1044]	; 0x414
   103b0:	e5d32010 	ldrb	r2, [r3, #16]
   103b4:	e5d31011 	ldrb	r1, [r3, #17]
   103b8:	e5d30012 	ldrb	r0, [r3, #18]
   103bc:	e1821401 	orr	r1, r2, r1, lsl #8
   103c0:	e5d32013 	ldrb	r2, [r3, #19]
   103c4:	e1813800 	orr	r3, r1, r0, lsl #16
   103c8:	e1833c02 	orr	r3, r3, r2, lsl #24
   103cc:	e5d32011 	ldrb	r2, [r3, #17]
   103d0:	e5d30012 	ldrb	r0, [r3, #18]
   103d4:	e1820400 	orr	r0, r2, r0, lsl #8
   103d8:	e1a00800 	lsl	r0, r0, #16
   103dc:	e1a00840 	asr	r0, r0, #16
   103e0:	e8bd4008 	pop	{r3, lr}
   103e4:	e12fff1e 	bx	lr
   103e8:	0001aea8 	.word	0x0001aea8

000103ec <MouseGetPosition>:
   103ec:	e92d4008 	push	{r3, lr}
   103f0:	e2503000 	subs	r3, r0, #0
   103f4:	01a00003 	moveq	r0, r3
   103f8:	0a000014 	beq	10450 <MouseGetPosition+0x64>
   103fc:	ebfffefb 	bl	fff0 <MouseIndex.part.0>
   10400:	e3700001 	cmn	r0, #1
   10404:	03a00000 	moveq	r0, #0
   10408:	0a000010 	beq	10450 <MouseGetPosition+0x64>
   1040c:	e59f3044 	ldr	r3, [pc, #68]	; 10458 <MouseGetPosition+0x6c>
   10410:	e7933100 	ldr	r3, [r3, r0, lsl #2]
   10414:	e5932414 	ldr	r2, [r3, #1044]	; 0x414
   10418:	e5d20011 	ldrb	r0, [r2, #17]
   1041c:	e5d23010 	ldrb	r3, [r2, #16]
   10420:	e5d21012 	ldrb	r1, [r2, #18]
   10424:	e1833400 	orr	r3, r3, r0, lsl #8
   10428:	e5d22013 	ldrb	r2, [r2, #19]
   1042c:	e1833801 	orr	r3, r3, r1, lsl #16
   10430:	e1833c02 	orr	r3, r3, r2, lsl #24
   10434:	e5d3200d 	ldrb	r2, [r3, #13]
   10438:	e5d3000e 	ldrb	r0, [r3, #14]
   1043c:	e5d3100f 	ldrb	r1, [r3, #15]
   10440:	e5d3c010 	ldrb	ip, [r3, #16]
   10444:	e1820400 	orr	r0, r2, r0, lsl #8
   10448:	e181340c 	orr	r3, r1, ip, lsl #8
   1044c:	e1830800 	orr	r0, r3, r0, lsl #16
   10450:	e8bd4008 	pop	{r3, lr}
   10454:	e12fff1e 	bx	lr
   10458:	0001aea8 	.word	0x0001aea8

0001045c <MouseGetButtons>:
   1045c:	e92d4008 	push	{r3, lr}
   10460:	e2503000 	subs	r3, r0, #0
   10464:	01a00003 	moveq	r0, r3
   10468:	0a00000e 	beq	104a8 <MouseGetButtons+0x4c>
   1046c:	ebfffedf 	bl	fff0 <MouseIndex.part.0>
   10470:	e3700001 	cmn	r0, #1
   10474:	03a00000 	moveq	r0, #0
   10478:	0a00000a 	beq	104a8 <MouseGetButtons+0x4c>
   1047c:	e59f302c 	ldr	r3, [pc, #44]	; 104b0 <MouseGetButtons+0x54>
   10480:	e7933100 	ldr	r3, [r3, r0, lsl #2]
   10484:	e5933414 	ldr	r3, [r3, #1044]	; 0x414
   10488:	e5d32010 	ldrb	r2, [r3, #16]
   1048c:	e5d31011 	ldrb	r1, [r3, #17]
   10490:	e5d30012 	ldrb	r0, [r3, #18]
   10494:	e1821401 	orr	r1, r2, r1, lsl #8
   10498:	e5d32013 	ldrb	r2, [r3, #19]
   1049c:	e1813800 	orr	r3, r1, r0, lsl #16
   104a0:	e1833c02 	orr	r3, r3, r2, lsl #24
   104a4:	e5d3000c 	ldrb	r0, [r3, #12]
   104a8:	e8bd4008 	pop	{r3, lr}
   104ac:	e12fff1e 	bx	lr
   104b0:	0001aea8 	.word	0x0001aea8

000104b4 <MouseGetButtonIsPressed>:
   104b4:	e2503000 	subs	r3, r0, #0
   104b8:	e92d4010 	push	{r4, lr}
   104bc:	01a00003 	moveq	r0, r3
   104c0:	e1a04001 	mov	r4, r1
   104c4:	0a000016 	beq	10524 <MouseGetButtonIsPressed+0x70>
   104c8:	ebfffec8 	bl	fff0 <MouseIndex.part.0>
   104cc:	e3700001 	cmn	r0, #1
   104d0:	0a000025 	beq	1056c <MouseGetButtonIsPressed+0xb8>
   104d4:	e59f3098 	ldr	r3, [pc, #152]	; 10574 <MouseGetButtonIsPressed+0xc0>
   104d8:	e7933100 	ldr	r3, [r3, r0, lsl #2]
   104dc:	e5933414 	ldr	r3, [r3, #1044]	; 0x414
   104e0:	e5d32010 	ldrb	r2, [r3, #16]
   104e4:	e5d31011 	ldrb	r1, [r3, #17]
   104e8:	e5d30012 	ldrb	r0, [r3, #18]
   104ec:	e1821401 	orr	r1, r2, r1, lsl #8
   104f0:	e5d32013 	ldrb	r2, [r3, #19]
   104f4:	e1813800 	orr	r3, r1, r0, lsl #16
   104f8:	e1833c02 	orr	r3, r3, r2, lsl #24
   104fc:	e3540004 	cmp	r4, #4
   10500:	979ff104 	ldrls	pc, [pc, r4, lsl #2]
   10504:	ea000018 	b	1056c <MouseGetButtonIsPressed+0xb8>
   10508:	0001052c 	.word	0x0001052c
   1050c:	0001053c 	.word	0x0001053c
   10510:	0001054c 	.word	0x0001054c
   10514:	0001055c 	.word	0x0001055c
   10518:	0001051c 	.word	0x0001051c
   1051c:	e5d3000c 	ldrb	r0, [r3, #12]
   10520:	e2000010 	and	r0, r0, #16
   10524:	e8bd4010 	pop	{r4, lr}
   10528:	e12fff1e 	bx	lr
   1052c:	e5d3000c 	ldrb	r0, [r3, #12]
   10530:	e8bd4010 	pop	{r4, lr}
   10534:	e2000001 	and	r0, r0, #1
   10538:	e12fff1e 	bx	lr
   1053c:	e5d3000c 	ldrb	r0, [r3, #12]
   10540:	e8bd4010 	pop	{r4, lr}
   10544:	e2000002 	and	r0, r0, #2
   10548:	e12fff1e 	bx	lr
   1054c:	e5d3000c 	ldrb	r0, [r3, #12]
   10550:	e8bd4010 	pop	{r4, lr}
   10554:	e2000004 	and	r0, r0, #4
   10558:	e12fff1e 	bx	lr
   1055c:	e5d3000c 	ldrb	r0, [r3, #12]
   10560:	e8bd4010 	pop	{r4, lr}
   10564:	e2000008 	and	r0, r0, #8
   10568:	e12fff1e 	bx	lr
   1056c:	e3a00000 	mov	r0, #0
   10570:	eaffffeb 	b	10524 <MouseGetButtonIsPressed+0x70>
   10574:	0001aea8 	.word	0x0001aea8

00010578 <DwcLoad>:
   10578:	e12fff1e 	bx	lr

0001057c <WriteThroughRegMask>:
   1057c:	e59f3078 	ldr	r3, [pc, #120]	; 105fc <WriteThroughRegMask+0x80>
   10580:	e593c000 	ldr	ip, [r3]
   10584:	e59f2074 	ldr	r2, [pc, #116]	; 10600 <WriteThroughRegMask+0x84>
   10588:	e06cc000 	rsb	ip, ip, r0
   1058c:	e15c0002 	cmp	ip, r2
   10590:	9a000014 	bls	105e8 <WriteThroughRegMask+0x6c>
   10594:	e593c004 	ldr	ip, [r3, #4]
   10598:	e06cc000 	rsb	ip, ip, r0
   1059c:	e15c0002 	cmp	ip, r2
   105a0:	8a000009 	bhi	105cc <WriteThroughRegMask+0x50>
   105a4:	e35c0040 	cmp	ip, #64	; 0x40
   105a8:	e59f3054 	ldr	r3, [pc, #84]	; 10604 <WriteThroughRegMask+0x88>
   105ac:	03811a1f 	orreq	r1, r1, #126976	; 0x1f000
   105b0:	e5902000 	ldr	r2, [r0]
   105b4:	03811d05 	orreq	r1, r1, #320	; 0x140
   105b8:	13e01000 	mvnne	r1, #0
   105bc:	e5933000 	ldr	r3, [r3]
   105c0:	e0011002 	and	r1, r1, r2
   105c4:	e783100c 	str	r1, [r3, ip]
   105c8:	e12fff1e 	bx	lr
   105cc:	e5933008 	ldr	r3, [r3, #8]
   105d0:	e1530000 	cmp	r3, r0
   105d4:	059f102c 	ldreq	r1, [pc, #44]	; 10608 <WriteThroughRegMask+0x8c>
   105d8:	05932000 	ldreq	r2, [r3]
   105dc:	05913000 	ldreq	r3, [r1]
   105e0:	05832000 	streq	r2, [r3]
   105e4:	e12fff1e 	bx	lr
   105e8:	e59f301c 	ldr	r3, [pc, #28]	; 1060c <WriteThroughRegMask+0x90>
   105ec:	e5902000 	ldr	r2, [r0]
   105f0:	e5933000 	ldr	r3, [r3]
   105f4:	e783200c 	str	r2, [r3, ip]
   105f8:	e12fff1e 	bx	lr
   105fc:	00016180 	.word	0x00016180
   10600:	000003ff 	.word	0x000003ff
   10604:	0001aebc 	.word	0x0001aebc
   10608:	0001aec0 	.word	0x0001aec0
   1060c:	0001aeb8 	.word	0x0001aeb8

00010610 <WriteThroughReg>:
   10610:	e3a01000 	mov	r1, #0
   10614:	eaffffd8 	b	1057c <WriteThroughRegMask>

00010618 <ReadBackReg>:
   10618:	e59f3084 	ldr	r3, [pc, #132]	; 106a4 <ReadBackReg+0x8c>
   1061c:	e5932000 	ldr	r2, [r3]
   10620:	e59f1080 	ldr	r1, [pc, #128]	; 106a8 <ReadBackReg+0x90>
   10624:	e0622000 	rsb	r2, r2, r0
   10628:	e1520001 	cmp	r2, r1
   1062c:	8a00000c 	bhi	10664 <ReadBackReg+0x4c>
   10630:	e59f3074 	ldr	r3, [pc, #116]	; 106ac <ReadBackReg+0x94>
   10634:	e3520044 	cmp	r2, #68	; 0x44
   10638:	e5933000 	ldr	r3, [r3]
   1063c:	1a000015 	bne	10698 <ReadBackReg+0x80>
   10640:	e5932044 	ldr	r2, [r3, #68]	; 0x44
   10644:	e5802000 	str	r2, [r0]
   10648:	e5932048 	ldr	r2, [r3, #72]	; 0x48
   1064c:	e5802004 	str	r2, [r0, #4]
   10650:	e593204c 	ldr	r2, [r3, #76]	; 0x4c
   10654:	e5802008 	str	r2, [r0, #8]
   10658:	e5933050 	ldr	r3, [r3, #80]	; 0x50
   1065c:	e580300c 	str	r3, [r0, #12]
   10660:	e12fff1e 	bx	lr
   10664:	e5932004 	ldr	r2, [r3, #4]
   10668:	e0622000 	rsb	r2, r2, r0
   1066c:	e1520001 	cmp	r2, r1
   10670:	9a000006 	bls	10690 <ReadBackReg+0x78>
   10674:	e5933008 	ldr	r3, [r3, #8]
   10678:	e1530000 	cmp	r3, r0
   1067c:	059f202c 	ldreq	r2, [pc, #44]	; 106b0 <ReadBackReg+0x98>
   10680:	05922000 	ldreq	r2, [r2]
   10684:	05922000 	ldreq	r2, [r2]
   10688:	05832000 	streq	r2, [r3]
   1068c:	e12fff1e 	bx	lr
   10690:	e59f301c 	ldr	r3, [pc, #28]	; 106b4 <ReadBackReg+0x9c>
   10694:	e5933000 	ldr	r3, [r3]
   10698:	e7933002 	ldr	r3, [r3, r2]
   1069c:	e5803000 	str	r3, [r0]
   106a0:	e12fff1e 	bx	lr
   106a4:	00016180 	.word	0x00016180
   106a8:	000003ff 	.word	0x000003ff
   106ac:	0001aeb8 	.word	0x0001aeb8
   106b0:	0001aec0 	.word	0x0001aec0
   106b4:	0001aebc 	.word	0x0001aebc

000106b8 <ClearReg>:
   106b8:	e59f3058 	ldr	r3, [pc, #88]	; 10718 <ClearReg+0x60>
   106bc:	e5931000 	ldr	r1, [r3]
   106c0:	e59f2054 	ldr	r2, [pc, #84]	; 1071c <ClearReg+0x64>
   106c4:	e0611000 	rsb	r1, r1, r0
   106c8:	e1510002 	cmp	r1, r2
   106cc:	8a000006 	bhi	106ec <ClearReg+0x34>
   106d0:	e3a03000 	mov	r3, #0
   106d4:	e3510044 	cmp	r1, #68	; 0x44
   106d8:	e5803000 	str	r3, [r0]
   106dc:	05803004 	streq	r3, [r0, #4]
   106e0:	05803008 	streq	r3, [r0, #8]
   106e4:	0580300c 	streq	r3, [r0, #12]
   106e8:	e12fff1e 	bx	lr
   106ec:	e5931004 	ldr	r1, [r3, #4]
   106f0:	e0611000 	rsb	r1, r1, r0
   106f4:	e1510002 	cmp	r1, r2
   106f8:	93a03000 	movls	r3, #0
   106fc:	95803000 	strls	r3, [r0]
   10700:	912fff1e 	bxls	lr
   10704:	e5933008 	ldr	r3, [r3, #8]
   10708:	e1530000 	cmp	r3, r0
   1070c:	03a02000 	moveq	r2, #0
   10710:	05832000 	streq	r2, [r3]
   10714:	e12fff1e 	bx	lr
   10718:	00016180 	.word	0x00016180
   1071c:	000003ff 	.word	0x000003ff

00010720 <SetReg>:
   10720:	e59f3080 	ldr	r3, [pc, #128]	; 107a8 <SetReg+0x88>
   10724:	e5931000 	ldr	r1, [r3]
   10728:	e59f207c 	ldr	r2, [pc, #124]	; 107ac <SetReg+0x8c>
   1072c:	e0611000 	rsb	r1, r1, r0
   10730:	e1510002 	cmp	r1, r2
   10734:	8a000006 	bhi	10754 <SetReg+0x34>
   10738:	e3e03000 	mvn	r3, #0
   1073c:	e3510044 	cmp	r1, #68	; 0x44
   10740:	e5803000 	str	r3, [r0]
   10744:	05803004 	streq	r3, [r0, #4]
   10748:	05803008 	streq	r3, [r0, #8]
   1074c:	0580300c 	streq	r3, [r0, #12]
   10750:	e12fff1e 	bx	lr
   10754:	e5931004 	ldr	r1, [r3, #4]
   10758:	e0611000 	rsb	r1, r1, r0
   1075c:	e1510002 	cmp	r1, r2
   10760:	8a00000b 	bhi	10794 <SetReg+0x74>
   10764:	e2413c01 	sub	r3, r1, #256	; 0x100
   10768:	e59f2040 	ldr	r2, [pc, #64]	; 107b0 <SetReg+0x90>
   1076c:	e2433001 	sub	r3, r3, #1
   10770:	e1530002 	cmp	r3, r2
   10774:	83e03000 	mvnhi	r3, #0
   10778:	8a000003 	bhi	1078c <SetReg+0x6c>
   1077c:	e201101f 	and	r1, r1, #31
   10780:	e59f302c 	ldr	r3, [pc, #44]	; 107b4 <SetReg+0x94>
   10784:	e3510008 	cmp	r1, #8
   10788:	13e03000 	mvnne	r3, #0
   1078c:	e5803000 	str	r3, [r0]
   10790:	e12fff1e 	bx	lr
   10794:	e5933008 	ldr	r3, [r3, #8]
   10798:	e1530000 	cmp	r3, r0
   1079c:	03e02000 	mvneq	r2, #0
   107a0:	05832000 	streq	r2, [r3]
   107a4:	e12fff1e 	bx	lr
   107a8:	00016180 	.word	0x00016180
   107ac:	000003ff 	.word	0x000003ff
   107b0:	000001fe 	.word	0x000001fe
   107b4:	00003fff 	.word	0x00003fff

000107b8 <HcdReset>:
   107b8:	e92d4070 	push	{r4, r5, r6, lr}
   107bc:	e59f50c0 	ldr	r5, [pc, #192]	; 10884 <HcdReset+0xcc>
   107c0:	e5950000 	ldr	r0, [r5]
   107c4:	e2800010 	add	r0, r0, #16
   107c8:	ebffff92 	bl	10618 <ReadBackReg>
   107cc:	e3a04601 	mov	r4, #1048576	; 0x100000
   107d0:	ea000002 	b	107e0 <HcdReset+0x28>
   107d4:	ebffff8f 	bl	10618 <ReadBackReg>
   107d8:	e2544001 	subs	r4, r4, #1
   107dc:	0a000020 	beq	10864 <HcdReset+0xac>
   107e0:	e5953000 	ldr	r3, [r5]
   107e4:	e5d32013 	ldrb	r2, [r3, #19]
   107e8:	e1b023a2 	lsrs	r2, r2, #7
   107ec:	e2830010 	add	r0, r3, #16
   107f0:	e59f608c 	ldr	r6, [pc, #140]	; 10884 <HcdReset+0xcc>
   107f4:	0afffff6 	beq	107d4 <HcdReset+0x1c>
   107f8:	e5d32010 	ldrb	r2, [r3, #16]
   107fc:	e1a00003 	mov	r0, r3
   10800:	e3823001 	orr	r3, r2, #1
   10804:	e5e03010 	strb	r3, [r0, #16]!
   10808:	e3a01000 	mov	r1, #0
   1080c:	ebffff5a 	bl	1057c <WriteThroughRegMask>
   10810:	e5960000 	ldr	r0, [r6]
   10814:	e2800010 	add	r0, r0, #16
   10818:	ebffff7e 	bl	10618 <ReadBackReg>
   1081c:	e3a04601 	mov	r4, #1048576	; 0x100000
   10820:	ea000002 	b	10830 <HcdReset+0x78>
   10824:	ebffff7b 	bl	10618 <ReadBackReg>
   10828:	e2544001 	subs	r4, r4, #1
   1082c:	0a00000c 	beq	10864 <HcdReset+0xac>
   10830:	e5953000 	ldr	r3, [r5]
   10834:	e5d32010 	ldrb	r2, [r3, #16]
   10838:	e3120001 	tst	r2, #1
   1083c:	e2830010 	add	r0, r3, #16
   10840:	1afffff7 	bne	10824 <HcdReset+0x6c>
   10844:	e5d33013 	ldrb	r3, [r3, #19]
   10848:	e1b033a3 	lsrs	r3, r3, #7
   1084c:	0afffff4 	beq	10824 <HcdReset+0x6c>
   10850:	e3a00000 	mov	r0, #0
   10854:	e1a00c00 	lsl	r0, r0, #24
   10858:	e1a00c40 	asr	r0, r0, #24
   1085c:	e8bd4070 	pop	{r4, r5, r6, lr}
   10860:	e12fff1e 	bx	lr
   10864:	e59f001c 	ldr	r0, [pc, #28]	; 10888 <HcdReset+0xd0>
   10868:	e3a01013 	mov	r1, #19
   1086c:	ebffebc4 	bl	b784 <LogPrint>
   10870:	e3a000fc 	mov	r0, #252	; 0xfc
   10874:	e1a00c00 	lsl	r0, r0, #24
   10878:	e1a00c40 	asr	r0, r0, #24
   1087c:	e8bd4070 	pop	{r4, r5, r6, lr}
   10880:	e12fff1e 	bx	lr
   10884:	00016180 	.word	0x00016180
   10888:	00013d0c 	.word	0x00013d0c

0001088c <HcdTransmitFifoFlush>:
   1088c:	e92d4038 	push	{r3, r4, r5, lr}
   10890:	e59f50a4 	ldr	r5, [pc, #164]	; 1093c <HcdTransmitFifoFlush+0xb0>
   10894:	e5953000 	ldr	r3, [r5]
   10898:	e1a04000 	mov	r4, r0
   1089c:	e2830010 	add	r0, r3, #16
   108a0:	ebffff84 	bl	106b8 <ClearReg>
   108a4:	e5953000 	ldr	r3, [r5]
   108a8:	e5d32010 	ldrb	r2, [r3, #16]
   108ac:	e204401f 	and	r4, r4, #31
   108b0:	e202203f 	and	r2, r2, #63	; 0x3f
   108b4:	e1824304 	orr	r4, r2, r4, lsl #6
   108b8:	e5c34010 	strb	r4, [r3, #16]
   108bc:	e5d32010 	ldrb	r2, [r3, #16]
   108c0:	e1a00003 	mov	r0, r3
   108c4:	e3823020 	orr	r3, r2, #32
   108c8:	e5e03010 	strb	r3, [r0, #16]!
   108cc:	e3a01000 	mov	r1, #0
   108d0:	ebffff29 	bl	1057c <WriteThroughRegMask>
   108d4:	e5950000 	ldr	r0, [r5]
   108d8:	e2800010 	add	r0, r0, #16
   108dc:	ebffff4d 	bl	10618 <ReadBackReg>
   108e0:	e3a04601 	mov	r4, #1048576	; 0x100000
   108e4:	ea000002 	b	108f4 <HcdTransmitFifoFlush+0x68>
   108e8:	ebffff4a 	bl	10618 <ReadBackReg>
   108ec:	e2544001 	subs	r4, r4, #1
   108f0:	0a000009 	beq	1091c <HcdTransmitFifoFlush+0x90>
   108f4:	e5950000 	ldr	r0, [r5]
   108f8:	e5d03010 	ldrb	r3, [r0, #16]
   108fc:	e3130020 	tst	r3, #32
   10900:	e2800010 	add	r0, r0, #16
   10904:	1afffff7 	bne	108e8 <HcdTransmitFifoFlush+0x5c>
   10908:	e3a00000 	mov	r0, #0
   1090c:	e1a00c00 	lsl	r0, r0, #24
   10910:	e1a00c40 	asr	r0, r0, #24
   10914:	e8bd4038 	pop	{r3, r4, r5, lr}
   10918:	e12fff1e 	bx	lr
   1091c:	e59f001c 	ldr	r0, [pc, #28]	; 10940 <HcdTransmitFifoFlush+0xb4>
   10920:	e3a01013 	mov	r1, #19
   10924:	ebffeb96 	bl	b784 <LogPrint>
   10928:	e3a000fc 	mov	r0, #252	; 0xfc
   1092c:	e1a00c00 	lsl	r0, r0, #24
   10930:	e1a00c40 	asr	r0, r0, #24
   10934:	e8bd4038 	pop	{r3, r4, r5, lr}
   10938:	e12fff1e 	bx	lr
   1093c:	00016180 	.word	0x00016180
   10940:	00013d0c 	.word	0x00013d0c

00010944 <HcdReceiveFifoFlush>:
   10944:	e92d4038 	push	{r3, r4, r5, lr}
   10948:	e59f5088 	ldr	r5, [pc, #136]	; 109d8 <HcdReceiveFifoFlush+0x94>
   1094c:	e5950000 	ldr	r0, [r5]
   10950:	e2800010 	add	r0, r0, #16
   10954:	ebffff57 	bl	106b8 <ClearReg>
   10958:	e5950000 	ldr	r0, [r5]
   1095c:	e5d03010 	ldrb	r3, [r0, #16]
   10960:	e3833010 	orr	r3, r3, #16
   10964:	e5e03010 	strb	r3, [r0, #16]!
   10968:	e3a01000 	mov	r1, #0
   1096c:	ebffff02 	bl	1057c <WriteThroughRegMask>
   10970:	e5950000 	ldr	r0, [r5]
   10974:	e2800010 	add	r0, r0, #16
   10978:	ebffff26 	bl	10618 <ReadBackReg>
   1097c:	e3a04601 	mov	r4, #1048576	; 0x100000
   10980:	ea000002 	b	10990 <HcdReceiveFifoFlush+0x4c>
   10984:	ebffff23 	bl	10618 <ReadBackReg>
   10988:	e2544001 	subs	r4, r4, #1
   1098c:	0a000009 	beq	109b8 <HcdReceiveFifoFlush+0x74>
   10990:	e5950000 	ldr	r0, [r5]
   10994:	e5d03010 	ldrb	r3, [r0, #16]
   10998:	e3130010 	tst	r3, #16
   1099c:	e2800010 	add	r0, r0, #16
   109a0:	1afffff7 	bne	10984 <HcdReceiveFifoFlush+0x40>
   109a4:	e3a00000 	mov	r0, #0
   109a8:	e1a00c00 	lsl	r0, r0, #24
   109ac:	e1a00c40 	asr	r0, r0, #24
   109b0:	e8bd4038 	pop	{r3, r4, r5, lr}
   109b4:	e12fff1e 	bx	lr
   109b8:	e59f001c 	ldr	r0, [pc, #28]	; 109dc <HcdReceiveFifoFlush+0x98>
   109bc:	e3a01013 	mov	r1, #19
   109c0:	ebffeb6f 	bl	b784 <LogPrint>
   109c4:	e3a000fc 	mov	r0, #252	; 0xfc
   109c8:	e1a00c00 	lsl	r0, r0, #24
   109cc:	e1a00c40 	asr	r0, r0, #24
   109d0:	e8bd4038 	pop	{r3, r4, r5, lr}
   109d4:	e12fff1e 	bx	lr
   109d8:	00016180 	.word	0x00016180
   109dc:	00013d0c 	.word	0x00013d0c

000109e0 <HcdPrepareChannel>:
   109e0:	e92d4ff8 	push	{r3, r4, r5, r6, r7, r8, r9, sl, fp, lr}
   109e4:	e59f52e4 	ldr	r5, [pc, #740]	; 10cd0 <HcdPrepareChannel+0x2f0>
   109e8:	e595c000 	ldr	ip, [r5]
   109ec:	e59cc048 	ldr	ip, [ip, #72]	; 0x48
   109f0:	e1a0c72c 	lsr	ip, ip, #14
   109f4:	e20cc00f 	and	ip, ip, #15
   109f8:	e151000c 	cmp	r1, ip
   109fc:	e1a04001 	mov	r4, r1
   10a00:	e1a0a000 	mov	sl, r0
   10a04:	e1a08002 	mov	r8, r2
   10a08:	e1a09003 	mov	r9, r3
   10a0c:	e59d7028 	ldr	r7, [sp, #40]	; 0x28
   10a10:	ca0000a8 	bgt	10cb8 <HcdPrepareChannel+0x2d8>
   10a14:	e1a06281 	lsl	r6, r1, #5
   10a18:	e5950004 	ldr	r0, [r5, #4]
   10a1c:	e286bf42 	add	fp, r6, #264	; 0x108
   10a20:	e080000b 	add	r0, r0, fp
   10a24:	ebffff3d 	bl	10720 <SetReg>
   10a28:	e5950004 	ldr	r0, [r5, #4]
   10a2c:	e3a01000 	mov	r1, #0
   10a30:	e080000b 	add	r0, r0, fp
   10a34:	ebfffed0 	bl	1057c <WriteThroughRegMask>
   10a38:	e2844008 	add	r4, r4, #8
   10a3c:	e5950004 	ldr	r0, [r5, #4]
   10a40:	e1a0b284 	lsl	fp, r4, #5
   10a44:	e080000b 	add	r0, r0, fp
   10a48:	ebffff1a 	bl	106b8 <ClearReg>
   10a4c:	e5950004 	ldr	r0, [r5, #4]
   10a50:	e5d72001 	ldrb	r2, [r7, #1]
   10a54:	e7903284 	ldr	r3, [r0, r4, lsl #5]
   10a58:	e202207f 	and	r2, r2, #127	; 0x7f
   10a5c:	e3c3357f 	bic	r3, r3, #532676608	; 0x1fc00000
   10a60:	e1833b02 	orr	r3, r3, r2, lsl #22
   10a64:	e7803284 	str	r3, [r0, r4, lsl #5]
   10a68:	e080100b 	add	r1, r0, fp
   10a6c:	e5d12001 	ldrb	r2, [r1, #1]
   10a70:	e5d73000 	ldrb	r3, [r7]
   10a74:	e3c22078 	bic	r2, r2, #120	; 0x78
   10a78:	e1a0c223 	lsr	ip, r3, #4
   10a7c:	e182218c 	orr	r2, r2, ip, lsl #3
   10a80:	e5c12001 	strb	r2, [r1, #1]
   10a84:	e5d72002 	ldrb	r2, [r7, #2]
   10a88:	e5d1e001 	ldrb	lr, [r1, #1]
   10a8c:	e1a0c282 	lsl	ip, r2, #5
   10a90:	e3cee080 	bic	lr, lr, #128	; 0x80
   10a94:	e20cc080 	and	ip, ip, #128	; 0x80
   10a98:	e18cc00e 	orr	ip, ip, lr
   10a9c:	e5c1c001 	strb	ip, [r1, #1]
   10aa0:	e1a0c123 	lsr	ip, r3, #2
   10aa4:	e20cc003 	and	ip, ip, #3
   10aa8:	e5d1e002 	ldrb	lr, [r1, #2]
   10aac:	e25cb002 	subs	fp, ip, #2
   10ab0:	e27bc000 	rsbs	ip, fp, #0
   10ab4:	e0bcc00b 	adcs	ip, ip, fp
   10ab8:	e3cee002 	bic	lr, lr, #2
   10abc:	e18ec08c 	orr	ip, lr, ip, lsl #1
   10ac0:	e5c1c002 	strb	ip, [r1, #2]
   10ac4:	e5d1c002 	ldrb	ip, [r1, #2]
   10ac8:	e2022003 	and	r2, r2, #3
   10acc:	e3ccc00c 	bic	ip, ip, #12
   10ad0:	e2133003 	ands	r3, r3, #3
   10ad4:	e18c2102 	orr	r2, ip, r2, lsl #2
   10ad8:	e5c12002 	strb	r2, [r1, #2]
   10adc:	03a03008 	moveq	r3, #8
   10ae0:	0a000005 	beq	10afc <HcdPrepareChannel+0x11c>
   10ae4:	e3530001 	cmp	r3, #1
   10ae8:	03a03010 	moveq	r3, #16
   10aec:	0a000002 	beq	10afc <HcdPrepareChannel+0x11c>
   10af0:	e3530002 	cmp	r3, #2
   10af4:	13a03040 	movne	r3, #64	; 0x40
   10af8:	03a03020 	moveq	r3, #32
   10afc:	e7902284 	ldr	r2, [r0, r4, lsl #5]
   10b00:	e3c22e7f 	bic	r2, r2, #2032	; 0x7f0
   10b04:	e3c2200f 	bic	r2, r2, #15
   10b08:	e1823003 	orr	r3, r2, r3
   10b0c:	e7803284 	str	r3, [r0, r4, lsl #5]
   10b10:	e1a0b284 	lsl	fp, r4, #5
   10b14:	e080000b 	add	r0, r0, fp
   10b18:	e5d03003 	ldrb	r3, [r0, #3]
   10b1c:	e3c33080 	bic	r3, r3, #128	; 0x80
   10b20:	e5c03003 	strb	r3, [r0, #3]
   10b24:	e5d03003 	ldrb	r3, [r0, #3]
   10b28:	e3c33040 	bic	r3, r3, #64	; 0x40
   10b2c:	e5c03003 	strb	r3, [r0, #3]
   10b30:	e3a01000 	mov	r1, #0
   10b34:	ebfffe90 	bl	1057c <WriteThroughRegMask>
   10b38:	e5950004 	ldr	r0, [r5, #4]
   10b3c:	e080000b 	add	r0, r0, fp
   10b40:	e2800004 	add	r0, r0, #4
   10b44:	ebfffedb 	bl	106b8 <ClearReg>
   10b48:	e5d73000 	ldrb	r3, [r7]
   10b4c:	e313000c 	tst	r3, #12
   10b50:	e59f3178 	ldr	r3, [pc, #376]	; 10cd0 <HcdPrepareChannel+0x2f0>
   10b54:	e5930004 	ldr	r0, [r3, #4]
   10b58:	1a00003b 	bne	10c4c <HcdPrepareChannel+0x26c>
   10b5c:	e0800284 	add	r0, r0, r4, lsl #5
   10b60:	e2800004 	add	r0, r0, #4
   10b64:	e3a01000 	mov	r1, #0
   10b68:	ebfffe83 	bl	1057c <WriteThroughRegMask>
   10b6c:	e5950004 	ldr	r0, [r5, #4]
   10b70:	e2863e11 	add	r3, r6, #272	; 0x110
   10b74:	e0800003 	add	r0, r0, r3
   10b78:	ebfffece 	bl	106b8 <ClearReg>
   10b7c:	e5955004 	ldr	r5, [r5, #4]
   10b80:	e085a006 	add	sl, r5, r6
   10b84:	e59a2110 	ldr	r2, [sl, #272]	; 0x110
   10b88:	e3c834ff 	bic	r3, r8, #-16777216	; 0xff000000
   10b8c:	e1a029a2 	lsr	r2, r2, #19
   10b90:	e3c3373e 	bic	r3, r3, #16252928	; 0xf80000
   10b94:	e1833982 	orr	r3, r3, r2, lsl #19
   10b98:	e58a3110 	str	r3, [sl, #272]	; 0x110
   10b9c:	e5d73000 	ldrb	r3, [r7]
   10ba0:	e1a03123 	lsr	r3, r3, #2
   10ba4:	e2033003 	and	r3, r3, #3
   10ba8:	e3530002 	cmp	r3, #2
   10bac:	0a000038 	beq	10c94 <HcdPrepareChannel+0x2b4>
   10bb0:	e7950284 	ldr	r0, [r5, r4, lsl #5]
   10bb4:	e7951284 	ldr	r1, [r5, r4, lsl #5]
   10bb8:	e1a00a80 	lsl	r0, r0, #21
   10bbc:	e1a00aa0 	lsr	r0, r0, #21
   10bc0:	e2400001 	sub	r0, r0, #1
   10bc4:	e1a01a81 	lsl	r1, r1, #21
   10bc8:	e0800008 	add	r0, r0, r8
   10bcc:	e1a01aa1 	lsr	r1, r1, #21
   10bd0:	ebffeb14 	bl	b828 <__aeabi_uidiv>
   10bd4:	e59a3110 	ldr	r3, [sl, #272]	; 0x110
   10bd8:	e3c3357f 	bic	r3, r3, #532676608	; 0x1fc00000
   10bdc:	e1a00b00 	lsl	r0, r0, #22
   10be0:	e3c3370e 	bic	r3, r3, #3670016	; 0x380000
   10be4:	e18331a0 	orr	r3, r3, r0, lsr #3
   10be8:	e58a3110 	str	r3, [sl, #272]	; 0x110
   10bec:	e0853006 	add	r3, r5, r6
   10bf0:	e5932110 	ldr	r2, [r3, #272]	; 0x110
   10bf4:	e1a02182 	lsl	r2, r2, #3
   10bf8:	e1b02b22 	lsrs	r2, r2, #22
   10bfc:	05932110 	ldreq	r2, [r3, #272]	; 0x110
   10c00:	03c2257f 	biceq	r2, r2, #532676608	; 0x1fc00000
   10c04:	03c2270e 	biceq	r2, r2, #3670016	; 0x380000
   10c08:	03822702 	orreq	r2, r2, #524288	; 0x80000
   10c0c:	05832110 	streq	r2, [r3, #272]	; 0x110
   10c10:	e0853006 	add	r3, r5, r6
   10c14:	e5d32113 	ldrb	r2, [r3, #275]	; 0x113
   10c18:	e2099003 	and	r9, r9, #3
   10c1c:	e3c22060 	bic	r2, r2, #96	; 0x60
   10c20:	e1829289 	orr	r9, r2, r9, lsl #5
   10c24:	e2860e11 	add	r0, r6, #272	; 0x110
   10c28:	e0850000 	add	r0, r5, r0
   10c2c:	e5c39113 	strb	r9, [r3, #275]	; 0x113
   10c30:	e3a01000 	mov	r1, #0
   10c34:	ebfffe50 	bl	1057c <WriteThroughRegMask>
   10c38:	e3a00000 	mov	r0, #0
   10c3c:	e1a00c00 	lsl	r0, r0, #24
   10c40:	e1a00c40 	asr	r0, r0, #24
   10c44:	e8bd4ff8 	pop	{r3, r4, r5, r6, r7, r8, r9, sl, fp, lr}
   10c48:	e12fff1e 	bx	lr
   10c4c:	e080b00b 	add	fp, r0, fp
   10c50:	e5db2007 	ldrb	r2, [fp, #7]
   10c54:	e3822080 	orr	r2, r2, #128	; 0x80
   10c58:	e5cb2007 	strb	r2, [fp, #7]
   10c5c:	e59a340c 	ldr	r3, [sl, #1036]	; 0x40c
   10c60:	e59b2004 	ldr	r2, [fp, #4]
   10c64:	e5933000 	ldr	r3, [r3]
   10c68:	e3c22dfe 	bic	r2, r2, #16256	; 0x3f80
   10c6c:	e203307f 	and	r3, r3, #127	; 0x7f
   10c70:	e1823383 	orr	r3, r2, r3, lsl #7
   10c74:	e58b3004 	str	r3, [fp, #4]
   10c78:	e5da2007 	ldrb	r2, [sl, #7]
   10c7c:	e5db3004 	ldrb	r3, [fp, #4]
   10c80:	e202207f 	and	r2, r2, #127	; 0x7f
   10c84:	e3c3307f 	bic	r3, r3, #127	; 0x7f
   10c88:	e1823003 	orr	r3, r2, r3
   10c8c:	e5cb3004 	strb	r3, [fp, #4]
   10c90:	eaffffb1 	b	10b5c <HcdPrepareChannel+0x17c>
   10c94:	e59a3110 	ldr	r3, [sl, #272]	; 0x110
   10c98:	e2888007 	add	r8, r8, #7
   10c9c:	e1a08988 	lsl	r8, r8, #19
   10ca0:	e3c3357f 	bic	r3, r3, #532676608	; 0x1fc00000
   10ca4:	e1a08b28 	lsr	r8, r8, #22
   10ca8:	e3c3370e 	bic	r3, r3, #3670016	; 0x380000
   10cac:	e1838988 	orr	r8, r3, r8, lsl #19
   10cb0:	e58a8110 	str	r8, [sl, #272]	; 0x110
   10cb4:	eaffffcc 	b	10bec <HcdPrepareChannel+0x20c>
   10cb8:	e1a02001 	mov	r2, r1
   10cbc:	e59f0010 	ldr	r0, [pc, #16]	; 10cd4 <HcdPrepareChannel+0x2f4>
   10cc0:	e3a01030 	mov	r1, #48	; 0x30
   10cc4:	ebffe860 	bl	ae4c <LogPrintF>
   10cc8:	e3a000fe 	mov	r0, #254	; 0xfe
   10ccc:	eaffffda 	b	10c3c <HcdPrepareChannel+0x25c>
   10cd0:	00016180 	.word	0x00016180
   10cd4:	00013d20 	.word	0x00013d20

00010cd8 <HcdTransmitChannel>:
   10cd8:	e92d40f8 	push	{r3, r4, r5, r6, r7, lr}
   10cdc:	e59f40a8 	ldr	r4, [pc, #168]	; 10d8c <HcdTransmitChannel+0xb4>
   10ce0:	e1a06000 	mov	r6, r0
   10ce4:	e2805008 	add	r5, r0, #8
   10ce8:	e5940004 	ldr	r0, [r4, #4]
   10cec:	e1a05285 	lsl	r5, r5, #5
   10cf0:	e0800005 	add	r0, r0, r5
   10cf4:	e2800004 	add	r0, r0, #4
   10cf8:	e1a07001 	mov	r7, r1
   10cfc:	ebfffe45 	bl	10618 <ReadBackReg>
   10d00:	e5943004 	ldr	r3, [r4, #4]
   10d04:	e0833005 	add	r3, r3, r5
   10d08:	e2830004 	add	r0, r3, #4
   10d0c:	e5d02002 	ldrb	r2, [r0, #2]
   10d10:	e3c22001 	bic	r2, r2, #1
   10d14:	e5c02002 	strb	r2, [r0, #2]
   10d18:	e3a01000 	mov	r1, #0
   10d1c:	ebfffe16 	bl	1057c <WriteThroughRegMask>
   10d20:	e5940004 	ldr	r0, [r4, #4]
   10d24:	e1a06286 	lsl	r6, r6, #5
   10d28:	e0803006 	add	r3, r0, r6
   10d2c:	e3a06000 	mov	r6, #0
   10d30:	e5932114 	ldr	r2, [r3, #276]	; 0x114
   10d34:	e2830f45 	add	r0, r3, #276	; 0x114
   10d38:	e5837114 	str	r7, [r3, #276]	; 0x114
   10d3c:	e1a01006 	mov	r1, r6
   10d40:	ebfffe0d 	bl	1057c <WriteThroughRegMask>
   10d44:	e5940004 	ldr	r0, [r4, #4]
   10d48:	e0800005 	add	r0, r0, r5
   10d4c:	ebfffe31 	bl	10618 <ReadBackReg>
   10d50:	e5940004 	ldr	r0, [r4, #4]
   10d54:	e0800005 	add	r0, r0, r5
   10d58:	e5d03002 	ldrb	r3, [r0, #2]
   10d5c:	e3c33020 	bic	r3, r3, #32
   10d60:	e3833010 	orr	r3, r3, #16
   10d64:	e5c03002 	strb	r3, [r0, #2]
   10d68:	e5d03003 	ldrb	r3, [r0, #3]
   10d6c:	e3833080 	orr	r3, r3, #128	; 0x80
   10d70:	e5c03003 	strb	r3, [r0, #3]
   10d74:	e5d03003 	ldrb	r3, [r0, #3]
   10d78:	e3c33040 	bic	r3, r3, #64	; 0x40
   10d7c:	e1a01006 	mov	r1, r6
   10d80:	e5c03003 	strb	r3, [r0, #3]
   10d84:	e8bd40f8 	pop	{r3, r4, r5, r6, r7, lr}
   10d88:	eafffdfb 	b	1057c <WriteThroughRegMask>
   10d8c:	00016180 	.word	0x00016180

00010d90 <HcdChannelInterruptToError>:
   10d90:	e92d4030 	push	{r4, r5, lr}
   10d94:	e20130ff 	and	r3, r1, #255	; 0xff
   10d98:	e24dd00c 	sub	sp, sp, #12
   10d9c:	e3130004 	tst	r3, #4
   10da0:	e1a05000 	mov	r5, r0
   10da4:	e58d1004 	str	r1, [sp, #4]
   10da8:	e1a04002 	mov	r4, r2
   10dac:	1a000026 	bne	10e4c <HcdChannelInterruptToError+0xbc>
   10db0:	e3130008 	tst	r3, #8
   10db4:	1a00002b 	bne	10e68 <HcdChannelInterruptToError+0xd8>
   10db8:	e1a01223 	lsr	r1, r3, #4
   10dbc:	e211c001 	ands	ip, r1, #1
   10dc0:	1a00002f 	bne	10e84 <HcdChannelInterruptToError+0xf4>
   10dc4:	e3130020 	tst	r3, #32
   10dc8:	0a000019 	beq	10e34 <HcdChannelInterruptToError+0xa4>
   10dcc:	e3130040 	tst	r3, #64	; 0x40
   10dd0:	1a000032 	bne	10ea0 <HcdChannelInterruptToError+0x110>
   10dd4:	e5dd1005 	ldrb	r1, [sp, #5]
   10dd8:	e3110001 	tst	r1, #1
   10ddc:	1a000036 	bne	10ebc <HcdChannelInterruptToError+0x12c>
   10de0:	e3110002 	tst	r1, #2
   10de4:	1a00003b 	bne	10ed8 <HcdChannelInterruptToError+0x148>
   10de8:	e3110004 	tst	r1, #4
   10dec:	1a000040 	bne	10ef4 <HcdChannelInterruptToError+0x164>
   10df0:	e1b023a3 	lsrs	r2, r3, #7
   10df4:	1a000045 	bne	10f10 <HcdChannelInterruptToError+0x180>
   10df8:	e3130001 	tst	r3, #1
   10dfc:	0a000005 	beq	10e18 <HcdChannelInterruptToError+0x88>
   10e00:	e1a0000c 	mov	r0, ip
   10e04:	e1a00c00 	lsl	r0, r0, #24
   10e08:	e1a00c40 	asr	r0, r0, #24
   10e0c:	e28dd00c 	add	sp, sp, #12
   10e10:	e8bd4030 	pop	{r4, r5, lr}
   10e14:	e12fff1e 	bx	lr
   10e18:	e3540000 	cmp	r4, #0
   10e1c:	0afffff7 	beq	10e00 <HcdChannelInterruptToError+0x70>
   10e20:	e59f0104 	ldr	r0, [pc, #260]	; 10f2c <HcdChannelInterruptToError+0x19c>
   10e24:	e3a01021 	mov	r1, #33	; 0x21
   10e28:	ebffea55 	bl	b784 <LogPrint>
   10e2c:	e3a000f8 	mov	r0, #248	; 0xf8
   10e30:	eafffff3 	b	10e04 <HcdChannelInterruptToError+0x74>
   10e34:	e59f00f4 	ldr	r0, [pc, #244]	; 10f30 <HcdChannelInterruptToError+0x1a0>
   10e38:	e3a01025 	mov	r1, #37	; 0x25
   10e3c:	ebffea50 	bl	b784 <LogPrint>
   10e40:	e3a0c0f8 	mov	ip, #248	; 0xf8
   10e44:	e5dd3004 	ldrb	r3, [sp, #4]
   10e48:	eaffffdf 	b	10dcc <HcdChannelInterruptToError+0x3c>
   10e4c:	e3a03c01 	mov	r3, #256	; 0x100
   10e50:	e5803008 	str	r3, [r0, #8]
   10e54:	e3a0101d 	mov	r1, #29
   10e58:	e59f00d4 	ldr	r0, [pc, #212]	; 10f34 <HcdChannelInterruptToError+0x1a4>
   10e5c:	ebffea48 	bl	b784 <LogPrint>
   10e60:	e3a000fc 	mov	r0, #252	; 0xfc
   10e64:	eaffffe6 	b	10e04 <HcdChannelInterruptToError+0x74>
   10e68:	e3a03002 	mov	r3, #2
   10e6c:	e5803008 	str	r3, [r0, #8]
   10e70:	e3a0101f 	mov	r1, #31
   10e74:	e59f00bc 	ldr	r0, [pc, #188]	; 10f38 <HcdChannelInterruptToError+0x1a8>
   10e78:	ebffea41 	bl	b784 <LogPrint>
   10e7c:	e3a000fc 	mov	r0, #252	; 0xfc
   10e80:	eaffffdf 	b	10e04 <HcdChannelInterruptToError+0x74>
   10e84:	e3a03010 	mov	r3, #16
   10e88:	e5803008 	str	r3, [r0, #8]
   10e8c:	e3a0101d 	mov	r1, #29
   10e90:	e59f00a4 	ldr	r0, [pc, #164]	; 10f3c <HcdChannelInterruptToError+0x1ac>
   10e94:	ebffea3a 	bl	b784 <LogPrint>
   10e98:	e3a000fc 	mov	r0, #252	; 0xfc
   10e9c:	eaffffd8 	b	10e04 <HcdChannelInterruptToError+0x74>
   10ea0:	e3a03c02 	mov	r3, #512	; 0x200
   10ea4:	e59f0094 	ldr	r0, [pc, #148]	; 10f40 <HcdChannelInterruptToError+0x1b0>
   10ea8:	e5853008 	str	r3, [r5, #8]
   10eac:	e3a01021 	mov	r1, #33	; 0x21
   10eb0:	ebffea33 	bl	b784 <LogPrint>
   10eb4:	e3a000fc 	mov	r0, #252	; 0xfc
   10eb8:	eaffffd1 	b	10e04 <HcdChannelInterruptToError+0x74>
   10ebc:	e3a03008 	mov	r3, #8
   10ec0:	e59f007c 	ldr	r0, [pc, #124]	; 10f44 <HcdChannelInterruptToError+0x1b4>
   10ec4:	e5853008 	str	r3, [r5, #8]
   10ec8:	e3a01020 	mov	r1, #32
   10ecc:	ebffea2c 	bl	b784 <LogPrint>
   10ed0:	e3a000fc 	mov	r0, #252	; 0xfc
   10ed4:	eaffffca 	b	10e04 <HcdChannelInterruptToError+0x74>
   10ed8:	e3a03004 	mov	r3, #4
   10edc:	e59f0064 	ldr	r0, [pc, #100]	; 10f48 <HcdChannelInterruptToError+0x1b8>
   10ee0:	e5853008 	str	r3, [r5, #8]
   10ee4:	e3a01021 	mov	r1, #33	; 0x21
   10ee8:	ebffea25 	bl	b784 <LogPrint>
   10eec:	e3a000fc 	mov	r0, #252	; 0xfc
   10ef0:	eaffffc3 	b	10e04 <HcdChannelInterruptToError+0x74>
   10ef4:	e3a03040 	mov	r3, #64	; 0x40
   10ef8:	e59f004c 	ldr	r0, [pc, #76]	; 10f4c <HcdChannelInterruptToError+0x1bc>
   10efc:	e5853008 	str	r3, [r5, #8]
   10f00:	e3a01025 	mov	r1, #37	; 0x25
   10f04:	ebffea1e 	bl	b784 <LogPrint>
   10f08:	e3a000fc 	mov	r0, #252	; 0xfc
   10f0c:	eaffffbc 	b	10e04 <HcdChannelInterruptToError+0x74>
   10f10:	e3a03080 	mov	r3, #128	; 0x80
   10f14:	e59f0034 	ldr	r0, [pc, #52]	; 10f50 <HcdChannelInterruptToError+0x1c0>
   10f18:	e5853008 	str	r3, [r5, #8]
   10f1c:	e3a01025 	mov	r1, #37	; 0x25
   10f20:	ebffea17 	bl	b784 <LogPrint>
   10f24:	e3a000fc 	mov	r0, #252	; 0xfc
   10f28:	eaffffb5 	b	10e04 <HcdChannelInterruptToError+0x74>
   10f2c:	00013e90 	.word	0x00013e90
   10f30:	00013db0 	.word	0x00013db0
   10f34:	00013d50 	.word	0x00013d50
   10f38:	00013d70 	.word	0x00013d70
   10f3c:	00013d90 	.word	0x00013d90
   10f40:	00013dd8 	.word	0x00013dd8
   10f44:	00013dfc 	.word	0x00013dfc
   10f48:	00013e1c 	.word	0x00013e1c
   10f4c:	00013e40 	.word	0x00013e40
   10f50:	00013e68 	.word	0x00013e68

00010f54 <HcdChannelSendWaitOne>:
   10f54:	e92d4ff0 	push	{r4, r5, r6, r7, r8, r9, sl, fp, lr}
   10f58:	e24dd01c 	sub	sp, sp, #28
   10f5c:	e1a09002 	mov	r9, r2
   10f60:	e59d2044 	ldr	r2, [sp, #68]	; 0x44
   10f64:	e1a07289 	lsl	r7, r9, #5
   10f68:	e3a08000 	mov	r8, #0
   10f6c:	e2871e11 	add	r1, r7, #272	; 0x110
   10f70:	e0832002 	add	r2, r3, r2
   10f74:	e59f4380 	ldr	r4, [pc, #896]	; 112fc <HcdChannelSendWaitOne+0x3a8>
   10f78:	e58d000c 	str	r0, [sp, #12]
   10f7c:	e58d1008 	str	r1, [sp, #8]
   10f80:	e58d2010 	str	r2, [sp, #16]
   10f84:	e58d8004 	str	r8, [sp, #4]
   10f88:	e2876f42 	add	r6, r7, #264	; 0x108
   10f8c:	e289b008 	add	fp, r9, #8
   10f90:	e5940004 	ldr	r0, [r4, #4]
   10f94:	e0800006 	add	r0, r0, r6
   10f98:	ebfffde0 	bl	10720 <SetReg>
   10f9c:	e5940004 	ldr	r0, [r4, #4]
   10fa0:	e3a01000 	mov	r1, #0
   10fa4:	e0800006 	add	r0, r0, r6
   10fa8:	ebfffd73 	bl	1057c <WriteThroughRegMask>
   10fac:	e59d2008 	ldr	r2, [sp, #8]
   10fb0:	e5940004 	ldr	r0, [r4, #4]
   10fb4:	e0800002 	add	r0, r0, r2
   10fb8:	ebfffd96 	bl	10618 <ReadBackReg>
   10fbc:	e5940004 	ldr	r0, [r4, #4]
   10fc0:	e080028b 	add	r0, r0, fp, lsl #5
   10fc4:	e2800004 	add	r0, r0, #4
   10fc8:	ebfffd92 	bl	10618 <ReadBackReg>
   10fcc:	e1a00009 	mov	r0, r9
   10fd0:	e59d1010 	ldr	r1, [sp, #16]
   10fd4:	ebffff3f 	bl	10cd8 <HcdTransmitChannel>
   10fd8:	e59f5320 	ldr	r5, [pc, #800]	; 11300 <HcdChannelSendWaitOne+0x3ac>
   10fdc:	ea000002 	b	10fec <HcdChannelSendWaitOne+0x98>
   10fe0:	eb0005f1 	bl	127ac <MicroDelay>
   10fe4:	e2555001 	subs	r5, r5, #1
   10fe8:	0a00006f 	beq	111ac <HcdChannelSendWaitOne+0x258>
   10fec:	e5940004 	ldr	r0, [r4, #4]
   10ff0:	e0800006 	add	r0, r0, r6
   10ff4:	ebfffd87 	bl	10618 <ReadBackReg>
   10ff8:	e5943004 	ldr	r3, [r4, #4]
   10ffc:	e0832007 	add	r2, r3, r7
   11000:	e5d22108 	ldrb	r2, [r2, #264]	; 0x108
   11004:	e3120002 	tst	r2, #2
   11008:	e3a0000a 	mov	r0, #10
   1100c:	e59fa2e8 	ldr	sl, [pc, #744]	; 112fc <HcdChannelSendWaitOne+0x3a8>
   11010:	0afffff2 	beq	10fe0 <HcdChannelSendWaitOne+0x8c>
   11014:	e59d2008 	ldr	r2, [sp, #8]
   11018:	e0830002 	add	r0, r3, r2
   1101c:	ebfffd7d 	bl	10618 <ReadBackReg>
   11020:	e59a2004 	ldr	r2, [sl, #4]
   11024:	e1a0a28b 	lsl	sl, fp, #5
   11028:	e082300a 	add	r3, r2, sl
   1102c:	e5d31007 	ldrb	r1, [r3, #7]
   11030:	e1b013a1 	lsrs	r1, r1, #7
   11034:	e2833007 	add	r3, r3, #7
   11038:	0a000099 	beq	112a4 <HcdChannelSendWaitOne+0x350>
   1103c:	e0823007 	add	r3, r2, r7
   11040:	e5d31108 	ldrb	r1, [r3, #264]	; 0x108
   11044:	e3110020 	tst	r1, #32
   11048:	0a000035 	beq	11124 <HcdChannelSendWaitOne+0x1d0>
   1104c:	e3a03003 	mov	r3, #3
   11050:	e58d8014 	str	r8, [sp, #20]
   11054:	e1a00002 	mov	r0, r2
   11058:	e1a08003 	mov	r8, r3
   1105c:	e0800006 	add	r0, r0, r6
   11060:	ebfffdae 	bl	10720 <SetReg>
   11064:	e5940004 	ldr	r0, [r4, #4]
   11068:	e3a01000 	mov	r1, #0
   1106c:	e0800006 	add	r0, r0, r6
   11070:	ebfffd41 	bl	1057c <WriteThroughRegMask>
   11074:	e5940004 	ldr	r0, [r4, #4]
   11078:	e080000a 	add	r0, r0, sl
   1107c:	e2800004 	add	r0, r0, #4
   11080:	ebfffd64 	bl	10618 <ReadBackReg>
   11084:	e5940004 	ldr	r0, [r4, #4]
   11088:	e080000a 	add	r0, r0, sl
   1108c:	e2800004 	add	r0, r0, #4
   11090:	e5d03002 	ldrb	r3, [r0, #2]
   11094:	e3833001 	orr	r3, r3, #1
   11098:	e5c03002 	strb	r3, [r0, #2]
   1109c:	e3a01000 	mov	r1, #0
   110a0:	ebfffd35 	bl	1057c <WriteThroughRegMask>
   110a4:	e5940004 	ldr	r0, [r4, #4]
   110a8:	e080000a 	add	r0, r0, sl
   110ac:	e5d03003 	ldrb	r3, [r0, #3]
   110b0:	e3833080 	orr	r3, r3, #128	; 0x80
   110b4:	e5c03003 	strb	r3, [r0, #3]
   110b8:	e5d03003 	ldrb	r3, [r0, #3]
   110bc:	e3c33040 	bic	r3, r3, #64	; 0x40
   110c0:	e5c03003 	strb	r3, [r0, #3]
   110c4:	e3a01000 	mov	r1, #0
   110c8:	ebfffd2b 	bl	1057c <WriteThroughRegMask>
   110cc:	e59f522c 	ldr	r5, [pc, #556]	; 11300 <HcdChannelSendWaitOne+0x3ac>
   110d0:	ea000002 	b	110e0 <HcdChannelSendWaitOne+0x18c>
   110d4:	eb0005b4 	bl	127ac <MicroDelay>
   110d8:	e2555001 	subs	r5, r5, #1
   110dc:	0a00003d 	beq	111d8 <HcdChannelSendWaitOne+0x284>
   110e0:	e5940004 	ldr	r0, [r4, #4]
   110e4:	e0800006 	add	r0, r0, r6
   110e8:	ebfffd4a 	bl	10618 <ReadBackReg>
   110ec:	e5942004 	ldr	r2, [r4, #4]
   110f0:	e0823007 	add	r3, r2, r7
   110f4:	e5d31108 	ldrb	r1, [r3, #264]	; 0x108
   110f8:	e3110002 	tst	r1, #2
   110fc:	e3a00064 	mov	r0, #100	; 0x64
   11100:	e2833f42 	add	r3, r3, #264	; 0x108
   11104:	0afffff2 	beq	110d4 <HcdChannelSendWaitOne+0x180>
   11108:	e5d31000 	ldrb	r1, [r3]
   1110c:	e3110040 	tst	r1, #64	; 0x40
   11110:	0a00004f 	beq	11254 <HcdChannelSendWaitOne+0x300>
   11114:	e2588001 	subs	r8, r8, #1
   11118:	0a00001f 	beq	1119c <HcdChannelSendWaitOne+0x248>
   1111c:	e1a00002 	mov	r0, r2
   11120:	eaffffcd 	b	1105c <HcdChannelSendWaitOne+0x108>
   11124:	e5d32108 	ldrb	r2, [r3, #264]	; 0x108
   11128:	e3120010 	tst	r2, #16
   1112c:	1a00000d 	bne	11168 <HcdChannelSendWaitOne+0x214>
   11130:	e5d33108 	ldrb	r3, [r3, #264]	; 0x108
   11134:	e1b033a3 	lsrs	r3, r3, #7
   11138:	1a000018 	bne	111a0 <HcdChannelSendWaitOne+0x24c>
   1113c:	e59d3004 	ldr	r3, [sp, #4]
   11140:	e3530003 	cmp	r3, #3
   11144:	1358000a 	cmpne	r8, #10
   11148:	13a00000 	movne	r0, #0
   1114c:	03a00001 	moveq	r0, #1
   11150:	0a000026 	beq	111f0 <HcdChannelSendWaitOne+0x29c>
   11154:	e1a00c00 	lsl	r0, r0, #24
   11158:	e1a00c40 	asr	r0, r0, #24
   1115c:	e28dd01c 	add	sp, sp, #28
   11160:	e8bd4ff0 	pop	{r4, r5, r6, r7, r8, r9, sl, fp, lr}
   11164:	e12fff1e 	bx	lr
   11168:	e59d3004 	ldr	r3, [sp, #4]
   1116c:	e59f0190 	ldr	r0, [pc, #400]	; 11304 <HcdChannelSendWaitOne+0x3b0>
   11170:	e2433001 	sub	r3, r3, #1
   11174:	e58d3004 	str	r3, [sp, #4]
   11178:	eb00058b 	bl	127ac <MicroDelay>
   1117c:	e59d3004 	ldr	r3, [sp, #4]
   11180:	e2888001 	add	r8, r8, #1
   11184:	e2833001 	add	r3, r3, #1
   11188:	e3530002 	cmp	r3, #2
   1118c:	93580009 	cmpls	r8, #9
   11190:	e58d3004 	str	r3, [sp, #4]
   11194:	9affff7d 	bls	10f90 <HcdChannelSendWaitOne+0x3c>
   11198:	eaffffe7 	b	1113c <HcdChannelSendWaitOne+0x1e8>
   1119c:	e59d8014 	ldr	r8, [sp, #20]
   111a0:	e59f015c 	ldr	r0, [pc, #348]	; 11304 <HcdChannelSendWaitOne+0x3b0>
   111a4:	eb000580 	bl	127ac <MicroDelay>
   111a8:	eafffff3 	b	1117c <HcdChannelSendWaitOne+0x228>
   111ac:	e59d000c 	ldr	r0, [sp, #12]
   111b0:	ebffe9ee 	bl	b970 <UsbGetDescription>
   111b4:	e1a02000 	mov	r2, r0
   111b8:	e59f0148 	ldr	r0, [pc, #328]	; 11308 <HcdChannelSendWaitOne+0x3b4>
   111bc:	e3a01023 	mov	r1, #35	; 0x23
   111c0:	ebffe721 	bl	ae4c <LogPrintF>
   111c4:	e59d100c 	ldr	r1, [sp, #12]
   111c8:	e3a03080 	mov	r3, #128	; 0x80
   111cc:	e5813008 	str	r3, [r1, #8]
   111d0:	e3a000f8 	mov	r0, #248	; 0xf8
   111d4:	eaffffde 	b	11154 <HcdChannelSendWaitOne+0x200>
   111d8:	e59d000c 	ldr	r0, [sp, #12]
   111dc:	ebffe9e3 	bl	b970 <UsbGetDescription>
   111e0:	e3a01034 	mov	r1, #52	; 0x34
   111e4:	e1a02000 	mov	r2, r0
   111e8:	e59f011c 	ldr	r0, [pc, #284]	; 1130c <HcdChannelSendWaitOne+0x3b8>
   111ec:	eafffff3 	b	111c0 <HcdChannelSendWaitOne+0x26c>
   111f0:	e59d000c 	ldr	r0, [sp, #12]
   111f4:	ebffe9dd 	bl	b970 <UsbGetDescription>
   111f8:	e3a01028 	mov	r1, #40	; 0x28
   111fc:	e1a02000 	mov	r2, r0
   11200:	e59f0108 	ldr	r0, [pc, #264]	; 11310 <HcdChannelSendWaitOne+0x3bc>
   11204:	ebffe710 	bl	ae4c <LogPrintF>
   11208:	e5943004 	ldr	r3, [r4, #4]
   1120c:	e083228b 	add	r2, r3, fp, lsl #5
   11210:	e5d22007 	ldrb	r2, [r2, #7]
   11214:	e0833007 	add	r3, r3, r7
   11218:	e1a023a2 	lsr	r2, r2, #7
   1121c:	e5931108 	ldr	r1, [r3, #264]	; 0x108
   11220:	e2222001 	eor	r2, r2, #1
   11224:	e59d000c 	ldr	r0, [sp, #12]
   11228:	ebfffed8 	bl	10d90 <HcdChannelInterruptToError>
   1122c:	e2504000 	subs	r4, r0, #0
   11230:	0a00002c 	beq	112e8 <HcdChannelSendWaitOne+0x394>
   11234:	e59d000c 	ldr	r0, [sp, #12]
   11238:	ebffe9cc 	bl	b970 <UsbGetDescription>
   1123c:	e3a0101c 	mov	r1, #28
   11240:	e1a02000 	mov	r2, r0
   11244:	e59f00c8 	ldr	r0, [pc, #200]	; 11314 <HcdChannelSendWaitOne+0x3c0>
   11248:	ebffe6ff 	bl	ae4c <LogPrintF>
   1124c:	e1a00004 	mov	r0, r4
   11250:	eaffffbf 	b	11154 <HcdChannelSendWaitOne+0x200>
   11254:	e5d32000 	ldrb	r2, [r3]
   11258:	e3120010 	tst	r2, #16
   1125c:	e59d8014 	ldr	r8, [sp, #20]
   11260:	1affffc0 	bne	11168 <HcdChannelSendWaitOne+0x214>
   11264:	e5d32000 	ldrb	r2, [r3]
   11268:	e1b023a2 	lsrs	r2, r2, #7
   1126c:	1affffcb 	bne	111a0 <HcdChannelSendWaitOne+0x24c>
   11270:	e5931000 	ldr	r1, [r3]
   11274:	e59d000c 	ldr	r0, [sp, #12]
   11278:	ebfffec4 	bl	10d90 <HcdChannelInterruptToError>
   1127c:	e2505000 	subs	r5, r0, #0
   11280:	0affffad 	beq	1113c <HcdChannelSendWaitOne+0x1e8>
   11284:	e59d000c 	ldr	r0, [sp, #12]
   11288:	ebffe9b8 	bl	b970 <UsbGetDescription>
   1128c:	e3a0102d 	mov	r1, #45	; 0x2d
   11290:	e1a02000 	mov	r2, r0
   11294:	e59f007c 	ldr	r0, [pc, #124]	; 11318 <HcdChannelSendWaitOne+0x3c4>
   11298:	ebffe6eb 	bl	ae4c <LogPrintF>
   1129c:	e1a00005 	mov	r0, r5
   112a0:	eaffffab 	b	11154 <HcdChannelSendWaitOne+0x200>
   112a4:	e5d33000 	ldrb	r3, [r3]
   112a8:	e0822007 	add	r2, r2, r7
   112ac:	e5921108 	ldr	r1, [r2, #264]	; 0x108
   112b0:	e1a023a3 	lsr	r2, r3, #7
   112b4:	e2222001 	eor	r2, r2, #1
   112b8:	e59d000c 	ldr	r0, [sp, #12]
   112bc:	ebfffeb3 	bl	10d90 <HcdChannelInterruptToError>
   112c0:	e3500000 	cmp	r0, #0
   112c4:	0affff9c 	beq	1113c <HcdChannelSendWaitOne+0x1e8>
   112c8:	e59d000c 	ldr	r0, [sp, #12]
   112cc:	ebffe9a7 	bl	b970 <UsbGetDescription>
   112d0:	e3a0101c 	mov	r1, #28
   112d4:	e1a02000 	mov	r2, r0
   112d8:	e59f0034 	ldr	r0, [pc, #52]	; 11314 <HcdChannelSendWaitOne+0x3c0>
   112dc:	ebffe6da 	bl	ae4c <LogPrintF>
   112e0:	e3a000fd 	mov	r0, #253	; 0xfd
   112e4:	eaffff9a 	b	11154 <HcdChannelSendWaitOne+0x200>
   112e8:	e59d100c 	ldr	r1, [sp, #12]
   112ec:	e3a03080 	mov	r3, #128	; 0x80
   112f0:	e5813008 	str	r3, [r1, #8]
   112f4:	e3a000f8 	mov	r0, #248	; 0xf8
   112f8:	eaffff95 	b	11154 <HcdChannelSendWaitOne+0x200>
   112fc:	00016180 	.word	0x00016180
   11300:	00001388 	.word	0x00001388
   11304:	000061a8 	.word	0x000061a8
   11308:	00013eb4 	.word	0x00013eb4
   1130c:	00013ed8 	.word	0x00013ed8
   11310:	00013f58 	.word	0x00013f58
   11314:	00013f3c 	.word	0x00013f3c
   11318:	00013f0c 	.word	0x00013f0c

0001131c <HcdChannelSendWait>:
   1131c:	e92d4ff0 	push	{r4, r5, r6, r7, r8, r9, sl, fp, lr}
   11320:	e1a04282 	lsl	r4, r2, #5
   11324:	e24dd024 	sub	sp, sp, #36	; 0x24
   11328:	e1a0b003 	mov	fp, r3
   1132c:	e2843e11 	add	r3, r4, #272	; 0x110
   11330:	e58d3014 	str	r3, [sp, #20]
   11334:	e5dd3050 	ldrb	r3, [sp, #80]	; 0x50
   11338:	e58d301c 	str	r3, [sp, #28]
   1133c:	e3a03001 	mov	r3, #1
   11340:	e59d5048 	ldr	r5, [sp, #72]	; 0x48
   11344:	e58d3018 	str	r3, [sp, #24]
   11348:	e59f61a4 	ldr	r6, [pc, #420]	; 114f4 <HcdChannelSendWait+0x1d8>
   1134c:	e1a08002 	mov	r8, r2
   11350:	e1a09000 	mov	r9, r0
   11354:	e1a0a001 	mov	sl, r1
   11358:	e58da000 	str	sl, [sp]
   1135c:	e1a00009 	mov	r0, r9
   11360:	e1a01008 	mov	r1, r8
   11364:	e1a02005 	mov	r2, r5
   11368:	e59d301c 	ldr	r3, [sp, #28]
   1136c:	ebfffd9b 	bl	109e0 <HcdPrepareChannel>
   11370:	e3500000 	cmp	r0, #0
   11374:	1a000049 	bne	114a0 <HcdChannelSendWait+0x184>
   11378:	e5962004 	ldr	r2, [r6, #4]
   1137c:	e1a01000 	mov	r1, r0
   11380:	ea000011 	b	113cc <HcdChannelSendWait+0xb0>
   11384:	e59d3014 	ldr	r3, [sp, #20]
   11388:	e5960004 	ldr	r0, [r6, #4]
   1138c:	e0800003 	add	r0, r0, r3
   11390:	ebfffca0 	bl	10618 <ReadBackReg>
   11394:	e5962004 	ldr	r2, [r6, #4]
   11398:	e0823004 	add	r3, r2, r4
   1139c:	e5931110 	ldr	r1, [r3, #272]	; 0x110
   113a0:	e5930110 	ldr	r0, [r3, #272]	; 0x110
   113a4:	e3c114ff 	bic	r1, r1, #-16777216	; 0xff000000
   113a8:	e1a00180 	lsl	r0, r0, #3
   113ac:	e3c1173e 	bic	r1, r1, #16252928	; 0xf80000
   113b0:	e1570b20 	cmp	r7, r0, lsr #22
   113b4:	e0611005 	rsb	r1, r1, r5
   113b8:	0a000026 	beq	11458 <HcdChannelSendWait+0x13c>
   113bc:	e5933110 	ldr	r3, [r3, #272]	; 0x110
   113c0:	e1a03183 	lsl	r3, r3, #3
   113c4:	e1b03b23 	lsrs	r3, r3, #22
   113c8:	0a000022 	beq	11458 <HcdChannelSendWait+0x13c>
   113cc:	e59d304c 	ldr	r3, [sp, #76]	; 0x4c
   113d0:	e0822004 	add	r2, r2, r4
   113d4:	e5927110 	ldr	r7, [r2, #272]	; 0x110
   113d8:	e1a00009 	mov	r0, r9
   113dc:	e58d1004 	str	r1, [sp, #4]
   113e0:	e58d3008 	str	r3, [sp, #8]
   113e4:	e58d5000 	str	r5, [sp]
   113e8:	e1a0100a 	mov	r1, sl
   113ec:	e1a02008 	mov	r2, r8
   113f0:	e1a0300b 	mov	r3, fp
   113f4:	ebfffed6 	bl	10f54 <HcdChannelSendWaitOne>
   113f8:	e1a07187 	lsl	r7, r7, #3
   113fc:	e3500000 	cmp	r0, #0
   11400:	e1a07b27 	lsr	r7, r7, #22
   11404:	0affffde 	beq	11384 <HcdChannelSendWait+0x68>
   11408:	e1a03c00 	lsl	r3, r0, #24
   1140c:	e35304fd 	cmp	r3, #-50331648	; 0xfd000000
   11410:	1a00000b 	bne	11444 <HcdChannelSendWait+0x128>
   11414:	e59d3018 	ldr	r3, [sp, #24]
   11418:	e2833001 	add	r3, r3, #1
   1141c:	e3530004 	cmp	r3, #4
   11420:	e58d3018 	str	r3, [sp, #24]
   11424:	1affffcb 	bne	11358 <HcdChannelSendWait+0x3c>
   11428:	e1a00009 	mov	r0, r9
   1142c:	ebffe94f 	bl	b970 <UsbGetDescription>
   11430:	e3a0102d 	mov	r1, #45	; 0x2d
   11434:	e1a02000 	mov	r2, r0
   11438:	e59f00b8 	ldr	r0, [pc, #184]	; 114f8 <HcdChannelSendWait+0x1dc>
   1143c:	ebffe682 	bl	ae4c <LogPrintF>
   11440:	e3a000f8 	mov	r0, #248	; 0xf8
   11444:	e1a00c00 	lsl	r0, r0, #24
   11448:	e1a00c40 	asr	r0, r0, #24
   1144c:	e28dd024 	add	sp, sp, #36	; 0x24
   11450:	e8bd4ff0 	pop	{r4, r5, r6, r7, r8, r9, sl, fp, lr}
   11454:	e12fff1e 	bx	lr
   11458:	e0822004 	add	r2, r2, r4
   1145c:	e5923110 	ldr	r3, [r2, #272]	; 0x110
   11460:	e1a03183 	lsl	r3, r3, #3
   11464:	e1570b23 	cmp	r7, r3, lsr #22
   11468:	0a000017 	beq	114cc <HcdChannelSendWait+0x1b0>
   1146c:	e59d3018 	ldr	r3, [sp, #24]
   11470:	e3530001 	cmp	r3, #1
   11474:	03a00000 	moveq	r0, #0
   11478:	0afffff1 	beq	11444 <HcdChannelSendWait+0x128>
   1147c:	e1a00009 	mov	r0, r9
   11480:	ebffe93a 	bl	b970 <UsbGetDescription>
   11484:	e59d3018 	ldr	r3, [sp, #24]
   11488:	e1a02000 	mov	r2, r0
   1148c:	e3a01030 	mov	r1, #48	; 0x30
   11490:	e59f0064 	ldr	r0, [pc, #100]	; 114fc <HcdChannelSendWait+0x1e0>
   11494:	ebffe66c 	bl	ae4c <LogPrintF>
   11498:	e3a00000 	mov	r0, #0
   1149c:	eaffffe8 	b	11444 <HcdChannelSendWait+0x128>
   114a0:	e3a03080 	mov	r3, #128	; 0x80
   114a4:	e1a07000 	mov	r7, r0
   114a8:	e5893008 	str	r3, [r9, #8]
   114ac:	e1a00009 	mov	r0, r9
   114b0:	ebffe92e 	bl	b970 <UsbGetDescription>
   114b4:	e3a0102c 	mov	r1, #44	; 0x2c
   114b8:	e1a02000 	mov	r2, r0
   114bc:	e59f003c 	ldr	r0, [pc, #60]	; 11500 <HcdChannelSendWait+0x1e4>
   114c0:	ebffe661 	bl	ae4c <LogPrintF>
   114c4:	e1a00007 	mov	r0, r7
   114c8:	eaffffdd 	b	11444 <HcdChannelSendWait+0x128>
   114cc:	e3a03080 	mov	r3, #128	; 0x80
   114d0:	e5893008 	str	r3, [r9, #8]
   114d4:	e1a00009 	mov	r0, r9
   114d8:	ebffe924 	bl	b970 <UsbGetDescription>
   114dc:	e3a01020 	mov	r1, #32
   114e0:	e1a02000 	mov	r2, r0
   114e4:	e59f0018 	ldr	r0, [pc, #24]	; 11504 <HcdChannelSendWait+0x1e8>
   114e8:	ebffe657 	bl	ae4c <LogPrintF>
   114ec:	e3a000fc 	mov	r0, #252	; 0xfc
   114f0:	eaffffd3 	b	11444 <HcdChannelSendWait+0x128>
   114f4:	00016180 	.word	0x00016180
   114f8:	00013f80 	.word	0x00013f80
   114fc:	00013ffc 	.word	0x00013ffc
   11500:	00013fb0 	.word	0x00013fb0
   11504:	00013fdc 	.word	0x00013fdc

00011508 <HcdSumbitControlMessage>:
   11508:	e92d4ff0 	push	{r4, r5, r6, r7, r8, r9, sl, fp, lr}
   1150c:	e59fe2dc 	ldr	lr, [pc, #732]	; 117f0 <HcdSumbitControlMessage+0x2e8>
   11510:	e1a0c421 	lsr	ip, r1, #8
   11514:	e59ee000 	ldr	lr, [lr]
   11518:	e20150ff 	and	r5, r1, #255	; 0xff
   1151c:	e20cc0ff 	and	ip, ip, #255	; 0xff
   11520:	e24dd034 	sub	sp, sp, #52	; 0x34
   11524:	e15c000e 	cmp	ip, lr
   11528:	e1a06225 	lsr	r6, r5, #4
   1152c:	e1a0e125 	lsr	lr, r5, #2
   11530:	e58de018 	str	lr, [sp, #24]
   11534:	e1a07921 	lsr	r7, r1, #18
   11538:	e20eb003 	and	fp, lr, #3
   1153c:	e206e0ff 	and	lr, r6, #255	; 0xff
   11540:	e58d1024 	str	r1, [sp, #36]	; 0x24
   11544:	e58de020 	str	lr, [sp, #32]
   11548:	e205a003 	and	sl, r5, #3
   1154c:	e2077001 	and	r7, r7, #1
   11550:	e1a04000 	mov	r4, r0
   11554:	e58d201c 	str	r2, [sp, #28]
   11558:	e58d3014 	str	r3, [sp, #20]
   1155c:	0a000077 	beq	11740 <HcdSumbitControlMessage+0x238>
   11560:	e20c90ff 	and	r9, ip, #255	; 0xff
   11564:	e1a03206 	lsl	r3, r6, #4
   11568:	e59dc058 	ldr	ip, [sp, #88]	; 0x58
   1156c:	e5dde02e 	ldrb	lr, [sp, #46]	; 0x2e
   11570:	e3a01102 	mov	r1, #-2147483648	; 0x80000000
   11574:	e183310b 	orr	r3, r3, fp, lsl #2
   11578:	e58dc004 	str	ip, [sp, #4]
   1157c:	e3a08000 	mov	r8, #0
   11580:	e5801008 	str	r1, [r0, #8]
   11584:	e3a02008 	mov	r2, #8
   11588:	e18a3003 	orr	r3, sl, r3
   1158c:	e3a01003 	mov	r1, #3
   11590:	e5808418 	str	r8, [r0, #1048]	; 0x418
   11594:	e20ec0f8 	and	ip, lr, #248	; 0xf8
   11598:	e58d2000 	str	r2, [sp]
   1159c:	e58d1008 	str	r1, [sp, #8]
   115a0:	e5cd302c 	strb	r3, [sp, #44]	; 0x2c
   115a4:	e1a02008 	mov	r2, r8
   115a8:	e28d102c 	add	r1, sp, #44	; 0x2c
   115ac:	e59d3058 	ldr	r3, [sp, #88]	; 0x58
   115b0:	e5cd902d 	strb	r9, [sp, #45]	; 0x2d
   115b4:	e5cdc02e 	strb	ip, [sp, #46]	; 0x2e
   115b8:	ebffff57 	bl	1131c <HcdChannelSendWait>
   115bc:	e1500008 	cmp	r0, r8
   115c0:	1a000062 	bne	11750 <HcdSumbitControlMessage+0x248>
   115c4:	e59dc01c 	ldr	ip, [sp, #28]
   115c8:	e35c0000 	cmp	ip, #0
   115cc:	0a00006f 	beq	11790 <HcdSumbitControlMessage+0x288>
   115d0:	e3570000 	cmp	r7, #0
   115d4:	e59f8218 	ldr	r8, [pc, #536]	; 117f4 <HcdSumbitControlMessage+0x2ec>
   115d8:	0a000053 	beq	1172c <HcdSumbitControlMessage+0x224>
   115dc:	e59dc020 	ldr	ip, [sp, #32]
   115e0:	e20c600f 	and	r6, ip, #15
   115e4:	e5ddc02e 	ldrb	ip, [sp, #46]	; 0x2e
   115e8:	e3a01002 	mov	r1, #2
   115ec:	e20cc0f8 	and	ip, ip, #248	; 0xf8
   115f0:	e18cc117 	orr	ip, ip, r7, lsl r1
   115f4:	e20bb003 	and	fp, fp, #3
   115f8:	e1a02206 	lsl	r2, r6, #4
   115fc:	e59d0058 	ldr	r0, [sp, #88]	; 0x58
   11600:	e59de014 	ldr	lr, [sp, #20]
   11604:	e20aa003 	and	sl, sl, #3
   11608:	e182210b 	orr	r2, r2, fp, lsl #2
   1160c:	e18a2002 	orr	r2, sl, r2
   11610:	e598300c 	ldr	r3, [r8, #12]
   11614:	e5cd202c 	strb	r2, [sp, #44]	; 0x2c
   11618:	e58d0004 	str	r0, [sp, #4]
   1161c:	e58d1008 	str	r1, [sp, #8]
   11620:	e58de000 	str	lr, [sp]
   11624:	e1a00004 	mov	r0, r4
   11628:	e28d102c 	add	r1, sp, #44	; 0x2c
   1162c:	e3a02000 	mov	r2, #0
   11630:	e5cd902d 	strb	r9, [sp, #45]	; 0x2d
   11634:	e5cdc02e 	strb	ip, [sp, #46]	; 0x2e
   11638:	ebffff37 	bl	1131c <HcdChannelSendWait>
   1163c:	e3500000 	cmp	r0, #0
   11640:	e59f51ac 	ldr	r5, [pc, #428]	; 117f4 <HcdSumbitControlMessage+0x2ec>
   11644:	1a000030 	bne	1170c <HcdSumbitControlMessage+0x204>
   11648:	e5950004 	ldr	r0, [r5, #4]
   1164c:	e2800e11 	add	r0, r0, #272	; 0x110
   11650:	ebfffbf0 	bl	10618 <ReadBackReg>
   11654:	e3570001 	cmp	r7, #1
   11658:	0a000052 	beq	117a8 <HcdSumbitControlMessage+0x2a0>
   1165c:	e59dc014 	ldr	ip, [sp, #20]
   11660:	e584c418 	str	ip, [r4, #1048]	; 0x418
   11664:	e5dd302e 	ldrb	r3, [sp, #46]	; 0x2e
   11668:	e3c33003 	bic	r3, r3, #3
   1166c:	e5cd302e 	strb	r3, [sp, #46]	; 0x2e
   11670:	e59dc014 	ldr	ip, [sp, #20]
   11674:	e5dd202e 	ldrb	r2, [sp, #46]	; 0x2e
   11678:	e35c0000 	cmp	ip, #0
   1167c:	12277001 	eorne	r7, r7, #1
   11680:	03a07001 	moveq	r7, #1
   11684:	e3a00002 	mov	r0, #2
   11688:	e3c22004 	bic	r2, r2, #4
   1168c:	e1827017 	orr	r7, r2, r7, lsl r0
   11690:	e1a06206 	lsl	r6, r6, #4
   11694:	e59dc058 	ldr	ip, [sp, #88]	; 0x58
   11698:	e186b10b 	orr	fp, r6, fp, lsl #2
   1169c:	e3a05000 	mov	r5, #0
   116a0:	e598300c 	ldr	r3, [r8, #12]
   116a4:	e18aa00b 	orr	sl, sl, fp
   116a8:	e58d0008 	str	r0, [sp, #8]
   116ac:	e58dc004 	str	ip, [sp, #4]
   116b0:	e28d102c 	add	r1, sp, #44	; 0x2c
   116b4:	e58d5000 	str	r5, [sp]
   116b8:	e1a02005 	mov	r2, r5
   116bc:	e1a00004 	mov	r0, r4
   116c0:	e5cda02c 	strb	sl, [sp, #44]	; 0x2c
   116c4:	e5cd902d 	strb	r9, [sp, #45]	; 0x2d
   116c8:	e5cd702e 	strb	r7, [sp, #46]	; 0x2e
   116cc:	ebffff12 	bl	1131c <HcdChannelSendWait>
   116d0:	e2508000 	subs	r8, r0, #0
   116d4:	e59f6118 	ldr	r6, [pc, #280]	; 117f4 <HcdSumbitControlMessage+0x2ec>
   116d8:	1a000024 	bne	11770 <HcdSumbitControlMessage+0x268>
   116dc:	e5960004 	ldr	r0, [r6, #4]
   116e0:	e2800e11 	add	r0, r0, #272	; 0x110
   116e4:	ebfffbcb 	bl	10618 <ReadBackReg>
   116e8:	e5963004 	ldr	r3, [r6, #4]
   116ec:	e5933110 	ldr	r3, [r3, #272]	; 0x110
   116f0:	e5848008 	str	r8, [r4, #8]
   116f4:	e1a00008 	mov	r0, r8
   116f8:	e1a00c00 	lsl	r0, r0, #24
   116fc:	e1a00c40 	asr	r0, r0, #24
   11700:	e28dd034 	add	sp, sp, #52	; 0x34
   11704:	e8bd4ff0 	pop	{r4, r5, r6, r7, r8, r9, sl, fp, lr}
   11708:	e12fff1e 	bx	lr
   1170c:	e1a00004 	mov	r0, r4
   11710:	ebffe896 	bl	b970 <UsbGetDescription>
   11714:	e3a01021 	mov	r1, #33	; 0x21
   11718:	e1a02000 	mov	r2, r0
   1171c:	e59f00d4 	ldr	r0, [pc, #212]	; 117f8 <HcdSumbitControlMessage+0x2f0>
   11720:	ebffe5c9 	bl	ae4c <LogPrintF>
   11724:	e3a00000 	mov	r0, #0
   11728:	eafffff2 	b	116f8 <HcdSumbitControlMessage+0x1f0>
   1172c:	e59d101c 	ldr	r1, [sp, #28]
   11730:	e598000c 	ldr	r0, [r8, #12]
   11734:	e59d2014 	ldr	r2, [sp, #20]
   11738:	ebffe5b0 	bl	ae00 <MemoryCopy>
   1173c:	eaffffa6 	b	115dc <HcdSumbitControlMessage+0xd4>
   11740:	e59dc058 	ldr	ip, [sp, #88]	; 0x58
   11744:	e58dc000 	str	ip, [sp]
   11748:	eb000255 	bl	120a4 <HcdProcessRootHubMessage>
   1174c:	eaffffe9 	b	116f8 <HcdSumbitControlMessage+0x1f0>
   11750:	e1a00004 	mov	r0, r4
   11754:	ebffe885 	bl	b970 <UsbGetDescription>
   11758:	e3a01022 	mov	r1, #34	; 0x22
   1175c:	e1a02000 	mov	r2, r0
   11760:	e59f0094 	ldr	r0, [pc, #148]	; 117fc <HcdSumbitControlMessage+0x2f4>
   11764:	ebffe5b8 	bl	ae4c <LogPrintF>
   11768:	e1a00008 	mov	r0, r8
   1176c:	eaffffe1 	b	116f8 <HcdSumbitControlMessage+0x1f0>
   11770:	e1a00004 	mov	r0, r4
   11774:	ebffe87d 	bl	b970 <UsbGetDescription>
   11778:	e3a01023 	mov	r1, #35	; 0x23
   1177c:	e1a02000 	mov	r2, r0
   11780:	e59f0078 	ldr	r0, [pc, #120]	; 11800 <HcdSumbitControlMessage+0x2f8>
   11784:	ebffe5b0 	bl	ae4c <LogPrintF>
   11788:	e1a00005 	mov	r0, r5
   1178c:	eaffffd9 	b	116f8 <HcdSumbitControlMessage+0x1f0>
   11790:	e59dc018 	ldr	ip, [sp, #24]
   11794:	e206600f 	and	r6, r6, #15
   11798:	e20cb003 	and	fp, ip, #3
   1179c:	e205a003 	and	sl, r5, #3
   117a0:	e59f804c 	ldr	r8, [pc, #76]	; 117f4 <HcdSumbitControlMessage+0x2ec>
   117a4:	eaffffae 	b	11664 <HcdSumbitControlMessage+0x15c>
   117a8:	e5952004 	ldr	r2, [r5, #4]
   117ac:	e5923110 	ldr	r3, [r2, #272]	; 0x110
   117b0:	e59dc014 	ldr	ip, [sp, #20]
   117b4:	e3c334ff 	bic	r3, r3, #-16777216	; 0xff000000
   117b8:	e3c3373e 	bic	r3, r3, #16252928	; 0xf80000
   117bc:	e153000c 	cmp	r3, ip
   117c0:	95923110 	ldrls	r3, [r2, #272]	; 0x110
   117c4:	93c334ff 	bicls	r3, r3, #-16777216	; 0xff000000
   117c8:	93c3373e 	bicls	r3, r3, #16252928	; 0xf80000
   117cc:	859dc014 	ldrhi	ip, [sp, #20]
   117d0:	9063300c 	rsbls	r3, r3, ip
   117d4:	95843418 	strls	r3, [r4, #1048]	; 0x418
   117d8:	8584c418 	strhi	ip, [r4, #1048]	; 0x418
   117dc:	e59d001c 	ldr	r0, [sp, #28]
   117e0:	e5942418 	ldr	r2, [r4, #1048]	; 0x418
   117e4:	e598100c 	ldr	r1, [r8, #12]
   117e8:	ebffe584 	bl	ae00 <MemoryCopy>
   117ec:	eaffff9c 	b	11664 <HcdSumbitControlMessage+0x15c>
   117f0:	00016194 	.word	0x00016194
   117f4:	00016180 	.word	0x00016180
   117f8:	00014050 	.word	0x00014050
   117fc:	0001402c 	.word	0x0001402c
   11800:	00014074 	.word	0x00014074

00011804 <HcdInitialise>:
   11804:	e92d4030 	push	{r4, r5, lr}
   11808:	e59f1220 	ldr	r1, [pc, #544]	; 11a30 <HcdInitialise+0x22c>
   1180c:	e24dd024 	sub	sp, sp, #36	; 0x24
   11810:	e3a00b01 	mov	r0, #1024	; 0x400
   11814:	ebffe432 	bl	a8e4 <MemoryReserve>
   11818:	e59f3214 	ldr	r3, [pc, #532]	; 11a34 <HcdInitialise+0x230>
   1181c:	e5830000 	str	r0, [r3]
   11820:	e3a00b01 	mov	r0, #1024	; 0x400
   11824:	ebffe430 	bl	a8ec <MemoryAllocate>
   11828:	e59f4208 	ldr	r4, [pc, #520]	; 11a38 <HcdInitialise+0x234>
   1182c:	e59f1208 	ldr	r1, [pc, #520]	; 11a3c <HcdInitialise+0x238>
   11830:	e5840000 	str	r0, [r4]
   11834:	e3a00b01 	mov	r0, #1024	; 0x400
   11838:	ebffe429 	bl	a8e4 <MemoryReserve>
   1183c:	e59f31fc 	ldr	r3, [pc, #508]	; 11a40 <HcdInitialise+0x23c>
   11840:	e5830000 	str	r0, [r3]
   11844:	e3a00b01 	mov	r0, #1024	; 0x400
   11848:	ebffe427 	bl	a8ec <MemoryAllocate>
   1184c:	e59f11f0 	ldr	r1, [pc, #496]	; 11a44 <HcdInitialise+0x240>
   11850:	e5840004 	str	r0, [r4, #4]
   11854:	e3a00004 	mov	r0, #4
   11858:	ebffe421 	bl	a8e4 <MemoryReserve>
   1185c:	e59f31e4 	ldr	r3, [pc, #484]	; 11a48 <HcdInitialise+0x244>
   11860:	e5830000 	str	r0, [r3]
   11864:	e3a00004 	mov	r0, #4
   11868:	ebffe41f 	bl	a8ec <MemoryAllocate>
   1186c:	e5943000 	ldr	r3, [r4]
   11870:	e5840008 	str	r0, [r4, #8]
   11874:	e2830040 	add	r0, r3, #64	; 0x40
   11878:	ebfffb66 	bl	10618 <ReadBackReg>
   1187c:	e5940000 	ldr	r0, [r4]
   11880:	e280003c 	add	r0, r0, #60	; 0x3c
   11884:	ebfffb63 	bl	10618 <ReadBackReg>
   11888:	e5941000 	ldr	r1, [r4]
   1188c:	e5912040 	ldr	r2, [r1, #64]	; 0x40
   11890:	e59f31b4 	ldr	r3, [pc, #436]	; 11a4c <HcdInitialise+0x248>
   11894:	e3c22eff 	bic	r2, r2, #4080	; 0xff0
   11898:	e3c2200f 	bic	r2, r2, #15
   1189c:	e1520003 	cmp	r2, r3
   118a0:	e5912040 	ldr	r2, [r1, #64]	; 0x40
   118a4:	e5913040 	ldr	r3, [r1, #64]	; 0x40
   118a8:	e5915040 	ldr	r5, [r1, #64]	; 0x40
   118ac:	e591e040 	ldr	lr, [r1, #64]	; 0x40
   118b0:	e591c040 	ldr	ip, [r1, #64]	; 0x40
   118b4:	e5910040 	ldr	r0, [r1, #64]	; 0x40
   118b8:	e591103c 	ldr	r1, [r1, #60]	; 0x3c
   118bc:	e1a05625 	lsr	r5, r5, #12
   118c0:	e1a0e42e 	lsr	lr, lr, #8
   118c4:	e1a0c22c 	lsr	ip, ip, #4
   118c8:	e1a03823 	lsr	r3, r3, #16
   118cc:	e205500f 	and	r5, r5, #15
   118d0:	e20ee00f 	and	lr, lr, #15
   118d4:	e20cc00f 	and	ip, ip, #15
   118d8:	e200000f 	and	r0, r0, #15
   118dc:	e1a01621 	lsr	r1, r1, #12
   118e0:	e1a02c22 	lsr	r2, r2, #24
   118e4:	e20330ff 	and	r3, r3, #255	; 0xff
   118e8:	e88d4020 	stm	sp, {r5, lr}
   118ec:	e58dc008 	str	ip, [sp, #8]
   118f0:	e58d000c 	str	r0, [sp, #12]
   118f4:	e58d1010 	str	r1, [sp, #16]
   118f8:	0a000014 	beq	11950 <HcdInitialise+0x14c>
   118fc:	e59f014c 	ldr	r0, [pc, #332]	; 11a50 <HcdInitialise+0x24c>
   11900:	e3a0105b 	mov	r1, #91	; 0x5b
   11904:	ebffe550 	bl	ae4c <LogPrintF>
   11908:	e3e03004 	mvn	r3, #4
   1190c:	e5cd301f 	strb	r3, [sp, #31]
   11910:	e5940000 	ldr	r0, [r4]
   11914:	e3500000 	cmp	r0, #0
   11918:	1bffe4f1 	blne	ace4 <MemoryDeallocate>
   1191c:	e5940004 	ldr	r0, [r4, #4]
   11920:	e3500000 	cmp	r0, #0
   11924:	1bffe4ee 	blne	ace4 <MemoryDeallocate>
   11928:	e5940008 	ldr	r0, [r4, #8]
   1192c:	e3500000 	cmp	r0, #0
   11930:	1bffe4eb 	blne	ace4 <MemoryDeallocate>
   11934:	e5dd001f 	ldrb	r0, [sp, #31]
   11938:	e20000ff 	and	r0, r0, #255	; 0xff
   1193c:	e1a00c00 	lsl	r0, r0, #24
   11940:	e1a00c40 	asr	r0, r0, #24
   11944:	e28dd024 	add	sp, sp, #36	; 0x24
   11948:	e8bd4030 	pop	{r4, r5, lr}
   1194c:	e12fff1e 	bx	lr
   11950:	e59f00fc 	ldr	r0, [pc, #252]	; 11a54 <HcdInitialise+0x250>
   11954:	e3a01029 	mov	r1, #41	; 0x29
   11958:	ebffe53b 	bl	ae4c <LogPrintF>
   1195c:	e5940000 	ldr	r0, [r4]
   11960:	e2800044 	add	r0, r0, #68	; 0x44
   11964:	ebfffb2b 	bl	10618 <ReadBackReg>
   11968:	e5943000 	ldr	r3, [r4]
   1196c:	e5d32048 	ldrb	r2, [r3, #72]	; 0x48
   11970:	e1a021a2 	lsr	r2, r2, #3
   11974:	e2022003 	and	r2, r2, #3
   11978:	e3520002 	cmp	r2, #2
   1197c:	0a000005 	beq	11998 <HcdInitialise+0x194>
   11980:	e59f00d0 	ldr	r0, [pc, #208]	; 11a58 <HcdInitialise+0x254>
   11984:	e3a01042 	mov	r1, #66	; 0x42
   11988:	ebffe77d 	bl	b784 <LogPrint>
   1198c:	e3e03004 	mvn	r3, #4
   11990:	e5cd301f 	strb	r3, [sp, #31]
   11994:	eaffffdd 	b	11910 <HcdInitialise+0x10c>
   11998:	e5d33048 	ldrb	r3, [r3, #72]	; 0x48
   1199c:	e1b03323 	lsrs	r3, r3, #6
   119a0:	1a000005 	bne	119bc <HcdInitialise+0x1b8>
   119a4:	e59f00b0 	ldr	r0, [pc, #176]	; 11a5c <HcdInitialise+0x258>
   119a8:	e3a0103c 	mov	r1, #60	; 0x3c
   119ac:	ebffe774 	bl	b784 <LogPrint>
   119b0:	e3e03004 	mvn	r3, #4
   119b4:	e5cd301f 	strb	r3, [sp, #31]
   119b8:	eaffffd4 	b	11910 <HcdInitialise+0x10c>
   119bc:	e5940004 	ldr	r0, [r4, #4]
   119c0:	ebfffb14 	bl	10618 <ReadBackReg>
   119c4:	e5940000 	ldr	r0, [r4]
   119c8:	e2800008 	add	r0, r0, #8
   119cc:	ebfffb11 	bl	10618 <ReadBackReg>
   119d0:	e5940000 	ldr	r0, [r4]
   119d4:	e5d03008 	ldrb	r3, [r0, #8]
   119d8:	e3c33001 	bic	r3, r3, #1
   119dc:	e5c03008 	strb	r3, [r0, #8]
   119e0:	e2800018 	add	r0, r0, #24
   119e4:	ebfffb33 	bl	106b8 <ClearReg>
   119e8:	e5940000 	ldr	r0, [r4]
   119ec:	e3a01000 	mov	r1, #0
   119f0:	e2800018 	add	r0, r0, #24
   119f4:	ebfffae0 	bl	1057c <WriteThroughRegMask>
   119f8:	e5940000 	ldr	r0, [r4]
   119fc:	e3a01000 	mov	r1, #0
   11a00:	e2800008 	add	r0, r0, #8
   11a04:	ebfffadc 	bl	1057c <WriteThroughRegMask>
   11a08:	eb000383 	bl	1281c <PowerOnUsb>
   11a0c:	e3500000 	cmp	r0, #0
   11a10:	e5cd001f 	strb	r0, [sp, #31]
   11a14:	0affffc8 	beq	1193c <HcdInitialise+0x138>
   11a18:	e59f0040 	ldr	r0, [pc, #64]	; 11a60 <HcdInitialise+0x25c>
   11a1c:	e3a0102e 	mov	r1, #46	; 0x2e
   11a20:	ebffe757 	bl	b784 <LogPrint>
   11a24:	e3e03004 	mvn	r3, #4
   11a28:	e5cd301f 	strb	r3, [sp, #31]
   11a2c:	eaffffb7 	b	11910 <HcdInitialise+0x10c>
   11a30:	20980000 	.word	0x20980000
   11a34:	0001aeb8 	.word	0x0001aeb8
   11a38:	00016180 	.word	0x00016180
   11a3c:	20980400 	.word	0x20980400
   11a40:	0001aebc 	.word	0x0001aebc
   11a44:	20980e00 	.word	0x20980e00
   11a48:	0001aec0 	.word	0x0001aec0
   11a4c:	4f542000 	.word	0x4f542000
   11a50:	00014098 	.word	0x00014098
   11a54:	000140f4 	.word	0x000140f4
   11a58:	00014120 	.word	0x00014120
   11a5c:	00014164 	.word	0x00014164
   11a60:	000141a0 	.word	0x000141a0

00011a64 <HcdStart>:
   11a64:	e92d40f8 	push	{r3, r4, r5, r6, r7, lr}
   11a68:	e59f45c4 	ldr	r4, [pc, #1476]	; 12034 <HcdStart+0x5d0>
   11a6c:	e5943000 	ldr	r3, [r4]
   11a70:	e3530000 	cmp	r3, #0
   11a74:	0a000164 	beq	1200c <HcdStart+0x5a8>
   11a78:	e3a00b01 	mov	r0, #1024	; 0x400
   11a7c:	ebffe39a 	bl	a8ec <MemoryAllocate>
   11a80:	e3500000 	cmp	r0, #0
   11a84:	e584000c 	str	r0, [r4, #12]
   11a88:	0a00015d 	beq	12004 <HcdStart+0x5a0>
   11a8c:	e5940000 	ldr	r0, [r4]
   11a90:	e280000c 	add	r0, r0, #12
   11a94:	ebfffadf 	bl	10618 <ReadBackReg>
   11a98:	e5940000 	ldr	r0, [r4]
   11a9c:	e5d0300e 	ldrb	r3, [r0, #14]
   11aa0:	e3c33010 	bic	r3, r3, #16
   11aa4:	e5c0300e 	strb	r3, [r0, #14]
   11aa8:	e5d0300e 	ldrb	r3, [r0, #14]
   11aac:	e3c33040 	bic	r3, r3, #64	; 0x40
   11ab0:	e5c0300e 	strb	r3, [r0, #14]
   11ab4:	e3a01000 	mov	r1, #0
   11ab8:	e280000c 	add	r0, r0, #12
   11abc:	ebfffaae 	bl	1057c <WriteThroughRegMask>
   11ac0:	ebfffb3c 	bl	107b8 <HcdReset>
   11ac4:	e2505000 	subs	r5, r0, #0
   11ac8:	1a000091 	bne	11d14 <HcdStart+0x2b0>
   11acc:	e5d41010 	ldrb	r1, [r4, #16]
   11ad0:	e3510000 	cmp	r1, #0
   11ad4:	0a000094 	beq	11d2c <HcdStart+0x2c8>
   11ad8:	e5940000 	ldr	r0, [r4]
   11adc:	e280000c 	add	r0, r0, #12
   11ae0:	ebfffacc 	bl	10618 <ReadBackReg>
   11ae4:	e5940000 	ldr	r0, [r4]
   11ae8:	e5d03048 	ldrb	r3, [r0, #72]	; 0x48
   11aec:	e1a03323 	lsr	r3, r3, #6
   11af0:	e3530002 	cmp	r3, #2
   11af4:	0a0000f9 	beq	11ee0 <HcdStart+0x47c>
   11af8:	e5d0300e 	ldrb	r3, [r0, #14]
   11afc:	e3c33002 	bic	r3, r3, #2
   11b00:	e5c0300e 	strb	r3, [r0, #14]
   11b04:	e5d0300e 	ldrb	r3, [r0, #14]
   11b08:	e3c33008 	bic	r3, r3, #8
   11b0c:	e5c0300e 	strb	r3, [r0, #14]
   11b10:	e3a01000 	mov	r1, #0
   11b14:	e280000c 	add	r0, r0, #12
   11b18:	ebfffa97 	bl	1057c <WriteThroughRegMask>
   11b1c:	e5940000 	ldr	r0, [r4]
   11b20:	e2800008 	add	r0, r0, #8
   11b24:	ebfffabb 	bl	10618 <ReadBackReg>
   11b28:	e5940000 	ldr	r0, [r4]
   11b2c:	e5d03008 	ldrb	r3, [r0, #8]
   11b30:	e3833020 	orr	r3, r3, #32
   11b34:	e5c03008 	strb	r3, [r0, #8]
   11b38:	e5d0300a 	ldrb	r3, [r0, #10]
   11b3c:	e3c33080 	bic	r3, r3, #128	; 0x80
   11b40:	e5c0300a 	strb	r3, [r0, #10]
   11b44:	e3a01000 	mov	r1, #0
   11b48:	e2800008 	add	r0, r0, #8
   11b4c:	ebfffa8a 	bl	1057c <WriteThroughRegMask>
   11b50:	e5940000 	ldr	r0, [r4]
   11b54:	e280000c 	add	r0, r0, #12
   11b58:	ebfffaae 	bl	10618 <ReadBackReg>
   11b5c:	e5940000 	ldr	r0, [r4]
   11b60:	e5d03048 	ldrb	r3, [r0, #72]	; 0x48
   11b64:	e2033007 	and	r3, r3, #7
   11b68:	e3530007 	cmp	r3, #7
   11b6c:	0a000007 	beq	11b90 <HcdStart+0x12c>
   11b70:	e3a02001 	mov	r2, #1
   11b74:	e1a03312 	lsl	r3, r2, r3
   11b78:	e3130054 	tst	r3, #84	; 0x54
   11b7c:	1a0000ef 	bne	11f40 <HcdStart+0x4dc>
   11b80:	e313002a 	tst	r3, #42	; 0x2a
   11b84:	1a000110 	bne	11fcc <HcdStart+0x568>
   11b88:	e3130001 	tst	r3, #1
   11b8c:	1a000115 	bne	11fe8 <HcdStart+0x584>
   11b90:	e3a01000 	mov	r1, #0
   11b94:	e280000c 	add	r0, r0, #12
   11b98:	ebfffa77 	bl	1057c <WriteThroughRegMask>
   11b9c:	e5940008 	ldr	r0, [r4, #8]
   11ba0:	ebfffac4 	bl	106b8 <ClearReg>
   11ba4:	e5940008 	ldr	r0, [r4, #8]
   11ba8:	e3a01000 	mov	r1, #0
   11bac:	ebfffa72 	bl	1057c <WriteThroughRegMask>
   11bb0:	e5940004 	ldr	r0, [r4, #4]
   11bb4:	ebfffa97 	bl	10618 <ReadBackReg>
   11bb8:	e5943000 	ldr	r3, [r4]
   11bbc:	e5d32048 	ldrb	r2, [r3, #72]	; 0x48
   11bc0:	e1a02322 	lsr	r2, r2, #6
   11bc4:	e3520002 	cmp	r2, #2
   11bc8:	e59f2464 	ldr	r2, [pc, #1124]	; 12034 <HcdStart+0x5d0>
   11bcc:	0a0000ce 	beq	11f0c <HcdStart+0x4a8>
   11bd0:	e5940004 	ldr	r0, [r4, #4]
   11bd4:	e5d03000 	ldrb	r3, [r0]
   11bd8:	e3c33003 	bic	r3, r3, #3
   11bdc:	e5c03000 	strb	r3, [r0]
   11be0:	e3a01000 	mov	r1, #0
   11be4:	ebfffa64 	bl	1057c <WriteThroughRegMask>
   11be8:	e5940004 	ldr	r0, [r4, #4]
   11bec:	ebfffa89 	bl	10618 <ReadBackReg>
   11bf0:	e5940004 	ldr	r0, [r4, #4]
   11bf4:	e5d03000 	ldrb	r3, [r0]
   11bf8:	e3833004 	orr	r3, r3, #4
   11bfc:	e5c03000 	strb	r3, [r0]
   11c00:	e3a01000 	mov	r1, #0
   11c04:	ebfffa5c 	bl	1057c <WriteThroughRegMask>
   11c08:	e5940004 	ldr	r0, [r4, #4]
   11c0c:	ebfffa81 	bl	10618 <ReadBackReg>
   11c10:	e5943000 	ldr	r3, [r4]
   11c14:	e5940004 	ldr	r0, [r4, #4]
   11c18:	e5d01002 	ldrb	r1, [r0, #2]
   11c1c:	e5d32053 	ldrb	r2, [r3, #83]	; 0x53
   11c20:	e1a02322 	lsr	r2, r2, #6
   11c24:	e2022001 	and	r2, r2, #1
   11c28:	e15203a1 	cmp	r2, r1, lsr #7
   11c2c:	e3a01000 	mov	r1, #0
   11c30:	05933040 	ldreq	r3, [r3, #64]	; 0x40
   11c34:	ebfffa50 	bl	1057c <WriteThroughRegMask>
   11c38:	e5940000 	ldr	r0, [r4]
   11c3c:	e2800024 	add	r0, r0, #36	; 0x24
   11c40:	ebfffa74 	bl	10618 <ReadBackReg>
   11c44:	e5943000 	ldr	r3, [r4]
   11c48:	e3a02a05 	mov	r2, #20480	; 0x5000
   11c4c:	e1a00003 	mov	r0, r3
   11c50:	e3a01000 	mov	r1, #0
   11c54:	e5933024 	ldr	r3, [r3, #36]	; 0x24
   11c58:	e5a02024 	str	r2, [r0, #36]!	; 0x24
   11c5c:	ebfffa46 	bl	1057c <WriteThroughRegMask>
   11c60:	e5940000 	ldr	r0, [r4]
   11c64:	e2800028 	add	r0, r0, #40	; 0x28
   11c68:	ebfffa6a 	bl	10618 <ReadBackReg>
   11c6c:	e5940000 	ldr	r0, [r4]
   11c70:	e5903028 	ldr	r3, [r0, #40]	; 0x28
   11c74:	e1a03803 	lsl	r3, r3, #16
   11c78:	e1a03823 	lsr	r3, r3, #16
   11c7c:	e3833205 	orr	r3, r3, #1342177280	; 0x50000000
   11c80:	e5803028 	str	r3, [r0, #40]	; 0x28
   11c84:	e5903028 	ldr	r3, [r0, #40]	; 0x28
   11c88:	e1a03823 	lsr	r3, r3, #16
   11c8c:	e1a03803 	lsl	r3, r3, #16
   11c90:	e3833a05 	orr	r3, r3, #20480	; 0x5000
   11c94:	e5a03028 	str	r3, [r0, #40]!	; 0x28
   11c98:	e3a01000 	mov	r1, #0
   11c9c:	ebfffa36 	bl	1057c <WriteThroughRegMask>
   11ca0:	e5940000 	ldr	r0, [r4]
   11ca4:	e2800c01 	add	r0, r0, #256	; 0x100
   11ca8:	ebfffa5a 	bl	10618 <ReadBackReg>
   11cac:	e5940000 	ldr	r0, [r4]
   11cb0:	e5903100 	ldr	r3, [r0, #256]	; 0x100
   11cb4:	e1a03803 	lsl	r3, r3, #16
   11cb8:	e1a03823 	lsr	r3, r3, #16
   11cbc:	e3833205 	orr	r3, r3, #1342177280	; 0x50000000
   11cc0:	e5803100 	str	r3, [r0, #256]	; 0x100
   11cc4:	e5903100 	ldr	r3, [r0, #256]	; 0x100
   11cc8:	e1a03823 	lsr	r3, r3, #16
   11ccc:	e1a03803 	lsl	r3, r3, #16
   11cd0:	e3833a0a 	orr	r3, r3, #40960	; 0xa000
   11cd4:	e5a03100 	str	r3, [r0, #256]!	; 0x100
   11cd8:	e3a01000 	mov	r1, #0
   11cdc:	ebfffa26 	bl	1057c <WriteThroughRegMask>
   11ce0:	e5940000 	ldr	r0, [r4]
   11ce4:	ebfffa4b 	bl	10618 <ReadBackReg>
   11ce8:	e5940000 	ldr	r0, [r4]
   11cec:	e5d03001 	ldrb	r3, [r0, #1]
   11cf0:	e3833004 	orr	r3, r3, #4
   11cf4:	e5c03001 	strb	r3, [r0, #1]
   11cf8:	e3a01000 	mov	r1, #0
   11cfc:	ebfffa1e 	bl	1057c <WriteThroughRegMask>
   11d00:	e3a00010 	mov	r0, #16
   11d04:	ebfffae0 	bl	1088c <HcdTransmitFifoFlush>
   11d08:	e2505000 	subs	r5, r0, #0
   11d0c:	e59f7320 	ldr	r7, [pc, #800]	; 12034 <HcdStart+0x5d0>
   11d10:	0a000011 	beq	11d5c <HcdStart+0x2f8>
   11d14:	e594000c 	ldr	r0, [r4, #12]
   11d18:	ebffe3f1 	bl	ace4 <MemoryDeallocate>
   11d1c:	e1a00c05 	lsl	r0, r5, #24
   11d20:	e1a00c40 	asr	r0, r0, #24
   11d24:	e8bd40f8 	pop	{r3, r4, r5, r6, r7, lr}
   11d28:	e12fff1e 	bx	lr
   11d2c:	e5940000 	ldr	r0, [r4]
   11d30:	e5d0300c 	ldrb	r3, [r0, #12]
   11d34:	e3833010 	orr	r3, r3, #16
   11d38:	e5c0300c 	strb	r3, [r0, #12]
   11d3c:	e5d0300c 	ldrb	r3, [r0, #12]
   11d40:	e3c33008 	bic	r3, r3, #8
   11d44:	e5e0300c 	strb	r3, [r0, #12]!
   11d48:	e3a03001 	mov	r3, #1
   11d4c:	e5c43010 	strb	r3, [r4, #16]
   11d50:	ebfffa09 	bl	1057c <WriteThroughRegMask>
   11d54:	ebfffa97 	bl	107b8 <HcdReset>
   11d58:	eaffff5e 	b	11ad8 <HcdStart+0x74>
   11d5c:	ebfffaf8 	bl	10944 <HcdReceiveFifoFlush>
   11d60:	e2505000 	subs	r5, r0, #0
   11d64:	1affffea 	bne	11d14 <HcdStart+0x2b0>
   11d68:	e5973004 	ldr	r3, [r7, #4]
   11d6c:	e5d32002 	ldrb	r2, [r3, #2]
   11d70:	e1b053a2 	lsrs	r5, r2, #7
   11d74:	11a00003 	movne	r0, r3
   11d78:	1a000030 	bne	11e40 <HcdStart+0x3dc>
   11d7c:	e5972000 	ldr	r2, [r7]
   11d80:	e5921048 	ldr	r1, [r2, #72]	; 0x48
   11d84:	e311090f 	tst	r1, #245760	; 0x3c000
   11d88:	e1a00003 	mov	r0, r3
   11d8c:	1a000073 	bne	11f60 <HcdStart+0x4fc>
   11d90:	e5922048 	ldr	r2, [r2, #72]	; 0x48
   11d94:	e312090f 	tst	r2, #245760	; 0x3c000
   11d98:	0a000028 	beq	11e40 <HcdStart+0x3dc>
   11d9c:	e3a07000 	mov	r7, #0
   11da0:	e2876008 	add	r6, r7, #8
   11da4:	e1a06286 	lsl	r6, r6, #5
   11da8:	e0800006 	add	r0, r0, r6
   11dac:	ebfffa19 	bl	10618 <ReadBackReg>
   11db0:	e5940004 	ldr	r0, [r4, #4]
   11db4:	e0800006 	add	r0, r0, r6
   11db8:	e5d03003 	ldrb	r3, [r0, #3]
   11dbc:	e3833080 	orr	r3, r3, #128	; 0x80
   11dc0:	e5c03003 	strb	r3, [r0, #3]
   11dc4:	e5d03003 	ldrb	r3, [r0, #3]
   11dc8:	e3833040 	orr	r3, r3, #64	; 0x40
   11dcc:	e5c03003 	strb	r3, [r0, #3]
   11dd0:	e5d03001 	ldrb	r3, [r0, #1]
   11dd4:	e3833080 	orr	r3, r3, #128	; 0x80
   11dd8:	e5c03001 	strb	r3, [r0, #1]
   11ddc:	e3a01000 	mov	r1, #0
   11de0:	ebfff9e5 	bl	1057c <WriteThroughRegMask>
   11de4:	e5940004 	ldr	r0, [r4, #4]
   11de8:	e0800006 	add	r0, r0, r6
   11dec:	ebfffa09 	bl	10618 <ReadBackReg>
   11df0:	e3a05001 	mov	r5, #1
   11df4:	ea000003 	b	11e08 <HcdStart+0x3a4>
   11df8:	ebfffa06 	bl	10618 <ReadBackReg>
   11dfc:	e3550601 	cmp	r5, #1048576	; 0x100000
   11e00:	8a000086 	bhi	12020 <HcdStart+0x5bc>
   11e04:	e2855001 	add	r5, r5, #1
   11e08:	e5943004 	ldr	r3, [r4, #4]
   11e0c:	e0830006 	add	r0, r3, r6
   11e10:	e5d01003 	ldrb	r1, [r0, #3]
   11e14:	e1b013a1 	lsrs	r1, r1, #7
   11e18:	e59f1214 	ldr	r1, [pc, #532]	; 12034 <HcdStart+0x5d0>
   11e1c:	1afffff5 	bne	11df8 <HcdStart+0x394>
   11e20:	e5912000 	ldr	r2, [r1]
   11e24:	e5922048 	ldr	r2, [r2, #72]	; 0x48
   11e28:	e1a02722 	lsr	r2, r2, #14
   11e2c:	e202200f 	and	r2, r2, #15
   11e30:	e2877001 	add	r7, r7, #1
   11e34:	e1520007 	cmp	r2, r7
   11e38:	e1a00003 	mov	r0, r3
   11e3c:	8affffd7 	bhi	11da0 <HcdStart+0x33c>
   11e40:	e2800040 	add	r0, r0, #64	; 0x40
   11e44:	ebfff9f3 	bl	10618 <ReadBackReg>
   11e48:	e5940004 	ldr	r0, [r4, #4]
   11e4c:	e5d03041 	ldrb	r3, [r0, #65]	; 0x41
   11e50:	e3130010 	tst	r3, #16
   11e54:	e59f51d8 	ldr	r5, [pc, #472]	; 12034 <HcdStart+0x5d0>
   11e58:	1a000006 	bne	11e78 <HcdStart+0x414>
   11e5c:	e5d03041 	ldrb	r3, [r0, #65]	; 0x41
   11e60:	e3833010 	orr	r3, r3, #16
   11e64:	e5c03041 	strb	r3, [r0, #65]	; 0x41
   11e68:	e3a01a01 	mov	r1, #4096	; 0x1000
   11e6c:	e2800040 	add	r0, r0, #64	; 0x40
   11e70:	ebfff9c1 	bl	1057c <WriteThroughRegMask>
   11e74:	e5950004 	ldr	r0, [r5, #4]
   11e78:	e2800040 	add	r0, r0, #64	; 0x40
   11e7c:	ebfff9e5 	bl	10618 <ReadBackReg>
   11e80:	e5940004 	ldr	r0, [r4, #4]
   11e84:	e5d03041 	ldrb	r3, [r0, #65]	; 0x41
   11e88:	e3833001 	orr	r3, r3, #1
   11e8c:	e5c03041 	strb	r3, [r0, #65]	; 0x41
   11e90:	e3a01c01 	mov	r1, #256	; 0x100
   11e94:	e2800040 	add	r0, r0, #64	; 0x40
   11e98:	ebfff9b7 	bl	1057c <WriteThroughRegMask>
   11e9c:	e59f0194 	ldr	r0, [pc, #404]	; 12038 <HcdStart+0x5d4>
   11ea0:	eb000241 	bl	127ac <MicroDelay>
   11ea4:	e5940004 	ldr	r0, [r4, #4]
   11ea8:	e5d03041 	ldrb	r3, [r0, #65]	; 0x41
   11eac:	e3c33001 	bic	r3, r3, #1
   11eb0:	e5c03041 	strb	r3, [r0, #65]	; 0x41
   11eb4:	e3a01c01 	mov	r1, #256	; 0x100
   11eb8:	e2800040 	add	r0, r0, #64	; 0x40
   11ebc:	ebfff9ae 	bl	1057c <WriteThroughRegMask>
   11ec0:	e5940004 	ldr	r0, [r4, #4]
   11ec4:	e3a05000 	mov	r5, #0
   11ec8:	e2800040 	add	r0, r0, #64	; 0x40
   11ecc:	ebfff9d1 	bl	10618 <ReadBackReg>
   11ed0:	e1a00c05 	lsl	r0, r5, #24
   11ed4:	e1a00c40 	asr	r0, r0, #24
   11ed8:	e8bd40f8 	pop	{r3, r4, r5, r6, r7, lr}
   11edc:	e12fff1e 	bx	lr
   11ee0:	e5d03049 	ldrb	r3, [r0, #73]	; 0x49
   11ee4:	e2033003 	and	r3, r3, #3
   11ee8:	e3530001 	cmp	r3, #1
   11eec:	1affff01 	bne	11af8 <HcdStart+0x94>
   11ef0:	e5d0300e 	ldrb	r3, [r0, #14]
   11ef4:	e3833002 	orr	r3, r3, #2
   11ef8:	e5c0300e 	strb	r3, [r0, #14]
   11efc:	e5d0300e 	ldrb	r3, [r0, #14]
   11f00:	e3833008 	orr	r3, r3, #8
   11f04:	e5c0300e 	strb	r3, [r0, #14]
   11f08:	eaffff00 	b	11b10 <HcdStart+0xac>
   11f0c:	e5d31049 	ldrb	r1, [r3, #73]	; 0x49
   11f10:	e2011003 	and	r1, r1, #3
   11f14:	e3510001 	cmp	r1, #1
   11f18:	1affff2c 	bne	11bd0 <HcdStart+0x16c>
   11f1c:	e5d3300e 	ldrb	r3, [r3, #14]
   11f20:	e3130002 	tst	r3, #2
   11f24:	0affff29 	beq	11bd0 <HcdStart+0x16c>
   11f28:	e5920004 	ldr	r0, [r2, #4]
   11f2c:	e5d03000 	ldrb	r3, [r0]
   11f30:	e3c33002 	bic	r3, r3, #2
   11f34:	e3833001 	orr	r3, r3, #1
   11f38:	e5c03000 	strb	r3, [r0]
   11f3c:	eaffff27 	b	11be0 <HcdStart+0x17c>
   11f40:	e5d0300d 	ldrb	r3, [r0, #13]
   11f44:	e3c33002 	bic	r3, r3, #2
   11f48:	e5c0300d 	strb	r3, [r0, #13]
   11f4c:	e5d0300d 	ldrb	r3, [r0, #13]
   11f50:	e3c33001 	bic	r3, r3, #1
   11f54:	e5c0300d 	strb	r3, [r0, #13]
   11f58:	eaffff0c 	b	11b90 <HcdStart+0x12c>
   11f5c:	e5970004 	ldr	r0, [r7, #4]
   11f60:	e2856008 	add	r6, r5, #8
   11f64:	e1a06286 	lsl	r6, r6, #5
   11f68:	e0800006 	add	r0, r0, r6
   11f6c:	ebfff9a9 	bl	10618 <ReadBackReg>
   11f70:	e5940004 	ldr	r0, [r4, #4]
   11f74:	e0800006 	add	r0, r0, r6
   11f78:	e5d03003 	ldrb	r3, [r0, #3]
   11f7c:	e3c33080 	bic	r3, r3, #128	; 0x80
   11f80:	e5c03003 	strb	r3, [r0, #3]
   11f84:	e5d03003 	ldrb	r3, [r0, #3]
   11f88:	e3833040 	orr	r3, r3, #64	; 0x40
   11f8c:	e5c03003 	strb	r3, [r0, #3]
   11f90:	e5d03001 	ldrb	r3, [r0, #1]
   11f94:	e3833080 	orr	r3, r3, #128	; 0x80
   11f98:	e5c03001 	strb	r3, [r0, #1]
   11f9c:	e3a01000 	mov	r1, #0
   11fa0:	ebfff975 	bl	1057c <WriteThroughRegMask>
   11fa4:	e5942000 	ldr	r2, [r4]
   11fa8:	e5923048 	ldr	r3, [r2, #72]	; 0x48
   11fac:	e1a03723 	lsr	r3, r3, #14
   11fb0:	e203300f 	and	r3, r3, #15
   11fb4:	e2855001 	add	r5, r5, #1
   11fb8:	e1530005 	cmp	r3, r5
   11fbc:	e59f3070 	ldr	r3, [pc, #112]	; 12034 <HcdStart+0x5d0>
   11fc0:	8affffe5 	bhi	11f5c <HcdStart+0x4f8>
   11fc4:	e5930004 	ldr	r0, [r3, #4]
   11fc8:	eaffff70 	b	11d90 <HcdStart+0x32c>
   11fcc:	e5d0300d 	ldrb	r3, [r0, #13]
   11fd0:	e3c33002 	bic	r3, r3, #2
   11fd4:	e5c0300d 	strb	r3, [r0, #13]
   11fd8:	e5d0300d 	ldrb	r3, [r0, #13]
   11fdc:	e3833001 	orr	r3, r3, #1
   11fe0:	e5c0300d 	strb	r3, [r0, #13]
   11fe4:	eafffee9 	b	11b90 <HcdStart+0x12c>
   11fe8:	e5d0300d 	ldrb	r3, [r0, #13]
   11fec:	e3833002 	orr	r3, r3, #2
   11ff0:	e5c0300d 	strb	r3, [r0, #13]
   11ff4:	e5d0300d 	ldrb	r3, [r0, #13]
   11ff8:	e1833002 	orr	r3, r3, r2
   11ffc:	e5c0300d 	strb	r3, [r0, #13]
   12000:	eafffee2 	b	11b90 <HcdStart+0x12c>
   12004:	e3a050f9 	mov	r5, #249	; 0xf9
   12008:	eaffff43 	b	11d1c <HcdStart+0x2b8>
   1200c:	e59f0028 	ldr	r0, [pc, #40]	; 1203c <HcdStart+0x5d8>
   12010:	e3a0102c 	mov	r1, #44	; 0x2c
   12014:	ebffe5da 	bl	b784 <LogPrint>
   12018:	e3a050fc 	mov	r5, #252	; 0xfc
   1201c:	eaffff3e 	b	11d1c <HcdStart+0x2b8>
   12020:	e59f0018 	ldr	r0, [pc, #24]	; 12040 <HcdStart+0x5dc>
   12024:	e3a0102a 	mov	r1, #42	; 0x2a
   12028:	e1a02007 	mov	r2, r7
   1202c:	ebffe386 	bl	ae4c <LogPrintF>
   12030:	eaffff73 	b	11e04 <HcdStart+0x3a0>
   12034:	00016180 	.word	0x00016180
   12038:	0000c350 	.word	0x0000c350
   1203c:	000141d0 	.word	0x000141d0
   12040:	000141fc 	.word	0x000141fc

00012044 <HcdStop>:
   12044:	e92d4008 	push	{r3, lr}
   12048:	e59f3014 	ldr	r3, [pc, #20]	; 12064 <HcdStop+0x20>
   1204c:	e593000c 	ldr	r0, [r3, #12]
   12050:	e3500000 	cmp	r0, #0
   12054:	1bffe322 	blne	ace4 <MemoryDeallocate>
   12058:	e3a00000 	mov	r0, #0
   1205c:	e8bd4008 	pop	{r3, lr}
   12060:	e12fff1e 	bx	lr
   12064:	00016180 	.word	0x00016180

00012068 <HcdDeinitialise>:
   12068:	e92d4010 	push	{r4, lr}
   1206c:	e59f402c 	ldr	r4, [pc, #44]	; 120a0 <HcdDeinitialise+0x38>
   12070:	e5940000 	ldr	r0, [r4]
   12074:	e3500000 	cmp	r0, #0
   12078:	1bffe319 	blne	ace4 <MemoryDeallocate>
   1207c:	e5940004 	ldr	r0, [r4, #4]
   12080:	e3500000 	cmp	r0, #0
   12084:	1bffe316 	blne	ace4 <MemoryDeallocate>
   12088:	e5940008 	ldr	r0, [r4, #8]
   1208c:	e3500000 	cmp	r0, #0
   12090:	1bffe313 	blne	ace4 <MemoryDeallocate>
   12094:	e3a00000 	mov	r0, #0
   12098:	e8bd4010 	pop	{r4, lr}
   1209c:	e12fff1e 	bx	lr
   120a0:	00016180 	.word	0x00016180

000120a4 <HcdProcessRootHubMessage>:
   120a4:	e92d4070 	push	{r4, r5, r6, lr}
   120a8:	e1a0c821 	lsr	ip, r1, #16
   120ac:	e20cc003 	and	ip, ip, #3
   120b0:	e24dd008 	sub	sp, sp, #8
   120b4:	e35c0003 	cmp	ip, #3
   120b8:	e3a0c102 	mov	ip, #-2147483648	; 0x80000000
   120bc:	e58d1004 	str	r1, [sp, #4]
   120c0:	e1a04000 	mov	r4, r0
   120c4:	e580c008 	str	ip, [r0, #8]
   120c8:	e59d1018 	ldr	r1, [sp, #24]
   120cc:	0a000076 	beq	122ac <HcdProcessRootHubMessage+0x208>
   120d0:	e5d1c001 	ldrb	ip, [r1, #1]
   120d4:	e35c0009 	cmp	ip, #9
   120d8:	979ff10c 	ldrls	pc, [pc, ip, lsl #2]
   120dc:	ea00002e 	b	1219c <HcdProcessRootHubMessage+0xf8>
   120e0:	000121b8 	.word	0x000121b8
   120e4:	00012180 	.word	0x00012180
   120e8:	0001219c 	.word	0x0001219c
   120ec:	00012108 	.word	0x00012108
   120f0:	0001219c 	.word	0x0001219c
   120f4:	0001225c 	.word	0x0001225c
   120f8:	00012278 	.word	0x00012278
   120fc:	0001219c 	.word	0x0001219c
   12100:	000121ac 	.word	0x000121ac
   12104:	0001215c 	.word	0x0001215c
   12108:	e5d13000 	ldrb	r3, [r1]
   1210c:	e3530020 	cmp	r3, #32
   12110:	0a000011 	beq	1215c <HcdProcessRootHubMessage+0xb8>
   12114:	e3530023 	cmp	r3, #35	; 0x23
   12118:	1a00001f 	bne	1219c <HcdProcessRootHubMessage+0xf8>
   1211c:	e5d13002 	ldrb	r3, [r1, #2]
   12120:	e3530004 	cmp	r3, #4
   12124:	0a00014b 	beq	12658 <HcdProcessRootHubMessage+0x5b4>
   12128:	e3530008 	cmp	r3, #8
   1212c:	1a00000a 	bne	1215c <HcdProcessRootHubMessage+0xb8>
   12130:	e59f564c 	ldr	r5, [pc, #1612]	; 12784 <HcdProcessRootHubMessage+0x6e0>
   12134:	e5950000 	ldr	r0, [r5]
   12138:	e2800040 	add	r0, r0, #64	; 0x40
   1213c:	ebfff935 	bl	10618 <ReadBackReg>
   12140:	e5950000 	ldr	r0, [r5]
   12144:	e5d03041 	ldrb	r3, [r0, #65]	; 0x41
   12148:	e3833010 	orr	r3, r3, #16
   1214c:	e5c03041 	strb	r3, [r0, #65]	; 0x41
   12150:	e3a01a01 	mov	r1, #4096	; 0x1000
   12154:	e2800040 	add	r0, r0, #64	; 0x40
   12158:	ebfff907 	bl	1057c <WriteThroughRegMask>
   1215c:	e3a05000 	mov	r5, #0
   12160:	e5943008 	ldr	r3, [r4, #8]
   12164:	e3c33102 	bic	r3, r3, #-2147483648	; 0x80000000
   12168:	e5843008 	str	r3, [r4, #8]
   1216c:	e5845418 	str	r5, [r4, #1048]	; 0x418
   12170:	e3a00000 	mov	r0, #0
   12174:	e28dd008 	add	sp, sp, #8
   12178:	e8bd4070 	pop	{r4, r5, r6, lr}
   1217c:	e12fff1e 	bx	lr
   12180:	e5d13000 	ldrb	r3, [r1]
   12184:	e3530020 	cmp	r3, #32
   12188:	0afffff3 	beq	1215c <HcdProcessRootHubMessage+0xb8>
   1218c:	e3530023 	cmp	r3, #35	; 0x23
   12190:	0a0000c2 	beq	124a0 <HcdProcessRootHubMessage+0x3fc>
   12194:	e3530002 	cmp	r3, #2
   12198:	0affffef 	beq	1215c <HcdProcessRootHubMessage+0xb8>
   1219c:	e5943008 	ldr	r3, [r4, #8]
   121a0:	e3833002 	orr	r3, r3, #2
   121a4:	e5843008 	str	r3, [r4, #8]
   121a8:	eaffffeb 	b	1215c <HcdProcessRootHubMessage+0xb8>
   121ac:	e3a05001 	mov	r5, #1
   121b0:	e5c25000 	strb	r5, [r2]
   121b4:	eaffffe9 	b	12160 <HcdProcessRootHubMessage+0xbc>
   121b8:	e5d13000 	ldrb	r3, [r1]
   121bc:	e2433080 	sub	r3, r3, #128	; 0x80
   121c0:	e3530023 	cmp	r3, #35	; 0x23
   121c4:	979ff103 	ldrls	pc, [pc, r3, lsl #2]
   121c8:	ea00009c 	b	12440 <HcdProcessRootHubMessage+0x39c>
   121cc:	00012420 	.word	0x00012420
   121d0:	00012430 	.word	0x00012430
   121d4:	00012430 	.word	0x00012430
   121d8:	00012440 	.word	0x00012440
   121dc:	00012440 	.word	0x00012440
   121e0:	00012440 	.word	0x00012440
   121e4:	00012440 	.word	0x00012440
   121e8:	00012440 	.word	0x00012440
   121ec:	00012440 	.word	0x00012440
   121f0:	00012440 	.word	0x00012440
   121f4:	00012440 	.word	0x00012440
   121f8:	00012440 	.word	0x00012440
   121fc:	00012440 	.word	0x00012440
   12200:	00012440 	.word	0x00012440
   12204:	00012440 	.word	0x00012440
   12208:	00012440 	.word	0x00012440
   1220c:	00012440 	.word	0x00012440
   12210:	00012440 	.word	0x00012440
   12214:	00012440 	.word	0x00012440
   12218:	00012440 	.word	0x00012440
   1221c:	00012440 	.word	0x00012440
   12220:	00012440 	.word	0x00012440
   12224:	00012440 	.word	0x00012440
   12228:	00012440 	.word	0x00012440
   1222c:	00012440 	.word	0x00012440
   12230:	00012440 	.word	0x00012440
   12234:	00012440 	.word	0x00012440
   12238:	00012440 	.word	0x00012440
   1223c:	00012440 	.word	0x00012440
   12240:	00012440 	.word	0x00012440
   12244:	00012440 	.word	0x00012440
   12248:	00012440 	.word	0x00012440
   1224c:	00012410 	.word	0x00012410
   12250:	00012440 	.word	0x00012440
   12254:	00012440 	.word	0x00012440
   12258:	000122c4 	.word	0x000122c4
   1225c:	e5d12002 	ldrb	r2, [r1, #2]
   12260:	e5d11003 	ldrb	r1, [r1, #3]
   12264:	e59f351c 	ldr	r3, [pc, #1308]	; 12788 <HcdProcessRootHubMessage+0x6e4>
   12268:	e1822401 	orr	r2, r2, r1, lsl #8
   1226c:	e5832000 	str	r2, [r3]
   12270:	e3a05000 	mov	r5, #0
   12274:	eaffffb9 	b	12160 <HcdProcessRootHubMessage+0xbc>
   12278:	e5d10000 	ldrb	r0, [r1]
   1227c:	e3500080 	cmp	r0, #128	; 0x80
   12280:	0a000072 	beq	12450 <HcdProcessRootHubMessage+0x3ac>
   12284:	e35000a0 	cmp	r0, #160	; 0xa0
   12288:	1affffc3 	bne	1219c <HcdProcessRootHubMessage+0xf8>
   1228c:	e59f14f8 	ldr	r1, [pc, #1272]	; 1278c <HcdProcessRootHubMessage+0x6e8>
   12290:	e5f15058 	ldrb	r5, [r1, #88]!	; 0x58
   12294:	e1530005 	cmp	r3, r5
   12298:	31a05003 	movcc	r5, r3
   1229c:	e1a00002 	mov	r0, r2
   122a0:	e1a02005 	mov	r2, r5
   122a4:	ebffe2d5 	bl	ae00 <MemoryCopy>
   122a8:	eaffffac 	b	12160 <HcdProcessRootHubMessage+0xbc>
   122ac:	e59f04dc 	ldr	r0, [pc, #1244]	; 12790 <HcdProcessRootHubMessage+0x6ec>
   122b0:	e3a0102e 	mov	r1, #46	; 0x2e
   122b4:	ebffe532 	bl	b784 <LogPrint>
   122b8:	e3a03002 	mov	r3, #2
   122bc:	e5843008 	str	r3, [r4, #8]
   122c0:	eaffffaa 	b	12170 <HcdProcessRootHubMessage+0xcc>
   122c4:	e59f54b8 	ldr	r5, [pc, #1208]	; 12784 <HcdProcessRootHubMessage+0x6e0>
   122c8:	e5950000 	ldr	r0, [r5]
   122cc:	e2800040 	add	r0, r0, #64	; 0x40
   122d0:	e58d2000 	str	r2, [sp]
   122d4:	ebfff8cf 	bl	10618 <ReadBackReg>
   122d8:	e59d2000 	ldr	r2, [sp]
   122dc:	e3a01000 	mov	r1, #0
   122e0:	e5953000 	ldr	r3, [r5]
   122e4:	e5821000 	str	r1, [r2]
   122e8:	e5d30040 	ldrb	r0, [r3, #64]	; 0x40
   122ec:	e5d21000 	ldrb	r1, [r2]
   122f0:	e2000001 	and	r0, r0, #1
   122f4:	e3c11001 	bic	r1, r1, #1
   122f8:	e1801001 	orr	r1, r0, r1
   122fc:	e5c21000 	strb	r1, [r2]
   12300:	e5d30040 	ldrb	r0, [r3, #64]	; 0x40
   12304:	e20110ff 	and	r1, r1, #255	; 0xff
   12308:	e1a000a0 	lsr	r0, r0, #1
   1230c:	e2000002 	and	r0, r0, #2
   12310:	e3c11002 	bic	r1, r1, #2
   12314:	e1801001 	orr	r1, r0, r1
   12318:	e5c21000 	strb	r1, [r2]
   1231c:	e5d30040 	ldrb	r0, [r3, #64]	; 0x40
   12320:	e20110ff 	and	r1, r1, #255	; 0xff
   12324:	e1a003a0 	lsr	r0, r0, #7
   12328:	e3c11004 	bic	r1, r1, #4
   1232c:	e1811100 	orr	r1, r1, r0, lsl #2
   12330:	e5c21000 	strb	r1, [r2]
   12334:	e5d30040 	ldrb	r0, [r3, #64]	; 0x40
   12338:	e20110ff 	and	r1, r1, #255	; 0xff
   1233c:	e1a000a0 	lsr	r0, r0, #1
   12340:	e2000008 	and	r0, r0, #8
   12344:	e3c11008 	bic	r1, r1, #8
   12348:	e1801001 	orr	r1, r0, r1
   1234c:	e5c21000 	strb	r1, [r2]
   12350:	e5d30041 	ldrb	r0, [r3, #65]	; 0x41
   12354:	e20110ff 	and	r1, r1, #255	; 0xff
   12358:	e2000001 	and	r0, r0, #1
   1235c:	e3c11010 	bic	r1, r1, #16
   12360:	e1811200 	orr	r1, r1, r0, lsl #4
   12364:	e5c21000 	strb	r1, [r2]
   12368:	e5d20001 	ldrb	r0, [r2, #1]
   1236c:	e5d31041 	ldrb	r1, [r3, #65]	; 0x41
   12370:	e3c00001 	bic	r0, r0, #1
   12374:	e1a01d81 	lsl	r1, r1, #27
   12378:	e1801fa1 	orr	r1, r0, r1, lsr #31
   1237c:	e5c21001 	strb	r1, [r2, #1]
   12380:	e5d31042 	ldrb	r1, [r3, #66]	; 0x42
   12384:	e3110006 	tst	r1, #6
   12388:	1a0000d8 	bne	126f0 <HcdProcessRootHubMessage+0x64c>
   1238c:	e5d21001 	ldrb	r1, [r2, #1]
   12390:	e3811004 	orr	r1, r1, #4
   12394:	e5c21001 	strb	r1, [r2, #1]
   12398:	e5931040 	ldr	r1, [r3, #64]	; 0x40
   1239c:	e5d20001 	ldrb	r0, [r2, #1]
   123a0:	e1a01521 	lsr	r1, r1, #10
   123a4:	e3c00008 	bic	r0, r0, #8
   123a8:	e2011008 	and	r1, r1, #8
   123ac:	e1811000 	orr	r1, r1, r0
   123b0:	e5c21001 	strb	r1, [r2, #1]
   123b4:	e5d20002 	ldrb	r0, [r2, #2]
   123b8:	e5d31040 	ldrb	r1, [r3, #64]	; 0x40
   123bc:	e3c00001 	bic	r0, r0, #1
   123c0:	e1a01f01 	lsl	r1, r1, #30
   123c4:	e1801fa1 	orr	r1, r0, r1, lsr #31
   123c8:	e5c21002 	strb	r1, [r2, #2]
   123cc:	e5d30040 	ldrb	r0, [r3, #64]	; 0x40
   123d0:	e20110ff 	and	r1, r1, #255	; 0xff
   123d4:	e1a00120 	lsr	r0, r0, #2
   123d8:	e2000002 	and	r0, r0, #2
   123dc:	e3c11002 	bic	r1, r1, #2
   123e0:	e1801001 	orr	r1, r0, r1
   123e4:	e5c21002 	strb	r1, [r2, #2]
   123e8:	e5d31040 	ldrb	r1, [r3, #64]	; 0x40
   123ec:	e5d23002 	ldrb	r3, [r2, #2]
   123f0:	e1a01121 	lsr	r1, r1, #2
   123f4:	e2011008 	and	r1, r1, #8
   123f8:	e20330f7 	and	r3, r3, #247	; 0xf7
   123fc:	e1833001 	orr	r3, r3, r1
   12400:	e3833010 	orr	r3, r3, #16
   12404:	e5c23002 	strb	r3, [r2, #2]
   12408:	e3a05004 	mov	r5, #4
   1240c:	eaffff53 	b	12160 <HcdProcessRootHubMessage+0xbc>
   12410:	e3a03000 	mov	r3, #0
   12414:	e5823000 	str	r3, [r2]
   12418:	e3a05004 	mov	r5, #4
   1241c:	eaffff4f 	b	12160 <HcdProcessRootHubMessage+0xbc>
   12420:	e3a03001 	mov	r3, #1
   12424:	e1c230b0 	strh	r3, [r2]
   12428:	e3a05002 	mov	r5, #2
   1242c:	eaffff4b 	b	12160 <HcdProcessRootHubMessage+0xbc>
   12430:	e3a03000 	mov	r3, #0
   12434:	e1c230b0 	strh	r3, [r2]
   12438:	e3a05002 	mov	r5, #2
   1243c:	eaffff47 	b	12160 <HcdProcessRootHubMessage+0xbc>
   12440:	e3a03002 	mov	r3, #2
   12444:	e5803008 	str	r3, [r0, #8]
   12448:	e3a05000 	mov	r5, #0
   1244c:	eaffff43 	b	12160 <HcdProcessRootHubMessage+0xbc>
   12450:	e5d10002 	ldrb	r0, [r1, #2]
   12454:	e5d11003 	ldrb	r1, [r1, #3]
   12458:	e1800401 	orr	r0, r0, r1, lsl #8
   1245c:	e1a00800 	lsl	r0, r0, #16
   12460:	e1a01c20 	lsr	r1, r0, #24
   12464:	e3510002 	cmp	r1, #2
   12468:	e1a00820 	lsr	r0, r0, #16
   1246c:	0a0000b4 	beq	12744 <HcdProcessRootHubMessage+0x6a0>
   12470:	e3510003 	cmp	r1, #3
   12474:	0a0000a5 	beq	12710 <HcdProcessRootHubMessage+0x66c>
   12478:	e3510001 	cmp	r1, #1
   1247c:	1affff46 	bne	1219c <HcdProcessRootHubMessage+0xf8>
   12480:	e3530012 	cmp	r3, #18
   12484:	31a05003 	movcc	r5, r3
   12488:	23a05012 	movcs	r5, #18
   1248c:	e1a00002 	mov	r0, r2
   12490:	e59f12f4 	ldr	r1, [pc, #756]	; 1278c <HcdProcessRootHubMessage+0x6e8>
   12494:	e1a02005 	mov	r2, r5
   12498:	ebffe258 	bl	ae00 <MemoryCopy>
   1249c:	eaffff2f 	b	12160 <HcdProcessRootHubMessage+0xbc>
   124a0:	e5d13002 	ldrb	r3, [r1, #2]
   124a4:	e2433001 	sub	r3, r3, #1
   124a8:	e3530012 	cmp	r3, #18
   124ac:	979ff103 	ldrls	pc, [pc, r3, lsl #2]
   124b0:	eaffff29 	b	1215c <HcdProcessRootHubMessage+0xb8>
   124b4:	00012628 	.word	0x00012628
   124b8:	000125b0 	.word	0x000125b0
   124bc:	0001215c 	.word	0x0001215c
   124c0:	0001215c 	.word	0x0001215c
   124c4:	0001215c 	.word	0x0001215c
   124c8:	0001215c 	.word	0x0001215c
   124cc:	0001215c 	.word	0x0001215c
   124d0:	00012590 	.word	0x00012590
   124d4:	0001215c 	.word	0x0001215c
   124d8:	0001215c 	.word	0x0001215c
   124dc:	0001215c 	.word	0x0001215c
   124e0:	0001215c 	.word	0x0001215c
   124e4:	0001215c 	.word	0x0001215c
   124e8:	0001215c 	.word	0x0001215c
   124ec:	0001215c 	.word	0x0001215c
   124f0:	00012560 	.word	0x00012560
   124f4:	00012530 	.word	0x00012530
   124f8:	0001215c 	.word	0x0001215c
   124fc:	00012500 	.word	0x00012500
   12500:	e59f527c 	ldr	r5, [pc, #636]	; 12784 <HcdProcessRootHubMessage+0x6e0>
   12504:	e5950000 	ldr	r0, [r5]
   12508:	e2800040 	add	r0, r0, #64	; 0x40
   1250c:	ebfff841 	bl	10618 <ReadBackReg>
   12510:	e5950000 	ldr	r0, [r5]
   12514:	e5d03040 	ldrb	r3, [r0, #64]	; 0x40
   12518:	e3833020 	orr	r3, r3, #32
   1251c:	e5e03040 	strb	r3, [r0, #64]!	; 0x40
   12520:	e3a01020 	mov	r1, #32
   12524:	ebfff814 	bl	1057c <WriteThroughRegMask>
   12528:	e3a05000 	mov	r5, #0
   1252c:	eaffff0b 	b	12160 <HcdProcessRootHubMessage+0xbc>
   12530:	e59f524c 	ldr	r5, [pc, #588]	; 12784 <HcdProcessRootHubMessage+0x6e0>
   12534:	e5950000 	ldr	r0, [r5]
   12538:	e2800040 	add	r0, r0, #64	; 0x40
   1253c:	ebfff835 	bl	10618 <ReadBackReg>
   12540:	e5950000 	ldr	r0, [r5]
   12544:	e5d03040 	ldrb	r3, [r0, #64]	; 0x40
   12548:	e3833008 	orr	r3, r3, #8
   1254c:	e5e03040 	strb	r3, [r0, #64]!	; 0x40
   12550:	e3a01008 	mov	r1, #8
   12554:	ebfff808 	bl	1057c <WriteThroughRegMask>
   12558:	e3a05000 	mov	r5, #0
   1255c:	eafffeff 	b	12160 <HcdProcessRootHubMessage+0xbc>
   12560:	e59f521c 	ldr	r5, [pc, #540]	; 12784 <HcdProcessRootHubMessage+0x6e0>
   12564:	e5950000 	ldr	r0, [r5]
   12568:	e2800040 	add	r0, r0, #64	; 0x40
   1256c:	ebfff829 	bl	10618 <ReadBackReg>
   12570:	e5950000 	ldr	r0, [r5]
   12574:	e5d03040 	ldrb	r3, [r0, #64]	; 0x40
   12578:	e3833002 	orr	r3, r3, #2
   1257c:	e5e03040 	strb	r3, [r0, #64]!	; 0x40
   12580:	e3a01002 	mov	r1, #2
   12584:	ebfff7fc 	bl	1057c <WriteThroughRegMask>
   12588:	e3a05000 	mov	r5, #0
   1258c:	eafffef3 	b	12160 <HcdProcessRootHubMessage+0xbc>
   12590:	e59f51ec 	ldr	r5, [pc, #492]	; 12784 <HcdProcessRootHubMessage+0x6e0>
   12594:	e5950000 	ldr	r0, [r5]
   12598:	e2800040 	add	r0, r0, #64	; 0x40
   1259c:	ebfff81d 	bl	10618 <ReadBackReg>
   125a0:	e5950000 	ldr	r0, [r5]
   125a4:	e5d03041 	ldrb	r3, [r0, #65]	; 0x41
   125a8:	e3c33010 	bic	r3, r3, #16
   125ac:	eafffee6 	b	1214c <HcdProcessRootHubMessage+0xa8>
   125b0:	e59f61dc 	ldr	r6, [pc, #476]	; 12794 <HcdProcessRootHubMessage+0x6f0>
   125b4:	e5960000 	ldr	r0, [r6]
   125b8:	ebfff83e 	bl	106b8 <ClearReg>
   125bc:	e59f51c0 	ldr	r5, [pc, #448]	; 12784 <HcdProcessRootHubMessage+0x6e0>
   125c0:	e5960000 	ldr	r0, [r6]
   125c4:	ebfff811 	bl	10610 <WriteThroughReg>
   125c8:	e59f01c8 	ldr	r0, [pc, #456]	; 12798 <HcdProcessRootHubMessage+0x6f4>
   125cc:	eb000076 	bl	127ac <MicroDelay>
   125d0:	e5950000 	ldr	r0, [r5]
   125d4:	e2800040 	add	r0, r0, #64	; 0x40
   125d8:	ebfff80e 	bl	10618 <ReadBackReg>
   125dc:	e5950000 	ldr	r0, [r5]
   125e0:	e5d03040 	ldrb	r3, [r0, #64]	; 0x40
   125e4:	e3833040 	orr	r3, r3, #64	; 0x40
   125e8:	e5e03040 	strb	r3, [r0, #64]!	; 0x40
   125ec:	e3a01040 	mov	r1, #64	; 0x40
   125f0:	ebfff7e1 	bl	1057c <WriteThroughRegMask>
   125f4:	e59f01a0 	ldr	r0, [pc, #416]	; 1279c <HcdProcessRootHubMessage+0x6f8>
   125f8:	eb00006b 	bl	127ac <MicroDelay>
   125fc:	e5950000 	ldr	r0, [r5]
   12600:	e5d03040 	ldrb	r3, [r0, #64]	; 0x40
   12604:	e3c33040 	bic	r3, r3, #64	; 0x40
   12608:	e5c03040 	strb	r3, [r0, #64]	; 0x40
   1260c:	e5d03040 	ldrb	r3, [r0, #64]	; 0x40
   12610:	e3c33080 	bic	r3, r3, #128	; 0x80
   12614:	e5e03040 	strb	r3, [r0, #64]!	; 0x40
   12618:	e3a010c0 	mov	r1, #192	; 0xc0
   1261c:	ebfff7d6 	bl	1057c <WriteThroughRegMask>
   12620:	e3a05000 	mov	r5, #0
   12624:	eafffecd 	b	12160 <HcdProcessRootHubMessage+0xbc>
   12628:	e59f5154 	ldr	r5, [pc, #340]	; 12784 <HcdProcessRootHubMessage+0x6e0>
   1262c:	e5950000 	ldr	r0, [r5]
   12630:	e2800040 	add	r0, r0, #64	; 0x40
   12634:	ebfff7f7 	bl	10618 <ReadBackReg>
   12638:	e5950000 	ldr	r0, [r5]
   1263c:	e5d03040 	ldrb	r3, [r0, #64]	; 0x40
   12640:	e3833004 	orr	r3, r3, #4
   12644:	e5e03040 	strb	r3, [r0, #64]!	; 0x40
   12648:	e3a01004 	mov	r1, #4
   1264c:	ebfff7ca 	bl	1057c <WriteThroughRegMask>
   12650:	e3a05000 	mov	r5, #0
   12654:	eafffec1 	b	12160 <HcdProcessRootHubMessage+0xbc>
   12658:	e59f5134 	ldr	r5, [pc, #308]	; 12794 <HcdProcessRootHubMessage+0x6f0>
   1265c:	e5950000 	ldr	r0, [r5]
   12660:	ebfff7ec 	bl	10618 <ReadBackReg>
   12664:	e5950000 	ldr	r0, [r5]
   12668:	e5d03000 	ldrb	r3, [r0]
   1266c:	e3c33020 	bic	r3, r3, #32
   12670:	e5c03000 	strb	r3, [r0]
   12674:	e5d03000 	ldrb	r3, [r0]
   12678:	e3c33001 	bic	r3, r3, #1
   1267c:	e5c03000 	strb	r3, [r0]
   12680:	ebfff7e2 	bl	10610 <WriteThroughReg>
   12684:	e59f60f8 	ldr	r6, [pc, #248]	; 12784 <HcdProcessRootHubMessage+0x6e0>
   12688:	e5950000 	ldr	r0, [r5]
   1268c:	ebfff809 	bl	106b8 <ClearReg>
   12690:	e5950000 	ldr	r0, [r5]
   12694:	ebfff7dd 	bl	10610 <WriteThroughReg>
   12698:	e5960000 	ldr	r0, [r6]
   1269c:	e2800040 	add	r0, r0, #64	; 0x40
   126a0:	ebfff7dc 	bl	10618 <ReadBackReg>
   126a4:	e5960000 	ldr	r0, [r6]
   126a8:	e5d03040 	ldrb	r3, [r0, #64]	; 0x40
   126ac:	e3c33080 	bic	r3, r3, #128	; 0x80
   126b0:	e5c03040 	strb	r3, [r0, #64]	; 0x40
   126b4:	e5d03041 	ldrb	r3, [r0, #65]	; 0x41
   126b8:	e3833001 	orr	r3, r3, #1
   126bc:	e5c03041 	strb	r3, [r0, #65]	; 0x41
   126c0:	e5d03041 	ldrb	r3, [r0, #65]	; 0x41
   126c4:	e3833010 	orr	r3, r3, #16
   126c8:	e5c03041 	strb	r3, [r0, #65]	; 0x41
   126cc:	e3a01d46 	mov	r1, #4480	; 0x1180
   126d0:	e2800040 	add	r0, r0, #64	; 0x40
   126d4:	ebfff7a8 	bl	1057c <WriteThroughRegMask>
   126d8:	e59f00c0 	ldr	r0, [pc, #192]	; 127a0 <HcdProcessRootHubMessage+0x6fc>
   126dc:	eb000032 	bl	127ac <MicroDelay>
   126e0:	e5960000 	ldr	r0, [r6]
   126e4:	e5d03041 	ldrb	r3, [r0, #65]	; 0x41
   126e8:	e3c33001 	bic	r3, r3, #1
   126ec:	eafffe96 	b	1214c <HcdProcessRootHubMessage+0xa8>
   126f0:	e5d31042 	ldrb	r1, [r3, #66]	; 0x42
   126f4:	e1a010a1 	lsr	r1, r1, #1
   126f8:	e2011003 	and	r1, r1, #3
   126fc:	e3510002 	cmp	r1, #2
   12700:	05d21001 	ldrbeq	r1, [r2, #1]
   12704:	03811002 	orreq	r1, r1, #2
   12708:	05c21001 	strbeq	r1, [r2, #1]
   1270c:	eaffff21 	b	12398 <HcdProcessRootHubMessage+0x2f4>
   12710:	e20000ff 	and	r0, r0, #255	; 0xff
   12714:	e3500000 	cmp	r0, #0
   12718:	0a000011 	beq	12764 <HcdProcessRootHubMessage+0x6c0>
   1271c:	e3500001 	cmp	r0, #1
   12720:	1afffe8d 	bne	1215c <HcdProcessRootHubMessage+0xb8>
   12724:	e59f1060 	ldr	r1, [pc, #96]	; 1278c <HcdProcessRootHubMessage+0x6e8>
   12728:	e5f15034 	ldrb	r5, [r1, #52]!	; 0x34
   1272c:	e1530005 	cmp	r3, r5
   12730:	31a05003 	movcc	r5, r3
   12734:	e1a00002 	mov	r0, r2
   12738:	e1a02005 	mov	r2, r5
   1273c:	ebffe1af 	bl	ae00 <MemoryCopy>
   12740:	eafffe86 	b	12160 <HcdProcessRootHubMessage+0xbc>
   12744:	e3530019 	cmp	r3, #25
   12748:	31a05003 	movcc	r5, r3
   1274c:	23a05019 	movcs	r5, #25
   12750:	e1a00002 	mov	r0, r2
   12754:	e59f1048 	ldr	r1, [pc, #72]	; 127a4 <HcdProcessRootHubMessage+0x700>
   12758:	e1a02005 	mov	r2, r5
   1275c:	ebffe1a7 	bl	ae00 <MemoryCopy>
   12760:	eafffe7e 	b	12160 <HcdProcessRootHubMessage+0xbc>
   12764:	e59f1020 	ldr	r1, [pc, #32]	; 1278c <HcdProcessRootHubMessage+0x6e8>
   12768:	e5f15030 	ldrb	r5, [r1, #48]!	; 0x30
   1276c:	e1530005 	cmp	r3, r5
   12770:	31a05003 	movcc	r5, r3
   12774:	e1a00002 	mov	r0, r2
   12778:	e1a02005 	mov	r2, r5
   1277c:	ebffe19f 	bl	ae00 <MemoryCopy>
   12780:	eafffe76 	b	12160 <HcdProcessRootHubMessage+0xbc>
   12784:	00016184 	.word	0x00016184
   12788:	00016194 	.word	0x00016194
   1278c:	000160e4 	.word	0x000160e4
   12790:	00014228 	.word	0x00014228
   12794:	00016188 	.word	0x00016188
   12798:	00001388 	.word	0x00001388
   1279c:	000186a0 	.word	0x000186a0
   127a0:	0000ea60 	.word	0x0000ea60
   127a4:	000160f8 	.word	0x000160f8

000127a8 <Bcm2835Load>:
   127a8:	e12fff1e 	bx	lr

000127ac <MicroDelay>:
   127ac:	e59fc064 	ldr	ip, [pc, #100]	; 12818 <MicroDelay+0x6c>
   127b0:	e92d01f0 	push	{r4, r5, r6, r7, r8}
   127b4:	e59c6004 	ldr	r6, [ip, #4]
   127b8:	e59c7008 	ldr	r7, [ip, #8]
   127bc:	e1a04006 	mov	r4, r6
   127c0:	e59c1004 	ldr	r1, [ip, #4]
   127c4:	e1a05007 	mov	r5, r7
   127c8:	e59c6008 	ldr	r6, [ip, #8]
   127cc:	e0947000 	adds	r7, r4, r0
   127d0:	e2a58000 	adc	r8, r5, #0
   127d4:	e1a02001 	mov	r2, r1
   127d8:	e1a00007 	mov	r0, r7
   127dc:	e1a01008 	mov	r1, r8
   127e0:	e1a03006 	mov	r3, r6
   127e4:	e1510003 	cmp	r1, r3
   127e8:	01500002 	cmpeq	r0, r2
   127ec:	9a000007 	bls	12810 <MicroDelay+0x64>
   127f0:	e1a00000 	nop			; (mov r0, r0)
   127f4:	e59c5004 	ldr	r5, [ip, #4]
   127f8:	e59c4008 	ldr	r4, [ip, #8]
   127fc:	e1a02005 	mov	r2, r5
   12800:	e1a03004 	mov	r3, r4
   12804:	e1510003 	cmp	r1, r3
   12808:	01500002 	cmpeq	r0, r2
   1280c:	8afffff7 	bhi	127f0 <MicroDelay+0x44>
   12810:	e8bd01f0 	pop	{r4, r5, r6, r7, r8}
   12814:	e12fff1e 	bx	lr
   12818:	20003000 	.word	0x20003000

0001281c <PowerOnUsb>:
   1281c:	e59f1040 	ldr	r1, [pc, #64]	; 12864 <PowerOnUsb+0x48>
   12820:	e5913898 	ldr	r3, [r1, #2200]	; 0x898
   12824:	e3530000 	cmp	r3, #0
   12828:	e59f2034 	ldr	r2, [pc, #52]	; 12864 <PowerOnUsb+0x48>
   1282c:	bafffffb 	blt	12820 <PowerOnUsb+0x4>
   12830:	e3a03080 	mov	r3, #128	; 0x80
   12834:	e58238a0 	str	r3, [r2, #2208]	; 0x8a0
   12838:	e5923898 	ldr	r3, [r2, #2200]	; 0x898
   1283c:	e3130101 	tst	r3, #1073741824	; 0x40000000
   12840:	1afffffc 	bne	12838 <PowerOnUsb+0x1c>
   12844:	e5923880 	ldr	r3, [r2, #2176]	; 0x880
   12848:	e313000f 	tst	r3, #15
   1284c:	1afffff9 	bne	12838 <PowerOnUsb+0x1c>
   12850:	e3530080 	cmp	r3, #128	; 0x80
   12854:	13a0033f 	movne	r0, #-67108864	; 0xfc000000
   12858:	03a00000 	moveq	r0, #0
   1285c:	e1a00c40 	asr	r0, r0, #24
   12860:	e12fff1e 	bx	lr
   12864:	2000b000 	.word	0x2000b000

00012868 <__aeabi_idiv>:
   12868:	e3510000 	cmp	r1, #0
   1286c:	0a000043 	beq	12980 <.divsi3_skip_div0_test+0x110>

00012870 <.divsi3_skip_div0_test>:
   12870:	e020c001 	eor	ip, r0, r1
   12874:	42611000 	rsbmi	r1, r1, #0
   12878:	e2512001 	subs	r2, r1, #1
   1287c:	0a000027 	beq	12920 <.divsi3_skip_div0_test+0xb0>
   12880:	e1b03000 	movs	r3, r0
   12884:	42603000 	rsbmi	r3, r0, #0
   12888:	e1530001 	cmp	r3, r1
   1288c:	9a000026 	bls	1292c <.divsi3_skip_div0_test+0xbc>
   12890:	e1110002 	tst	r1, r2
   12894:	0a000028 	beq	1293c <.divsi3_skip_div0_test+0xcc>
   12898:	e311020e 	tst	r1, #-536870912	; 0xe0000000
   1289c:	01a01181 	lsleq	r1, r1, #3
   128a0:	03a02008 	moveq	r2, #8
   128a4:	13a02001 	movne	r2, #1
   128a8:	e3510201 	cmp	r1, #268435456	; 0x10000000
   128ac:	31510003 	cmpcc	r1, r3
   128b0:	31a01201 	lslcc	r1, r1, #4
   128b4:	31a02202 	lslcc	r2, r2, #4
   128b8:	3afffffa 	bcc	128a8 <.divsi3_skip_div0_test+0x38>
   128bc:	e3510102 	cmp	r1, #-2147483648	; 0x80000000
   128c0:	31510003 	cmpcc	r1, r3
   128c4:	31a01081 	lslcc	r1, r1, #1
   128c8:	31a02082 	lslcc	r2, r2, #1
   128cc:	3afffffa 	bcc	128bc <.divsi3_skip_div0_test+0x4c>
   128d0:	e3a00000 	mov	r0, #0
   128d4:	e1530001 	cmp	r3, r1
   128d8:	20433001 	subcs	r3, r3, r1
   128dc:	21800002 	orrcs	r0, r0, r2
   128e0:	e15300a1 	cmp	r3, r1, lsr #1
   128e4:	204330a1 	subcs	r3, r3, r1, lsr #1
   128e8:	218000a2 	orrcs	r0, r0, r2, lsr #1
   128ec:	e1530121 	cmp	r3, r1, lsr #2
   128f0:	20433121 	subcs	r3, r3, r1, lsr #2
   128f4:	21800122 	orrcs	r0, r0, r2, lsr #2
   128f8:	e15301a1 	cmp	r3, r1, lsr #3
   128fc:	204331a1 	subcs	r3, r3, r1, lsr #3
   12900:	218001a2 	orrcs	r0, r0, r2, lsr #3
   12904:	e3530000 	cmp	r3, #0
   12908:	11b02222 	lsrsne	r2, r2, #4
   1290c:	11a01221 	lsrne	r1, r1, #4
   12910:	1affffef 	bne	128d4 <.divsi3_skip_div0_test+0x64>
   12914:	e35c0000 	cmp	ip, #0
   12918:	42600000 	rsbmi	r0, r0, #0
   1291c:	e12fff1e 	bx	lr
   12920:	e13c0000 	teq	ip, r0
   12924:	42600000 	rsbmi	r0, r0, #0
   12928:	e12fff1e 	bx	lr
   1292c:	33a00000 	movcc	r0, #0
   12930:	01a00fcc 	asreq	r0, ip, #31
   12934:	03800001 	orreq	r0, r0, #1
   12938:	e12fff1e 	bx	lr
   1293c:	e3510801 	cmp	r1, #65536	; 0x10000
   12940:	21a01821 	lsrcs	r1, r1, #16
   12944:	23a02010 	movcs	r2, #16
   12948:	33a02000 	movcc	r2, #0
   1294c:	e3510c01 	cmp	r1, #256	; 0x100
   12950:	21a01421 	lsrcs	r1, r1, #8
   12954:	22822008 	addcs	r2, r2, #8
   12958:	e3510010 	cmp	r1, #16
   1295c:	21a01221 	lsrcs	r1, r1, #4
   12960:	22822004 	addcs	r2, r2, #4
   12964:	e3510004 	cmp	r1, #4
   12968:	82822003 	addhi	r2, r2, #3
   1296c:	908220a1 	addls	r2, r2, r1, lsr #1
   12970:	e35c0000 	cmp	ip, #0
   12974:	e1a00233 	lsr	r0, r3, r2
   12978:	42600000 	rsbmi	r0, r0, #0
   1297c:	e12fff1e 	bx	lr
   12980:	e3500000 	cmp	r0, #0
   12984:	c3e00102 	mvngt	r0, #-2147483648	; 0x80000000
   12988:	b3a00102 	movlt	r0, #-2147483648	; 0x80000000
   1298c:	ea000007 	b	129b0 <__aeabi_idiv0>

00012990 <__aeabi_idivmod>:
   12990:	e3510000 	cmp	r1, #0
   12994:	0afffff9 	beq	12980 <.divsi3_skip_div0_test+0x110>
   12998:	e92d4003 	push	{r0, r1, lr}
   1299c:	ebffffb3 	bl	12870 <.divsi3_skip_div0_test>
   129a0:	e8bd4006 	pop	{r1, r2, lr}
   129a4:	e0030092 	mul	r3, r2, r0
   129a8:	e0411003 	sub	r1, r1, r3
   129ac:	e12fff1e 	bx	lr

000129b0 <__aeabi_idiv0>:
   129b0:	e12fff1e 	bx	lr
